
Nucleo_U575_TFT16bit.elf:     file format elf32-littlearm

Sections:
Idx Name          Size      VMA       LMA       File off  Algn
  0 .isr_vector   00000234  08000000  08000000  00010000  2**0
                  CONTENTS, ALLOC, LOAD, READONLY, DATA
  1 .text         00005ebc  08000238  08000238  00010238  2**3
                  CONTENTS, ALLOC, LOAD, READONLY, CODE
  2 .rodata       00000100  080060f4  080060f4  000160f4  2**2
                  CONTENTS, ALLOC, LOAD, READONLY, DATA
  3 .ARM          00000008  080061f4  080061f4  000161f4  2**2
                  CONTENTS, ALLOC, LOAD, READONLY, DATA
  4 .init_array   00000004  080061fc  080061fc  000161fc  2**2
                  CONTENTS, ALLOC, LOAD, DATA
  5 .fini_array   00000004  08006200  08006200  00016200  2**2
                  CONTENTS, ALLOC, LOAD, DATA
  6 .data         0002580c  20000000  08006204  00020000  2**2
                  CONTENTS, ALLOC, LOAD, DATA
  7 .bss          000006a8  20025810  0802ba10  00045810  2**3
                  ALLOC
  8 ._user_heap_stack 00000600  20025eb8  0802ba10  00045eb8  2**0
                  ALLOC
  9 .ARM.attributes 00000036  00000000  00000000  0004580c  2**0
                  CONTENTS, READONLY
 10 .comment      00000050  00000000  00000000  00045842  2**0
                  CONTENTS, READONLY
 11 .debug_frame  000000b0  00000000  00000000  00045894  2**2
                  CONTENTS, READONLY, DEBUGGING, OCTETS

Disassembly of section .text:

08000238 <__do_global_dtors_aux>:
 8000238:	b510      	push	{r4, lr}
 800023a:	4c05      	ldr	r4, [pc, #20]	; (8000250 <__do_global_dtors_aux+0x18>)
 800023c:	7823      	ldrb	r3, [r4, #0]
 800023e:	b933      	cbnz	r3, 800024e <__do_global_dtors_aux+0x16>
 8000240:	4b04      	ldr	r3, [pc, #16]	; (8000254 <__do_global_dtors_aux+0x1c>)
 8000242:	b113      	cbz	r3, 800024a <__do_global_dtors_aux+0x12>
 8000244:	4804      	ldr	r0, [pc, #16]	; (8000258 <__do_global_dtors_aux+0x20>)
 8000246:	e000      	b.n	800024a <__do_global_dtors_aux+0x12>
 8000248:	bf00      	nop
 800024a:	2301      	movs	r3, #1
 800024c:	7023      	strb	r3, [r4, #0]
 800024e:	bd10      	pop	{r4, pc}
 8000250:	20025810 	.word	0x20025810
 8000254:	00000000 	.word	0x00000000
 8000258:	080060dc 	.word	0x080060dc

0800025c <frame_dummy>:
 800025c:	b508      	push	{r3, lr}
 800025e:	4b03      	ldr	r3, [pc, #12]	; (800026c <frame_dummy+0x10>)
 8000260:	b11b      	cbz	r3, 800026a <frame_dummy+0xe>
 8000262:	4903      	ldr	r1, [pc, #12]	; (8000270 <frame_dummy+0x14>)
 8000264:	4803      	ldr	r0, [pc, #12]	; (8000274 <frame_dummy+0x18>)
 8000266:	e000      	b.n	800026a <frame_dummy+0xe>
 8000268:	bf00      	nop
 800026a:	bd08      	pop	{r3, pc}
 800026c:	00000000 	.word	0x00000000
 8000270:	20025814 	.word	0x20025814
 8000274:	080060dc 	.word	0x080060dc

08000278 <__aeabi_uldivmod>:
 8000278:	b953      	cbnz	r3, 8000290 <__aeabi_uldivmod+0x18>
 800027a:	b94a      	cbnz	r2, 8000290 <__aeabi_uldivmod+0x18>
 800027c:	2900      	cmp	r1, #0
 800027e:	bf08      	it	eq
 8000280:	2800      	cmpeq	r0, #0
 8000282:	bf1c      	itt	ne
 8000284:	f04f 31ff 	movne.w	r1, #4294967295
 8000288:	f04f 30ff 	movne.w	r0, #4294967295
 800028c:	f000 b982 	b.w	8000594 <__aeabi_idiv0>
 8000290:	f1ad 0c08 	sub.w	ip, sp, #8
 8000294:	e96d ce04 	strd	ip, lr, [sp, #-16]!
 8000298:	f000 f806 	bl	80002a8 <__udivmoddi4>
 800029c:	f8dd e004 	ldr.w	lr, [sp, #4]
 80002a0:	e9dd 2302 	ldrd	r2, r3, [sp, #8]
 80002a4:	b004      	add	sp, #16
 80002a6:	4770      	bx	lr

080002a8 <__udivmoddi4>:
 80002a8:	e92d 4ff0 	stmdb	sp!, {r4, r5, r6, r7, r8, r9, sl, fp, lr}
 80002ac:	9d09      	ldr	r5, [sp, #36]	; 0x24
 80002ae:	4604      	mov	r4, r0
 80002b0:	460f      	mov	r7, r1
 80002b2:	2b00      	cmp	r3, #0
 80002b4:	d148      	bne.n	8000348 <__udivmoddi4+0xa0>
 80002b6:	428a      	cmp	r2, r1
 80002b8:	4694      	mov	ip, r2
 80002ba:	d961      	bls.n	8000380 <__udivmoddi4+0xd8>
 80002bc:	fab2 f382 	clz	r3, r2
 80002c0:	b143      	cbz	r3, 80002d4 <__udivmoddi4+0x2c>
 80002c2:	f1c3 0120 	rsb	r1, r3, #32
 80002c6:	409f      	lsls	r7, r3
 80002c8:	fa02 fc03 	lsl.w	ip, r2, r3
 80002cc:	409c      	lsls	r4, r3
 80002ce:	fa20 f101 	lsr.w	r1, r0, r1
 80002d2:	430f      	orrs	r7, r1
 80002d4:	ea4f 411c 	mov.w	r1, ip, lsr #16
 80002d8:	fa1f fe8c 	uxth.w	lr, ip
 80002dc:	0c22      	lsrs	r2, r4, #16
 80002de:	fbb7 f6f1 	udiv	r6, r7, r1
 80002e2:	fb01 7716 	mls	r7, r1, r6, r7
 80002e6:	fb06 f00e 	mul.w	r0, r6, lr
 80002ea:	ea42 4207 	orr.w	r2, r2, r7, lsl #16
 80002ee:	4290      	cmp	r0, r2
 80002f0:	d908      	bls.n	8000304 <__udivmoddi4+0x5c>
 80002f2:	eb1c 0202 	adds.w	r2, ip, r2
 80002f6:	f106 37ff 	add.w	r7, r6, #4294967295
 80002fa:	d202      	bcs.n	8000302 <__udivmoddi4+0x5a>
 80002fc:	4290      	cmp	r0, r2
 80002fe:	f200 8137 	bhi.w	8000570 <__udivmoddi4+0x2c8>
 8000302:	463e      	mov	r6, r7
 8000304:	1a12      	subs	r2, r2, r0
 8000306:	b2a4      	uxth	r4, r4
 8000308:	fbb2 f0f1 	udiv	r0, r2, r1
 800030c:	fb01 2210 	mls	r2, r1, r0, r2
 8000310:	fb00 fe0e 	mul.w	lr, r0, lr
 8000314:	ea44 4402 	orr.w	r4, r4, r2, lsl #16
 8000318:	45a6      	cmp	lr, r4
 800031a:	d908      	bls.n	800032e <__udivmoddi4+0x86>
 800031c:	eb1c 0404 	adds.w	r4, ip, r4
 8000320:	f100 32ff 	add.w	r2, r0, #4294967295
 8000324:	d202      	bcs.n	800032c <__udivmoddi4+0x84>
 8000326:	45a6      	cmp	lr, r4
 8000328:	f200 811c 	bhi.w	8000564 <__udivmoddi4+0x2bc>
 800032c:	4610      	mov	r0, r2
 800032e:	ea40 4006 	orr.w	r0, r0, r6, lsl #16
 8000332:	eba4 040e 	sub.w	r4, r4, lr
 8000336:	2600      	movs	r6, #0
 8000338:	b11d      	cbz	r5, 8000342 <__udivmoddi4+0x9a>
 800033a:	40dc      	lsrs	r4, r3
 800033c:	2300      	movs	r3, #0
 800033e:	e9c5 4300 	strd	r4, r3, [r5]
 8000342:	4631      	mov	r1, r6
 8000344:	e8bd 8ff0 	ldmia.w	sp!, {r4, r5, r6, r7, r8, r9, sl, fp, pc}
 8000348:	428b      	cmp	r3, r1
 800034a:	d909      	bls.n	8000360 <__udivmoddi4+0xb8>
 800034c:	2d00      	cmp	r5, #0
 800034e:	f000 80fd 	beq.w	800054c <__udivmoddi4+0x2a4>
 8000352:	2600      	movs	r6, #0
 8000354:	e9c5 0100 	strd	r0, r1, [r5]
 8000358:	4630      	mov	r0, r6
 800035a:	4631      	mov	r1, r6
 800035c:	e8bd 8ff0 	ldmia.w	sp!, {r4, r5, r6, r7, r8, r9, sl, fp, pc}
 8000360:	fab3 f683 	clz	r6, r3
 8000364:	2e00      	cmp	r6, #0
 8000366:	d14b      	bne.n	8000400 <__udivmoddi4+0x158>
 8000368:	428b      	cmp	r3, r1
 800036a:	f0c0 80f2 	bcc.w	8000552 <__udivmoddi4+0x2aa>
 800036e:	4282      	cmp	r2, r0
 8000370:	f240 80ef 	bls.w	8000552 <__udivmoddi4+0x2aa>
 8000374:	4630      	mov	r0, r6
 8000376:	2d00      	cmp	r5, #0
 8000378:	d0e3      	beq.n	8000342 <__udivmoddi4+0x9a>
 800037a:	e9c5 4700 	strd	r4, r7, [r5]
 800037e:	e7e0      	b.n	8000342 <__udivmoddi4+0x9a>
 8000380:	b902      	cbnz	r2, 8000384 <__udivmoddi4+0xdc>
 8000382:	deff      	udf	#255	; 0xff
 8000384:	fab2 f382 	clz	r3, r2
 8000388:	2b00      	cmp	r3, #0
 800038a:	f040 809d 	bne.w	80004c8 <__udivmoddi4+0x220>
 800038e:	1a89      	subs	r1, r1, r2
 8000390:	ea4f 4e12 	mov.w	lr, r2, lsr #16
 8000394:	b297      	uxth	r7, r2
 8000396:	2601      	movs	r6, #1
 8000398:	0c20      	lsrs	r0, r4, #16
 800039a:	fbb1 f2fe 	udiv	r2, r1, lr
 800039e:	fb0e 1112 	mls	r1, lr, r2, r1
 80003a2:	ea40 4101 	orr.w	r1, r0, r1, lsl #16
 80003a6:	fb07 f002 	mul.w	r0, r7, r2
 80003aa:	4288      	cmp	r0, r1
 80003ac:	d90f      	bls.n	80003ce <__udivmoddi4+0x126>
 80003ae:	eb1c 0101 	adds.w	r1, ip, r1
 80003b2:	f102 38ff 	add.w	r8, r2, #4294967295
 80003b6:	bf2c      	ite	cs
 80003b8:	f04f 0901 	movcs.w	r9, #1
 80003bc:	f04f 0900 	movcc.w	r9, #0
 80003c0:	4288      	cmp	r0, r1
 80003c2:	d903      	bls.n	80003cc <__udivmoddi4+0x124>
 80003c4:	f1b9 0f00 	cmp.w	r9, #0
 80003c8:	f000 80cf 	beq.w	800056a <__udivmoddi4+0x2c2>
 80003cc:	4642      	mov	r2, r8
 80003ce:	1a09      	subs	r1, r1, r0
 80003d0:	b2a4      	uxth	r4, r4
 80003d2:	fbb1 f0fe 	udiv	r0, r1, lr
 80003d6:	fb0e 1110 	mls	r1, lr, r0, r1
 80003da:	fb00 f707 	mul.w	r7, r0, r7
 80003de:	ea44 4401 	orr.w	r4, r4, r1, lsl #16
 80003e2:	42a7      	cmp	r7, r4
 80003e4:	d908      	bls.n	80003f8 <__udivmoddi4+0x150>
 80003e6:	eb1c 0404 	adds.w	r4, ip, r4
 80003ea:	f100 31ff 	add.w	r1, r0, #4294967295
 80003ee:	d202      	bcs.n	80003f6 <__udivmoddi4+0x14e>
 80003f0:	42a7      	cmp	r7, r4
 80003f2:	f200 80b4 	bhi.w	800055e <__udivmoddi4+0x2b6>
 80003f6:	4608      	mov	r0, r1
 80003f8:	1be4      	subs	r4, r4, r7
 80003fa:	ea40 4002 	orr.w	r0, r0, r2, lsl #16
 80003fe:	e79b      	b.n	8000338 <__udivmoddi4+0x90>
 8000400:	f1c6 0720 	rsb	r7, r6, #32
 8000404:	40b3      	lsls	r3, r6
 8000406:	fa01 f406 	lsl.w	r4, r1, r6
 800040a:	fa22 fc07 	lsr.w	ip, r2, r7
 800040e:	40f9      	lsrs	r1, r7
 8000410:	40b2      	lsls	r2, r6
 8000412:	ea4c 0c03 	orr.w	ip, ip, r3
 8000416:	fa20 f307 	lsr.w	r3, r0, r7
 800041a:	ea4f 491c 	mov.w	r9, ip, lsr #16
 800041e:	431c      	orrs	r4, r3
 8000420:	fa1f fe8c 	uxth.w	lr, ip
 8000424:	fa00 f306 	lsl.w	r3, r0, r6
 8000428:	0c20      	lsrs	r0, r4, #16
 800042a:	fbb1 f8f9 	udiv	r8, r1, r9
 800042e:	fb09 1118 	mls	r1, r9, r8, r1
 8000432:	ea40 4101 	orr.w	r1, r0, r1, lsl #16
 8000436:	fb08 f00e 	mul.w	r0, r8, lr
 800043a:	4288      	cmp	r0, r1
 800043c:	d90f      	bls.n	800045e <__udivmoddi4+0x1b6>
 800043e:	eb1c 0101 	adds.w	r1, ip, r1
 8000442:	f108 3aff 	add.w	sl, r8, #4294967295
 8000446:	bf2c      	ite	cs
 8000448:	f04f 0b01 	movcs.w	fp, #1
 800044c:	f04f 0b00 	movcc.w	fp, #0
 8000450:	4288      	cmp	r0, r1
 8000452:	d903      	bls.n	800045c <__udivmoddi4+0x1b4>
 8000454:	f1bb 0f00 	cmp.w	fp, #0
 8000458:	f000 808d 	beq.w	8000576 <__udivmoddi4+0x2ce>
 800045c:	46d0      	mov	r8, sl
 800045e:	1a09      	subs	r1, r1, r0
 8000460:	b2a4      	uxth	r4, r4
 8000462:	fbb1 f0f9 	udiv	r0, r1, r9
 8000466:	fb09 1110 	mls	r1, r9, r0, r1
 800046a:	fb00 fe0e 	mul.w	lr, r0, lr
 800046e:	ea44 4101 	orr.w	r1, r4, r1, lsl #16
 8000472:	458e      	cmp	lr, r1
 8000474:	d907      	bls.n	8000486 <__udivmoddi4+0x1de>
 8000476:	eb1c 0101 	adds.w	r1, ip, r1
 800047a:	f100 34ff 	add.w	r4, r0, #4294967295
 800047e:	d201      	bcs.n	8000484 <__udivmoddi4+0x1dc>
 8000480:	458e      	cmp	lr, r1
 8000482:	d87f      	bhi.n	8000584 <__udivmoddi4+0x2dc>
 8000484:	4620      	mov	r0, r4
 8000486:	ea40 4008 	orr.w	r0, r0, r8, lsl #16
 800048a:	eba1 010e 	sub.w	r1, r1, lr
 800048e:	fba0 9802 	umull	r9, r8, r0, r2
 8000492:	4541      	cmp	r1, r8
 8000494:	464c      	mov	r4, r9
 8000496:	46c6      	mov	lr, r8
 8000498:	d302      	bcc.n	80004a0 <__udivmoddi4+0x1f8>
 800049a:	d106      	bne.n	80004aa <__udivmoddi4+0x202>
 800049c:	454b      	cmp	r3, r9
 800049e:	d204      	bcs.n	80004aa <__udivmoddi4+0x202>
 80004a0:	3801      	subs	r0, #1
 80004a2:	ebb9 0402 	subs.w	r4, r9, r2
 80004a6:	eb68 0e0c 	sbc.w	lr, r8, ip
 80004aa:	2d00      	cmp	r5, #0
 80004ac:	d070      	beq.n	8000590 <__udivmoddi4+0x2e8>
 80004ae:	1b1a      	subs	r2, r3, r4
 80004b0:	eb61 010e 	sbc.w	r1, r1, lr
 80004b4:	fa22 f306 	lsr.w	r3, r2, r6
 80004b8:	fa01 f707 	lsl.w	r7, r1, r7
 80004bc:	40f1      	lsrs	r1, r6
 80004be:	2600      	movs	r6, #0
 80004c0:	431f      	orrs	r7, r3
 80004c2:	e9c5 7100 	strd	r7, r1, [r5]
 80004c6:	e73c      	b.n	8000342 <__udivmoddi4+0x9a>
 80004c8:	fa02 fc03 	lsl.w	ip, r2, r3
 80004cc:	f1c3 0020 	rsb	r0, r3, #32
 80004d0:	fa01 f203 	lsl.w	r2, r1, r3
 80004d4:	fa21 f600 	lsr.w	r6, r1, r0
 80004d8:	ea4f 4e1c 	mov.w	lr, ip, lsr #16
 80004dc:	fa24 f100 	lsr.w	r1, r4, r0
 80004e0:	fa1f f78c 	uxth.w	r7, ip
 80004e4:	409c      	lsls	r4, r3
 80004e6:	4311      	orrs	r1, r2
 80004e8:	fbb6 f0fe 	udiv	r0, r6, lr
 80004ec:	0c0a      	lsrs	r2, r1, #16
 80004ee:	fb0e 6610 	mls	r6, lr, r0, r6
 80004f2:	ea42 4206 	orr.w	r2, r2, r6, lsl #16
 80004f6:	fb00 f607 	mul.w	r6, r0, r7
 80004fa:	4296      	cmp	r6, r2
 80004fc:	d90e      	bls.n	800051c <__udivmoddi4+0x274>
 80004fe:	eb1c 0202 	adds.w	r2, ip, r2
 8000502:	f100 38ff 	add.w	r8, r0, #4294967295
 8000506:	bf2c      	ite	cs
 8000508:	f04f 0901 	movcs.w	r9, #1
 800050c:	f04f 0900 	movcc.w	r9, #0
 8000510:	4296      	cmp	r6, r2
 8000512:	d902      	bls.n	800051a <__udivmoddi4+0x272>
 8000514:	f1b9 0f00 	cmp.w	r9, #0
 8000518:	d031      	beq.n	800057e <__udivmoddi4+0x2d6>
 800051a:	4640      	mov	r0, r8
 800051c:	1b92      	subs	r2, r2, r6
 800051e:	b289      	uxth	r1, r1
 8000520:	fbb2 f6fe 	udiv	r6, r2, lr
 8000524:	fb0e 2216 	mls	r2, lr, r6, r2
 8000528:	ea41 4102 	orr.w	r1, r1, r2, lsl #16
 800052c:	fb06 f207 	mul.w	r2, r6, r7
 8000530:	428a      	cmp	r2, r1
 8000532:	d907      	bls.n	8000544 <__udivmoddi4+0x29c>
 8000534:	eb1c 0101 	adds.w	r1, ip, r1
 8000538:	f106 38ff 	add.w	r8, r6, #4294967295
 800053c:	d201      	bcs.n	8000542 <__udivmoddi4+0x29a>
 800053e:	428a      	cmp	r2, r1
 8000540:	d823      	bhi.n	800058a <__udivmoddi4+0x2e2>
 8000542:	4646      	mov	r6, r8
 8000544:	1a89      	subs	r1, r1, r2
 8000546:	ea46 4600 	orr.w	r6, r6, r0, lsl #16
 800054a:	e725      	b.n	8000398 <__udivmoddi4+0xf0>
 800054c:	462e      	mov	r6, r5
 800054e:	4628      	mov	r0, r5
 8000550:	e6f7      	b.n	8000342 <__udivmoddi4+0x9a>
 8000552:	1a84      	subs	r4, r0, r2
 8000554:	eb61 0303 	sbc.w	r3, r1, r3
 8000558:	2001      	movs	r0, #1
 800055a:	461f      	mov	r7, r3
 800055c:	e70b      	b.n	8000376 <__udivmoddi4+0xce>
 800055e:	4464      	add	r4, ip
 8000560:	3802      	subs	r0, #2
 8000562:	e749      	b.n	80003f8 <__udivmoddi4+0x150>
 8000564:	4464      	add	r4, ip
 8000566:	3802      	subs	r0, #2
 8000568:	e6e1      	b.n	800032e <__udivmoddi4+0x86>
 800056a:	3a02      	subs	r2, #2
 800056c:	4461      	add	r1, ip
 800056e:	e72e      	b.n	80003ce <__udivmoddi4+0x126>
 8000570:	3e02      	subs	r6, #2
 8000572:	4462      	add	r2, ip
 8000574:	e6c6      	b.n	8000304 <__udivmoddi4+0x5c>
 8000576:	f1a8 0802 	sub.w	r8, r8, #2
 800057a:	4461      	add	r1, ip
 800057c:	e76f      	b.n	800045e <__udivmoddi4+0x1b6>
 800057e:	3802      	subs	r0, #2
 8000580:	4462      	add	r2, ip
 8000582:	e7cb      	b.n	800051c <__udivmoddi4+0x274>
 8000584:	3802      	subs	r0, #2
 8000586:	4461      	add	r1, ip
 8000588:	e77d      	b.n	8000486 <__udivmoddi4+0x1de>
 800058a:	3e02      	subs	r6, #2
 800058c:	4461      	add	r1, ip
 800058e:	e7d9      	b.n	8000544 <__udivmoddi4+0x29c>
 8000590:	462e      	mov	r6, r5
 8000592:	e6d6      	b.n	8000342 <__udivmoddi4+0x9a>

08000594 <__aeabi_idiv0>:
 8000594:	4770      	bx	lr
 8000596:	bf00      	nop

08000598 <FMCSRAMInit>:
 8000598:	b530      	push	{r4, r5, lr}
 800059a:	460c      	mov	r4, r1
 800059c:	b09f      	sub	sp, #124	; 0x7c
 800059e:	4605      	mov	r5, r0
 80005a0:	2220      	movs	r2, #32
 80005a2:	2100      	movs	r1, #0
 80005a4:	4668      	mov	r0, sp
 80005a6:	f005 fd91 	bl	80060cc <memset>
 80005aa:	a31d      	add	r3, pc, #116	; (adr r3, 8000620 <FMCSRAMInit+0x88>)
 80005ac:	e9d3 2300 	ldrd	r2, r3, [r3]
 80005b0:	2c01      	cmp	r4, #1
 80005b2:	e9cd 2308 	strd	r2, r3, [sp, #32]
 80005b6:	bf17      	itett	ne
 80005b8:	2301      	movne	r3, #1
 80005ba:	2400      	moveq	r4, #0
 80005bc:	f104 34ff 	addne.w	r4, r4, #4294967295
 80005c0:	fa03 f404 	lslne.w	r4, r3, r4
 80005c4:	782b      	ldrb	r3, [r5, #0]
 80005c6:	940a      	str	r4, [sp, #40]	; 0x28
 80005c8:	2b08      	cmp	r3, #8
 80005ca:	d022      	beq.n	8000612 <FMCSRAMInit+0x7a>
 80005cc:	2b10      	cmp	r3, #16
 80005ce:	bf18      	it	ne
 80005d0:	2320      	movne	r3, #32
 80005d2:	930d      	str	r3, [sp, #52]	; 0x34
 80005d4:	2400      	movs	r4, #0
 80005d6:	f44f 5580 	mov.w	r5, #4096	; 0x1000
 80005da:	ed9f 7b0f 	vldr	d7, [pc, #60]	; 8000618 <FMCSRAMInit+0x80>
 80005de:	2200      	movs	r2, #0
 80005e0:	2306      	movs	r3, #6
 80005e2:	e9cd 4510 	strd	r4, r5, [sp, #64]	; 0x40
 80005e6:	2400      	movs	r4, #0
 80005e8:	f44f 1500 	mov.w	r5, #2097152	; 0x200000
 80005ec:	4669      	mov	r1, sp
 80005ee:	a808      	add	r0, sp, #32
 80005f0:	ed8d 7b0e 	vstr	d7, [sp, #56]	; 0x38
 80005f4:	ed8d 7b12 	vstr	d7, [sp, #72]	; 0x48
 80005f8:	ed8d 7b14 	vstr	d7, [sp, #80]	; 0x50
 80005fc:	e9cd 220b 	strd	r2, r2, [sp, #44]	; 0x2c
 8000600:	e9cd 4516 	strd	r4, r5, [sp, #88]	; 0x58
 8000604:	9218      	str	r2, [sp, #96]	; 0x60
 8000606:	9300      	str	r3, [sp, #0]
 8000608:	9302      	str	r3, [sp, #8]
 800060a:	f004 fd67 	bl	80050dc <HAL_SRAM_Init>
 800060e:	b01f      	add	sp, #124	; 0x7c
 8000610:	bd30      	pop	{r4, r5, pc}
 8000612:	2300      	movs	r3, #0
 8000614:	930d      	str	r3, [sp, #52]	; 0x34
 8000616:	e7dd      	b.n	80005d4 <FMCSRAMInit+0x3c>
	...
 8000620:	420d0400 	.word	0x420d0400
 8000624:	420d0504 	.word	0x420d0504

08000628 <SystemClock_Config>:
 8000628:	b530      	push	{r4, r5, lr}
 800062a:	b09f      	sub	sp, #124	; 0x7c
 800062c:	2260      	movs	r2, #96	; 0x60
 800062e:	2100      	movs	r1, #0
 8000630:	a806      	add	r0, sp, #24
 8000632:	f005 fd4b 	bl	80060cc <memset>
 8000636:	2300      	movs	r3, #0
 8000638:	f44f 3040 	mov.w	r0, #196608	; 0x30000
 800063c:	e9cd 3300 	strd	r3, r3, [sp]
 8000640:	e9cd 3302 	strd	r3, r3, [sp, #8]
 8000644:	e9cd 3304 	strd	r3, r3, [sp, #16]
 8000648:	f001 ff02 	bl	8002450 <HAL_PWREx_ControlVoltageScaling>
 800064c:	b108      	cbz	r0, 8000652 <SystemClock_Config+0x2a>
 800064e:	b672      	cpsid	i
 8000650:	e7fe      	b.n	8000650 <SystemClock_Config+0x28>
 8000652:	f44f 7280 	mov.w	r2, #256	; 0x100
 8000656:	f44f 5480 	mov.w	r4, #4096	; 0x1000
 800065a:	2310      	movs	r3, #16
 800065c:	2500      	movs	r5, #0
 800065e:	9411      	str	r4, [sp, #68]	; 0x44
 8000660:	9209      	str	r2, [sp, #36]	; 0x24
 8000662:	2401      	movs	r4, #1
 8000664:	2201      	movs	r2, #1
 8000666:	2132      	movs	r1, #50	; 0x32
 8000668:	e9cd 230d 	strd	r2, r3, [sp, #52]	; 0x34
 800066c:	e9cd 4516 	strd	r4, r5, [sp, #88]	; 0x58
 8000670:	2202      	movs	r2, #2
 8000672:	2402      	movs	r4, #2
 8000674:	2502      	movs	r5, #2
 8000676:	930a      	str	r3, [sp, #40]	; 0x28
 8000678:	2301      	movs	r3, #1
 800067a:	e9cd 451a 	strd	r4, r5, [sp, #104]	; 0x68
 800067e:	e9cd 2314 	strd	r2, r3, [sp, #80]	; 0x50
 8000682:	2400      	movs	r4, #0
 8000684:	2250      	movs	r2, #80	; 0x50
 8000686:	2302      	movs	r3, #2
 8000688:	2500      	movs	r5, #0
 800068a:	9106      	str	r1, [sp, #24]
 800068c:	f04f 4180 	mov.w	r1, #1073741824	; 0x40000000
 8000690:	a806      	add	r0, sp, #24
 8000692:	e9cd 2318 	strd	r2, r3, [sp, #96]	; 0x60
 8000696:	e9cd 451c 	strd	r4, r5, [sp, #112]	; 0x70
 800069a:	910f      	str	r1, [sp, #60]	; 0x3c
 800069c:	f002 f9c0 	bl	8002a20 <HAL_RCC_OscConfig>
 80006a0:	b108      	cbz	r0, 80006a6 <SystemClock_Config+0x7e>
 80006a2:	b672      	cpsid	i
 80006a4:	e7fe      	b.n	80006a4 <SystemClock_Config+0x7c>
 80006a6:	221f      	movs	r2, #31
 80006a8:	2303      	movs	r3, #3
 80006aa:	4668      	mov	r0, sp
 80006ac:	2104      	movs	r1, #4
 80006ae:	e9cd 4502 	strd	r4, r5, [sp, #8]
 80006b2:	e9cd 4504 	strd	r4, r5, [sp, #16]
 80006b6:	e9cd 2300 	strd	r2, r3, [sp]
 80006ba:	f002 f84d 	bl	8002758 <HAL_RCC_ClockConfig>
 80006be:	b108      	cbz	r0, 80006c4 <SystemClock_Config+0x9c>
 80006c0:	b672      	cpsid	i
 80006c2:	e7fe      	b.n	80006c2 <SystemClock_Config+0x9a>
 80006c4:	b01f      	add	sp, #124	; 0x7c
 80006c6:	bd30      	pop	{r4, r5, pc}

080006c8 <main>:
 80006c8:	e92d 4ff0 	stmdb	sp!, {r4, r5, r6, r7, r8, r9, sl, fp, lr}
 80006cc:	b093      	sub	sp, #76	; 0x4c
 80006ce:	f000 fcb1 	bl	8001034 <HAL_Init>
 80006d2:	f7ff ffa9 	bl	8000628 <SystemClock_Config>
 80006d6:	f001 ff49 	bl	800256c <HAL_PWREx_EnableVddIO2>
 80006da:	2002      	movs	r0, #2
 80006dc:	f001 ff02 	bl	80024e4 <HAL_PWREx_ConfigSupply>
 80006e0:	b108      	cbz	r0, 80006e6 <main+0x1e>
 80006e2:	b672      	cpsid	i
 80006e4:	e7fe      	b.n	80006e4 <main+0x1c>
 80006e6:	2104      	movs	r1, #4
 80006e8:	e9cd 000a 	strd	r0, r0, [sp, #40]	; 0x28
 80006ec:	e9cd 000c 	strd	r0, r0, [sp, #48]	; 0x30
 80006f0:	4db7      	ldr	r5, [pc, #732]	; (80009d0 <main+0x308>)
 80006f2:	900e      	str	r0, [sp, #56]	; 0x38
 80006f4:	f8d5 308c 	ldr.w	r3, [r5, #140]	; 0x8c
 80006f8:	4604      	mov	r4, r0
 80006fa:	f043 0310 	orr.w	r3, r3, #16
 80006fe:	f8c5 308c 	str.w	r3, [r5, #140]	; 0x8c
 8000702:	f8d5 308c 	ldr.w	r3, [r5, #140]	; 0x8c
 8000706:	2604      	movs	r6, #4
 8000708:	f003 0310 	and.w	r3, r3, #16
 800070c:	9304      	str	r3, [sp, #16]
 800070e:	9b04      	ldr	r3, [sp, #16]
 8000710:	f8d5 308c 	ldr.w	r3, [r5, #140]	; 0x8c
 8000714:	2701      	movs	r7, #1
 8000716:	430b      	orrs	r3, r1
 8000718:	f8c5 308c 	str.w	r3, [r5, #140]	; 0x8c
 800071c:	f8d5 308c 	ldr.w	r3, [r5, #140]	; 0x8c
 8000720:	f04f 0800 	mov.w	r8, #0
 8000724:	400b      	ands	r3, r1
 8000726:	9305      	str	r3, [sp, #20]
 8000728:	9b05      	ldr	r3, [sp, #20]
 800072a:	f8d5 308c 	ldr.w	r3, [r5, #140]	; 0x8c
 800072e:	f04f 0900 	mov.w	r9, #0
 8000732:	f043 0302 	orr.w	r3, r3, #2
 8000736:	f8c5 308c 	str.w	r3, [r5, #140]	; 0x8c
 800073a:	f8d5 308c 	ldr.w	r3, [r5, #140]	; 0x8c
 800073e:	4622      	mov	r2, r4
 8000740:	f003 0302 	and.w	r3, r3, #2
 8000744:	9306      	str	r3, [sp, #24]
 8000746:	9b06      	ldr	r3, [sp, #24]
 8000748:	f8d5 308c 	ldr.w	r3, [r5, #140]	; 0x8c
 800074c:	48a1      	ldr	r0, [pc, #644]	; (80009d4 <main+0x30c>)
 800074e:	f043 0308 	orr.w	r3, r3, #8
 8000752:	f8c5 308c 	str.w	r3, [r5, #140]	; 0x8c
 8000756:	f8d5 308c 	ldr.w	r3, [r5, #140]	; 0x8c
 800075a:	f04f 0a80 	mov.w	sl, #128	; 0x80
 800075e:	f003 0308 	and.w	r3, r3, #8
 8000762:	9307      	str	r3, [sp, #28]
 8000764:	9b07      	ldr	r3, [sp, #28]
 8000766:	f8d5 308c 	ldr.w	r3, [r5, #140]	; 0x8c
 800076a:	f04f 0b01 	mov.w	fp, #1
 800076e:	f043 0340 	orr.w	r3, r3, #64	; 0x40
 8000772:	f8c5 308c 	str.w	r3, [r5, #140]	; 0x8c
 8000776:	f8d5 308c 	ldr.w	r3, [r5, #140]	; 0x8c
 800077a:	f003 0340 	and.w	r3, r3, #64	; 0x40
 800077e:	9308      	str	r3, [sp, #32]
 8000780:	9b08      	ldr	r3, [sp, #32]
 8000782:	f8d5 308c 	ldr.w	r3, [r5, #140]	; 0x8c
 8000786:	f043 0301 	orr.w	r3, r3, #1
 800078a:	f8c5 308c 	str.w	r3, [r5, #140]	; 0x8c
 800078e:	f8d5 308c 	ldr.w	r3, [r5, #140]	; 0x8c
 8000792:	f003 0301 	and.w	r3, r3, #1
 8000796:	9309      	str	r3, [sp, #36]	; 0x24
 8000798:	9b09      	ldr	r3, [sp, #36]	; 0x24
 800079a:	f000 ffe3 	bl	8001764 <HAL_GPIO_WritePin>
 800079e:	4622      	mov	r2, r4
 80007a0:	2104      	movs	r1, #4
 80007a2:	488d      	ldr	r0, [pc, #564]	; (80009d8 <main+0x310>)
 80007a4:	f000 ffde 	bl	8001764 <HAL_GPIO_WritePin>
 80007a8:	4622      	mov	r2, r4
 80007aa:	2180      	movs	r1, #128	; 0x80
 80007ac:	488b      	ldr	r0, [pc, #556]	; (80009dc <main+0x314>)
 80007ae:	f000 ffd9 	bl	8001764 <HAL_GPIO_WritePin>
 80007b2:	4622      	mov	r2, r4
 80007b4:	21a0      	movs	r1, #160	; 0xa0
 80007b6:	488a      	ldr	r0, [pc, #552]	; (80009e0 <main+0x318>)
 80007b8:	f000 ffd4 	bl	8001764 <HAL_GPIO_WritePin>
 80007bc:	4885      	ldr	r0, [pc, #532]	; (80009d4 <main+0x30c>)
 80007be:	a90a      	add	r1, sp, #40	; 0x28
 80007c0:	e9cd 670a 	strd	r6, r7, [sp, #40]	; 0x28
 80007c4:	e9cd 890c 	strd	r8, r9, [sp, #48]	; 0x30
 80007c8:	f000 feca 	bl	8001560 <HAL_GPIO_Init>
 80007cc:	f44f 5200 	mov.w	r2, #8192	; 0x2000
 80007d0:	4b84      	ldr	r3, [pc, #528]	; (80009e4 <main+0x31c>)
 80007d2:	4882      	ldr	r0, [pc, #520]	; (80009dc <main+0x314>)
 80007d4:	a90a      	add	r1, sp, #40	; 0x28
 80007d6:	e9cd 230a 	strd	r2, r3, [sp, #40]	; 0x28
 80007da:	940c      	str	r4, [sp, #48]	; 0x30
 80007dc:	f000 fec0 	bl	8001560 <HAL_GPIO_Init>
 80007e0:	f44f 4280 	mov.w	r2, #16384	; 0x4000
 80007e4:	2300      	movs	r3, #0
 80007e6:	487e      	ldr	r0, [pc, #504]	; (80009e0 <main+0x318>)
 80007e8:	a90a      	add	r1, sp, #40	; 0x28
 80007ea:	e9cd 230a 	strd	r2, r3, [sp, #40]	; 0x28
 80007ee:	940c      	str	r4, [sp, #48]	; 0x30
 80007f0:	f000 feb6 	bl	8001560 <HAL_GPIO_Init>
 80007f4:	e9cd 670a 	strd	r6, r7, [sp, #40]	; 0x28
 80007f8:	2601      	movs	r6, #1
 80007fa:	2702      	movs	r7, #2
 80007fc:	4876      	ldr	r0, [pc, #472]	; (80009d8 <main+0x310>)
 80007fe:	a90a      	add	r1, sp, #40	; 0x28
 8000800:	e9cd 670c 	strd	r6, r7, [sp, #48]	; 0x30
 8000804:	f000 feac 	bl	8001560 <HAL_GPIO_Init>
 8000808:	4874      	ldr	r0, [pc, #464]	; (80009dc <main+0x314>)
 800080a:	a90a      	add	r1, sp, #40	; 0x28
 800080c:	e9cd 670c 	strd	r6, r7, [sp, #48]	; 0x30
 8000810:	e9cd ab0a 	strd	sl, fp, [sp, #40]	; 0x28
 8000814:	f000 fea4 	bl	8001560 <HAL_GPIO_Init>
 8000818:	2220      	movs	r2, #32
 800081a:	2301      	movs	r3, #1
 800081c:	4870      	ldr	r0, [pc, #448]	; (80009e0 <main+0x318>)
 800081e:	a90a      	add	r1, sp, #40	; 0x28
 8000820:	e9cd 230a 	strd	r2, r3, [sp, #40]	; 0x28
 8000824:	e9cd 890c 	strd	r8, r9, [sp, #48]	; 0x30
 8000828:	f000 fe9a 	bl	8001560 <HAL_GPIO_Init>
 800082c:	486c      	ldr	r0, [pc, #432]	; (80009e0 <main+0x318>)
 800082e:	a90a      	add	r1, sp, #40	; 0x28
 8000830:	e9cd ab0a 	strd	sl, fp, [sp, #40]	; 0x28
 8000834:	e9cd 670c 	strd	r6, r7, [sp, #48]	; 0x30
 8000838:	f000 fe92 	bl	8001560 <HAL_GPIO_Init>
 800083c:	2301      	movs	r3, #1
 800083e:	2204      	movs	r2, #4
 8000840:	4869      	ldr	r0, [pc, #420]	; (80009e8 <main+0x320>)
 8000842:	6283      	str	r3, [r0, #40]	; 0x28
 8000844:	4b69      	ldr	r3, [pc, #420]	; (80009ec <main+0x324>)
 8000846:	e9c0 4401 	strd	r4, r4, [r0, #4]
 800084a:	e9c0 4403 	strd	r4, r4, [r0, #12]
 800084e:	7704      	strb	r4, [r0, #28]
 8000850:	f880 4024 	strb.w	r4, [r0, #36]	; 0x24
 8000854:	f880 402c 	strb.w	r4, [r0, #44]	; 0x2c
 8000858:	f880 4040 	strb.w	r4, [r0, #64]	; 0x40
 800085c:	6684      	str	r4, [r0, #104]	; 0x68
 800085e:	6444      	str	r4, [r0, #68]	; 0x44
 8000860:	6504      	str	r4, [r0, #80]	; 0x50
 8000862:	63c4      	str	r4, [r0, #60]	; 0x3c
 8000864:	f880 4054 	strb.w	r4, [r0, #84]	; 0x54
 8000868:	6182      	str	r2, [r0, #24]
 800086a:	6003      	str	r3, [r0, #0]
 800086c:	f000 fc30 	bl	80010d0 <HAL_ADC_Init>
 8000870:	4604      	mov	r4, r0
 8000872:	b108      	cbz	r0, 8000878 <main+0x1b0>
 8000874:	b672      	cpsid	i
 8000876:	e7fe      	b.n	8000876 <main+0x1ae>
 8000878:	f44f 4600 	mov.w	r6, #32768	; 0x8000
 800087c:	2703      	movs	r7, #3
 800087e:	e9cd 000c 	strd	r0, r0, [sp, #48]	; 0x30
 8000882:	e9cd 000e 	strd	r0, r0, [sp, #56]	; 0x38
 8000886:	f8d5 30a0 	ldr.w	r3, [r5, #160]	; 0xa0
 800088a:	a90a      	add	r1, sp, #40	; 0x28
 800088c:	f443 0300 	orr.w	r3, r3, #8388608	; 0x800000
 8000890:	f8c5 30a0 	str.w	r3, [r5, #160]	; 0xa0
 8000894:	f8d5 30a0 	ldr.w	r3, [r5, #160]	; 0xa0
 8000898:	4851      	ldr	r0, [pc, #324]	; (80009e0 <main+0x318>)
 800089a:	f403 0300 	and.w	r3, r3, #8388608	; 0x800000
 800089e:	9301      	str	r3, [sp, #4]
 80008a0:	9b01      	ldr	r3, [sp, #4]
 80008a2:	f8d5 308c 	ldr.w	r3, [r5, #140]	; 0x8c
 80008a6:	f043 0302 	orr.w	r3, r3, #2
 80008aa:	f8c5 308c 	str.w	r3, [r5, #140]	; 0x8c
 80008ae:	f8d5 308c 	ldr.w	r3, [r5, #140]	; 0x8c
 80008b2:	f003 0302 	and.w	r3, r3, #2
 80008b6:	9302      	str	r3, [sp, #8]
 80008b8:	9b02      	ldr	r3, [sp, #8]
 80008ba:	f8d5 308c 	ldr.w	r3, [r5, #140]	; 0x8c
 80008be:	f043 0301 	orr.w	r3, r3, #1
 80008c2:	f8c5 308c 	str.w	r3, [r5, #140]	; 0x8c
 80008c6:	f8d5 308c 	ldr.w	r3, [r5, #140]	; 0x8c
 80008ca:	e9cd 670a 	strd	r6, r7, [sp, #40]	; 0x28
 80008ce:	f003 0301 	and.w	r3, r3, #1
 80008d2:	9303      	str	r3, [sp, #12]
 80008d4:	9b03      	ldr	r3, [sp, #12]
 80008d6:	f004 ffd5 	bl	8005884 <LL_GPIO_Init>
 80008da:	4845      	ldr	r0, [pc, #276]	; (80009f0 <main+0x328>)
 80008dc:	a90a      	add	r1, sp, #40	; 0x28
 80008de:	e9cd 670a 	strd	r6, r7, [sp, #40]	; 0x28
 80008e2:	940e      	str	r4, [sp, #56]	; 0x38
 80008e4:	f004 ffce 	bl	8005884 <LL_GPIO_Init>
 80008e8:	f44f 33e1 	mov.w	r3, #115200	; 0x1c200
 80008ec:	4d41      	ldr	r5, [pc, #260]	; (80009f4 <main+0x32c>)
 80008ee:	606b      	str	r3, [r5, #4]
 80008f0:	230c      	movs	r3, #12
 80008f2:	616b      	str	r3, [r5, #20]
 80008f4:	4b40      	ldr	r3, [pc, #256]	; (80009f8 <main+0x330>)
 80008f6:	4628      	mov	r0, r5
 80008f8:	e9c5 4402 	strd	r4, r4, [r5, #8]
 80008fc:	e9c5 4406 	strd	r4, r4, [r5, #24]
 8000900:	e9c5 4408 	strd	r4, r4, [r5, #32]
 8000904:	612c      	str	r4, [r5, #16]
 8000906:	62ac      	str	r4, [r5, #40]	; 0x28
 8000908:	602b      	str	r3, [r5, #0]
 800090a:	f004 fddb 	bl	80054c4 <HAL_UART_Init>
 800090e:	b108      	cbz	r0, 8000914 <main+0x24c>
 8000910:	b672      	cpsid	i
 8000912:	e7fe      	b.n	8000912 <main+0x24a>
 8000914:	4601      	mov	r1, r0
 8000916:	4628      	mov	r0, r5
 8000918:	f004 fe5e 	bl	80055d8 <HAL_UARTEx_SetTxFifoThreshold>
 800091c:	4601      	mov	r1, r0
 800091e:	b108      	cbz	r0, 8000924 <main+0x25c>
 8000920:	b672      	cpsid	i
 8000922:	e7fe      	b.n	8000922 <main+0x25a>
 8000924:	4628      	mov	r0, r5
 8000926:	f004 fe99 	bl	800565c <HAL_UARTEx_SetRxFifoThreshold>
 800092a:	b108      	cbz	r0, 8000930 <main+0x268>
 800092c:	b672      	cpsid	i
 800092e:	e7fe      	b.n	800092e <main+0x266>
 8000930:	4628      	mov	r0, r5
 8000932:	f004 fe33 	bl	800559c <HAL_UARTEx_DisableFifoMode>
 8000936:	b108      	cbz	r0, 800093c <main+0x274>
 8000938:	b672      	cpsid	i
 800093a:	e7fe      	b.n	800093a <main+0x272>
 800093c:	2206      	movs	r2, #6
 800093e:	2402      	movs	r4, #2
 8000940:	2500      	movs	r5, #0
 8000942:	4b2e      	ldr	r3, [pc, #184]	; (80009fc <main+0x334>)
 8000944:	605a      	str	r2, [r3, #4]
 8000946:	4a2e      	ldr	r2, [pc, #184]	; (8000a00 <main+0x338>)
 8000948:	6318      	str	r0, [r3, #48]	; 0x30
 800094a:	e9c3 8908 	strd	r8, r9, [r3, #32]
 800094e:	4618      	mov	r0, r3
 8000950:	e9c3 890a 	strd	r8, r9, [r3, #40]	; 0x28
 8000954:	e9c3 4506 	strd	r4, r5, [r3, #24]
 8000958:	601a      	str	r2, [r3, #0]
 800095a:	f000 ff09 	bl	8001770 <HAL_PCD_Init>
 800095e:	4602      	mov	r2, r0
 8000960:	b108      	cbz	r0, 8000966 <main+0x29e>
 8000962:	b672      	cpsid	i
 8000964:	e7fe      	b.n	8000964 <main+0x29c>
 8000966:	4827      	ldr	r0, [pc, #156]	; (8000a04 <main+0x33c>)
 8000968:	a517      	add	r5, pc, #92	; (adr r5, 80009c8 <main+0x300>)
 800096a:	e9d5 4500 	ldrd	r4, r5, [r5]
 800096e:	2303      	movs	r3, #3
 8000970:	e9c0 4500 	strd	r4, r5, [r0]
 8000974:	240f      	movs	r4, #15
 8000976:	2510      	movs	r5, #16
 8000978:	f44f 5680 	mov.w	r6, #4096	; 0x1000
 800097c:	f44f 1700 	mov.w	r7, #2097152	; 0x200000
 8000980:	e9cd 330c 	strd	r3, r3, [sp, #48]	; 0x30
 8000984:	940b      	str	r4, [sp, #44]	; 0x2c
 8000986:	2307      	movs	r3, #7
 8000988:	940e      	str	r4, [sp, #56]	; 0x38
 800098a:	2411      	movs	r4, #17
 800098c:	a90a      	add	r1, sp, #40	; 0x28
 800098e:	e9c0 2202 	strd	r2, r2, [r0, #8]
 8000992:	e9c0 2206 	strd	r2, r2, [r0, #24]
 8000996:	e9c0 220a 	strd	r2, r2, [r0, #40]	; 0x28
 800099a:	e9c0 220c 	strd	r2, r2, [r0, #48]	; 0x30
 800099e:	e9c0 2210 	strd	r2, r2, [r0, #64]	; 0x40
 80009a2:	9211      	str	r2, [sp, #68]	; 0x44
 80009a4:	6102      	str	r2, [r0, #16]
 80009a6:	6202      	str	r2, [r0, #32]
 80009a8:	6382      	str	r2, [r0, #56]	; 0x38
 80009aa:	f880 2048 	strb.w	r2, [r0, #72]	; 0x48
 80009ae:	63c7      	str	r7, [r0, #60]	; 0x3c
 80009b0:	6145      	str	r5, [r0, #20]
 80009b2:	950f      	str	r5, [sp, #60]	; 0x3c
 80009b4:	6246      	str	r6, [r0, #36]	; 0x24
 80009b6:	9410      	str	r4, [sp, #64]	; 0x40
 80009b8:	930a      	str	r3, [sp, #40]	; 0x28
 80009ba:	f004 fb8f 	bl	80050dc <HAL_SRAM_Init>
 80009be:	b318      	cbz	r0, 8000a08 <main+0x340>
 80009c0:	b672      	cpsid	i
 80009c2:	e7fe      	b.n	80009c2 <main+0x2fa>
 80009c4:	f3af 8000 	nop.w
 80009c8:	420d0400 	.word	0x420d0400
 80009cc:	420d0504 	.word	0x420d0504
 80009d0:	46020c00 	.word	0x46020c00
 80009d4:	42021000 	.word	0x42021000
 80009d8:	42021800 	.word	0x42021800
 80009dc:	42020800 	.word	0x42020800
 80009e0:	42020400 	.word	0x42020400
 80009e4:	10210000 	.word	0x10210000
 80009e8:	2002582c 	.word	0x2002582c
 80009ec:	42028000 	.word	0x42028000
 80009f0:	42020000 	.word	0x42020000
 80009f4:	20025e20 	.word	0x20025e20
 80009f8:	40013800 	.word	0x40013800
 80009fc:	200258b8 	.word	0x200258b8
 8000a00:	42040000 	.word	0x42040000
 8000a04:	20025dc8 	.word	0x20025dc8
 8000a08:	f000 f844 	bl	8000a94 <ST7789V_init>
 8000a0c:	f04f 43c0 	mov.w	r3, #1610612736	; 0x60000000
 8000a10:	222c      	movs	r2, #44	; 0x2c
 8000a12:	4e1a      	ldr	r6, [pc, #104]	; (8000a7c <main+0x3b4>)
 8000a14:	4d1a      	ldr	r5, [pc, #104]	; (8000a80 <main+0x3b8>)
 8000a16:	4c1b      	ldr	r4, [pc, #108]	; (8000a84 <main+0x3bc>)
 8000a18:	801a      	strh	r2, [r3, #0]
 8000a1a:	2201      	movs	r2, #1
 8000a1c:	2180      	movs	r1, #128	; 0x80
 8000a1e:	4628      	mov	r0, r5
 8000a20:	f000 fea0 	bl	8001764 <HAL_GPIO_WritePin>
 8000a24:	f44f 70fa 	mov.w	r0, #500	; 0x1f4
 8000a28:	f000 fb40 	bl	80010ac <HAL_Delay>
 8000a2c:	2180      	movs	r1, #128	; 0x80
 8000a2e:	2200      	movs	r2, #0
 8000a30:	4628      	mov	r0, r5
 8000a32:	f000 fe97 	bl	8001764 <HAL_GPIO_WritePin>
 8000a36:	f640 30b8 	movw	r0, #3000	; 0xbb8
 8000a3a:	f000 fb37 	bl	80010ac <HAL_Delay>
 8000a3e:	f506 3115 	add.w	r1, r6, #152576	; 0x25400
 8000a42:	4b11      	ldr	r3, [pc, #68]	; (8000a88 <main+0x3c0>)
 8000a44:	4811      	ldr	r0, [pc, #68]	; (8000a8c <main+0x3c4>)
 8000a46:	f201 31fe 	addw	r1, r1, #1022	; 0x3fe
 8000a4a:	f833 2f02 	ldrh.w	r2, [r3, #2]!
 8000a4e:	4299      	cmp	r1, r3
 8000a50:	8002      	strh	r2, [r0, #0]
 8000a52:	d1fa      	bne.n	8000a4a <main+0x382>
 8000a54:	f640 30b8 	movw	r0, #3000	; 0xbb8
 8000a58:	f000 fb28 	bl	80010ac <HAL_Delay>
 8000a5c:	2201      	movs	r2, #1
 8000a5e:	2104      	movs	r1, #4
 8000a60:	4620      	mov	r0, r4
 8000a62:	f000 fe7f 	bl	8001764 <HAL_GPIO_WritePin>
 8000a66:	f44f 70fa 	mov.w	r0, #500	; 0x1f4
 8000a6a:	f000 fb1f 	bl	80010ac <HAL_Delay>
 8000a6e:	2200      	movs	r2, #0
 8000a70:	2104      	movs	r1, #4
 8000a72:	4620      	mov	r0, r4
 8000a74:	f000 fe76 	bl	8001764 <HAL_GPIO_WritePin>
 8000a78:	e7cf      	b.n	8000a1a <main+0x352>
 8000a7a:	bf00      	nop
 8000a7c:	20000000 	.word	0x20000000
 8000a80:	42020400 	.word	0x42020400
 8000a84:	42021800 	.word	0x42021800
 8000a88:	1ffffffe 	.word	0x1ffffffe
 8000a8c:	60080000 	.word	0x60080000

08000a90 <Error_Handler>:
 8000a90:	b672      	cpsid	i
 8000a92:	e7fe      	b.n	8000a92 <Error_Handler+0x2>

08000a94 <ST7789V_init>:
 8000a94:	2310      	movs	r3, #16
 8000a96:	e92d 4ff7 	stmdb	sp!, {r0, r1, r2, r4, r5, r6, r7, r8, r9, sl, fp, lr}
 8000a9a:	2601      	movs	r6, #1
 8000a9c:	2500      	movs	r5, #0
 8000a9e:	f88d 3000 	strb.w	r3, [sp]
 8000aa2:	2332      	movs	r3, #50	; 0x32
 8000aa4:	4c5a      	ldr	r4, [pc, #360]	; (8000c10 <ST7789V_init+0x17c>)
 8000aa6:	4631      	mov	r1, r6
 8000aa8:	4668      	mov	r0, sp
 8000aaa:	f8cd 5001 	str.w	r5, [sp, #1]
 8000aae:	f88d 5005 	strb.w	r5, [sp, #5]
 8000ab2:	f88d 3004 	strb.w	r3, [sp, #4]
 8000ab6:	f88d 6006 	strb.w	r6, [sp, #6]
 8000aba:	f7ff fd6d 	bl	8000598 <FMCSRAMInit>
 8000abe:	4632      	mov	r2, r6
 8000ac0:	2104      	movs	r1, #4
 8000ac2:	4620      	mov	r0, r4
 8000ac4:	f000 fe4e 	bl	8001764 <HAL_GPIO_WritePin>
 8000ac8:	4630      	mov	r0, r6
 8000aca:	f000 faef 	bl	80010ac <HAL_Delay>
 8000ace:	462a      	mov	r2, r5
 8000ad0:	2104      	movs	r1, #4
 8000ad2:	4620      	mov	r0, r4
 8000ad4:	f000 fe46 	bl	8001764 <HAL_GPIO_WritePin>
 8000ad8:	200a      	movs	r0, #10
 8000ada:	f000 fae7 	bl	80010ac <HAL_Delay>
 8000ade:	4632      	mov	r2, r6
 8000ae0:	2104      	movs	r1, #4
 8000ae2:	4620      	mov	r0, r4
 8000ae4:	f000 fe3e 	bl	8001764 <HAL_GPIO_WritePin>
 8000ae8:	2078      	movs	r0, #120	; 0x78
 8000aea:	f04f 44c0 	mov.w	r4, #1610612736	; 0x60000000
 8000aee:	f000 fadd 	bl	80010ac <HAL_Delay>
 8000af2:	2311      	movs	r3, #17
 8000af4:	2078      	movs	r0, #120	; 0x78
 8000af6:	8023      	strh	r3, [r4, #0]
 8000af8:	f000 fad8 	bl	80010ac <HAL_Delay>
 8000afc:	2336      	movs	r3, #54	; 0x36
 8000afe:	22b2      	movs	r2, #178	; 0xb2
 8000b00:	8023      	strh	r3, [r4, #0]
 8000b02:	4b44      	ldr	r3, [pc, #272]	; (8000c14 <ST7789V_init+0x180>)
 8000b04:	273a      	movs	r7, #58	; 0x3a
 8000b06:	801d      	strh	r5, [r3, #0]
 8000b08:	8022      	strh	r2, [r4, #0]
 8000b0a:	220c      	movs	r2, #12
 8000b0c:	801a      	strh	r2, [r3, #0]
 8000b0e:	801a      	strh	r2, [r3, #0]
 8000b10:	2233      	movs	r2, #51	; 0x33
 8000b12:	801d      	strh	r5, [r3, #0]
 8000b14:	801a      	strh	r2, [r3, #0]
 8000b16:	801a      	strh	r2, [r3, #0]
 8000b18:	22b7      	movs	r2, #183	; 0xb7
 8000b1a:	8022      	strh	r2, [r4, #0]
 8000b1c:	2270      	movs	r2, #112	; 0x70
 8000b1e:	801a      	strh	r2, [r3, #0]
 8000b20:	22bb      	movs	r2, #187	; 0xbb
 8000b22:	8022      	strh	r2, [r4, #0]
 8000b24:	22c0      	movs	r2, #192	; 0xc0
 8000b26:	801f      	strh	r7, [r3, #0]
 8000b28:	8022      	strh	r2, [r4, #0]
 8000b2a:	222c      	movs	r2, #44	; 0x2c
 8000b2c:	801a      	strh	r2, [r3, #0]
 8000b2e:	22c2      	movs	r2, #194	; 0xc2
 8000b30:	8022      	strh	r2, [r4, #0]
 8000b32:	22c3      	movs	r2, #195	; 0xc3
 8000b34:	801e      	strh	r6, [r3, #0]
 8000b36:	8022      	strh	r2, [r4, #0]
 8000b38:	2214      	movs	r2, #20
 8000b3a:	801a      	strh	r2, [r3, #0]
 8000b3c:	22c4      	movs	r2, #196	; 0xc4
 8000b3e:	8022      	strh	r2, [r4, #0]
 8000b40:	2220      	movs	r2, #32
 8000b42:	801a      	strh	r2, [r3, #0]
 8000b44:	22c6      	movs	r2, #198	; 0xc6
 8000b46:	8022      	strh	r2, [r4, #0]
 8000b48:	220f      	movs	r2, #15
 8000b4a:	20d0      	movs	r0, #208	; 0xd0
 8000b4c:	801a      	strh	r2, [r3, #0]
 8000b4e:	22a4      	movs	r2, #164	; 0xa4
 8000b50:	8020      	strh	r0, [r4, #0]
 8000b52:	801a      	strh	r2, [r3, #0]
 8000b54:	22a1      	movs	r2, #161	; 0xa1
 8000b56:	801a      	strh	r2, [r3, #0]
 8000b58:	22e0      	movs	r2, #224	; 0xe0
 8000b5a:	2109      	movs	r1, #9
 8000b5c:	8022      	strh	r2, [r4, #0]
 8000b5e:	f04f 0a07 	mov.w	sl, #7
 8000b62:	f04f 090d 	mov.w	r9, #13
 8000b66:	2208      	movs	r2, #8
 8000b68:	8018      	strh	r0, [r3, #0]
 8000b6a:	f04f 0825 	mov.w	r8, #37	; 0x25
 8000b6e:	f8a3 a000 	strh.w	sl, [r3]
 8000b72:	f8a3 9000 	strh.w	r9, [r3]
 8000b76:	8019      	strh	r1, [r3, #0]
 8000b78:	801a      	strh	r2, [r3, #0]
 8000b7a:	2228      	movs	r2, #40	; 0x28
 8000b7c:	f8a3 8000 	strh.w	r8, [r3]
 8000b80:	801a      	strh	r2, [r3, #0]
 8000b82:	2253      	movs	r2, #83	; 0x53
 8000b84:	f04f 0e39 	mov.w	lr, #57	; 0x39
 8000b88:	801a      	strh	r2, [r3, #0]
 8000b8a:	2212      	movs	r2, #18
 8000b8c:	f8a3 e000 	strh.w	lr, [r3]
 8000b90:	801a      	strh	r2, [r3, #0]
 8000b92:	220b      	movs	r2, #11
 8000b94:	f04f 0c17 	mov.w	ip, #23
 8000b98:	801a      	strh	r2, [r3, #0]
 8000b9a:	220a      	movs	r2, #10
 8000b9c:	f04f 0be1 	mov.w	fp, #225	; 0xe1
 8000ba0:	801a      	strh	r2, [r3, #0]
 8000ba2:	f8a3 c000 	strh.w	ip, [r3]
 8000ba6:	f04f 0c34 	mov.w	ip, #52	; 0x34
 8000baa:	f8a3 c000 	strh.w	ip, [r3]
 8000bae:	f8a4 b000 	strh.w	fp, [r4]
 8000bb2:	8018      	strh	r0, [r3, #0]
 8000bb4:	f8a3 a000 	strh.w	sl, [r3]
 8000bb8:	2035      	movs	r0, #53	; 0x35
 8000bba:	f8a3 9000 	strh.w	r9, [r3]
 8000bbe:	8019      	strh	r1, [r3, #0]
 8000bc0:	8019      	strh	r1, [r3, #0]
 8000bc2:	2129      	movs	r1, #41	; 0x29
 8000bc4:	f8a3 8000 	strh.w	r8, [r3]
 8000bc8:	8019      	strh	r1, [r3, #0]
 8000bca:	8018      	strh	r0, [r3, #0]
 8000bcc:	2013      	movs	r0, #19
 8000bce:	f8a3 e000 	strh.w	lr, [r3]
 8000bd2:	8018      	strh	r0, [r3, #0]
 8000bd4:	801a      	strh	r2, [r3, #0]
 8000bd6:	801a      	strh	r2, [r3, #0]
 8000bd8:	2216      	movs	r2, #22
 8000bda:	801a      	strh	r2, [r3, #0]
 8000bdc:	2221      	movs	r2, #33	; 0x21
 8000bde:	f8a3 c000 	strh.w	ip, [r3]
 8000be2:	8022      	strh	r2, [r4, #0]
 8000be4:	2255      	movs	r2, #85	; 0x55
 8000be6:	8027      	strh	r7, [r4, #0]
 8000be8:	801a      	strh	r2, [r3, #0]
 8000bea:	222a      	movs	r2, #42	; 0x2a
 8000bec:	8022      	strh	r2, [r4, #0]
 8000bee:	22ef      	movs	r2, #239	; 0xef
 8000bf0:	801d      	strh	r5, [r3, #0]
 8000bf2:	801d      	strh	r5, [r3, #0]
 8000bf4:	801d      	strh	r5, [r3, #0]
 8000bf6:	801a      	strh	r2, [r3, #0]
 8000bf8:	222b      	movs	r2, #43	; 0x2b
 8000bfa:	8022      	strh	r2, [r4, #0]
 8000bfc:	223f      	movs	r2, #63	; 0x3f
 8000bfe:	801d      	strh	r5, [r3, #0]
 8000c00:	801d      	strh	r5, [r3, #0]
 8000c02:	801e      	strh	r6, [r3, #0]
 8000c04:	801a      	strh	r2, [r3, #0]
 8000c06:	8021      	strh	r1, [r4, #0]
 8000c08:	b003      	add	sp, #12
 8000c0a:	e8bd 8ff0 	ldmia.w	sp!, {r4, r5, r6, r7, r8, r9, sl, fp, pc}
 8000c0e:	bf00      	nop
 8000c10:	42021000 	.word	0x42021000
 8000c14:	60080000 	.word	0x60080000

08000c18 <HAL_MspInit>:
 8000c18:	2004      	movs	r0, #4
 8000c1a:	4b07      	ldr	r3, [pc, #28]	; (8000c38 <HAL_MspInit+0x20>)
 8000c1c:	b082      	sub	sp, #8
 8000c1e:	f8d3 2094 	ldr.w	r2, [r3, #148]	; 0x94
 8000c22:	4302      	orrs	r2, r0
 8000c24:	f8c3 2094 	str.w	r2, [r3, #148]	; 0x94
 8000c28:	f8d3 3094 	ldr.w	r3, [r3, #148]	; 0x94
 8000c2c:	4003      	ands	r3, r0
 8000c2e:	9301      	str	r3, [sp, #4]
 8000c30:	9b01      	ldr	r3, [sp, #4]
 8000c32:	b002      	add	sp, #8
 8000c34:	f000 bc1c 	b.w	8001470 <HAL_NVIC_SetPriorityGrouping>
 8000c38:	46020c00 	.word	0x46020c00
 8000c3c:	00000000 	.word	0x00000000

08000c40 <HAL_ADC_MspInit>:
 8000c40:	b510      	push	{r4, lr}
 8000c42:	2100      	movs	r1, #0
 8000c44:	4604      	mov	r4, r0
 8000c46:	b0ba      	sub	sp, #232	; 0xe8
 8000c48:	22c8      	movs	r2, #200	; 0xc8
 8000c4a:	a808      	add	r0, sp, #32
 8000c4c:	e9cd 1102 	strd	r1, r1, [sp, #8]
 8000c50:	e9cd 1104 	strd	r1, r1, [sp, #16]
 8000c54:	9106      	str	r1, [sp, #24]
 8000c56:	f005 fa39 	bl	80060cc <memset>
 8000c5a:	4b21      	ldr	r3, [pc, #132]	; (8000ce0 <HAL_ADC_MspInit+0xa0>)
 8000c5c:	6822      	ldr	r2, [r4, #0]
 8000c5e:	429a      	cmp	r2, r3
 8000c60:	d001      	beq.n	8000c66 <HAL_ADC_MspInit+0x26>
 8000c62:	b03a      	add	sp, #232	; 0xe8
 8000c64:	bd10      	pop	{r4, pc}
 8000c66:	ed9f 7b1a 	vldr	d7, [pc, #104]	; 8000cd0 <HAL_ADC_MspInit+0x90>
 8000c6a:	f44f 4380 	mov.w	r3, #16384	; 0x4000
 8000c6e:	a808      	add	r0, sp, #32
 8000c70:	ed8d 7b08 	vstr	d7, [sp, #32]
 8000c74:	9332      	str	r3, [sp, #200]	; 0xc8
 8000c76:	f002 ff31 	bl	8003adc <HAL_RCCEx_PeriphCLKConfig>
 8000c7a:	bb20      	cbnz	r0, 8000cc6 <HAL_ADC_MspInit+0x86>
 8000c7c:	ed9f 7b16 	vldr	d7, [pc, #88]	; 8000cd8 <HAL_ADC_MspInit+0x98>
 8000c80:	2400      	movs	r4, #0
 8000c82:	4b18      	ldr	r3, [pc, #96]	; (8000ce4 <HAL_ADC_MspInit+0xa4>)
 8000c84:	4818      	ldr	r0, [pc, #96]	; (8000ce8 <HAL_ADC_MspInit+0xa8>)
 8000c86:	f8d3 208c 	ldr.w	r2, [r3, #140]	; 0x8c
 8000c8a:	a902      	add	r1, sp, #8
 8000c8c:	f442 6280 	orr.w	r2, r2, #1024	; 0x400
 8000c90:	f8c3 208c 	str.w	r2, [r3, #140]	; 0x8c
 8000c94:	f8d3 208c 	ldr.w	r2, [r3, #140]	; 0x8c
 8000c98:	f402 6280 	and.w	r2, r2, #1024	; 0x400
 8000c9c:	9200      	str	r2, [sp, #0]
 8000c9e:	9a00      	ldr	r2, [sp, #0]
 8000ca0:	f8d3 208c 	ldr.w	r2, [r3, #140]	; 0x8c
 8000ca4:	f042 0204 	orr.w	r2, r2, #4
 8000ca8:	f8c3 208c 	str.w	r2, [r3, #140]	; 0x8c
 8000cac:	f8d3 308c 	ldr.w	r3, [r3, #140]	; 0x8c
 8000cb0:	ed8d 7b02 	vstr	d7, [sp, #8]
 8000cb4:	f003 0304 	and.w	r3, r3, #4
 8000cb8:	9301      	str	r3, [sp, #4]
 8000cba:	9b01      	ldr	r3, [sp, #4]
 8000cbc:	9404      	str	r4, [sp, #16]
 8000cbe:	f000 fc4f 	bl	8001560 <HAL_GPIO_Init>
 8000cc2:	b03a      	add	sp, #232	; 0xe8
 8000cc4:	bd10      	pop	{r4, pc}
 8000cc6:	f7ff fee3 	bl	8000a90 <Error_Handler>
 8000cca:	e7d7      	b.n	8000c7c <HAL_ADC_MspInit+0x3c>
 8000ccc:	f3af 8000 	nop.w
 8000cd0:	00008000 	.word	0x00008000
 8000cd4:	00000000 	.word	0x00000000
 8000cd8:	00000004 	.word	0x00000004
 8000cdc:	00000003 	.word	0x00000003
 8000ce0:	42028000 	.word	0x42028000
 8000ce4:	46020c00 	.word	0x46020c00
 8000ce8:	42020800 	.word	0x42020800
 8000cec:	00000000 	.word	0x00000000

08000cf0 <HAL_UART_MspInit>:
 8000cf0:	b510      	push	{r4, lr}
 8000cf2:	2100      	movs	r1, #0
 8000cf4:	4604      	mov	r4, r0
 8000cf6:	b0ba      	sub	sp, #232	; 0xe8
 8000cf8:	22c8      	movs	r2, #200	; 0xc8
 8000cfa:	a808      	add	r0, sp, #32
 8000cfc:	e9cd 1102 	strd	r1, r1, [sp, #8]
 8000d00:	e9cd 1104 	strd	r1, r1, [sp, #16]
 8000d04:	9106      	str	r1, [sp, #24]
 8000d06:	f005 f9e1 	bl	80060cc <memset>
 8000d0a:	4b21      	ldr	r3, [pc, #132]	; (8000d90 <HAL_UART_MspInit+0xa0>)
 8000d0c:	6822      	ldr	r2, [r4, #0]
 8000d0e:	429a      	cmp	r2, r3
 8000d10:	d001      	beq.n	8000d16 <HAL_UART_MspInit+0x26>
 8000d12:	b03a      	add	sp, #232	; 0xe8
 8000d14:	bd10      	pop	{r4, pc}
 8000d16:	2201      	movs	r2, #1
 8000d18:	2300      	movs	r3, #0
 8000d1a:	a808      	add	r0, sp, #32
 8000d1c:	e9cd 2308 	strd	r2, r3, [sp, #32]
 8000d20:	f002 fedc 	bl	8003adc <HAL_RCCEx_PeriphCLKConfig>
 8000d24:	bb40      	cbnz	r0, 8000d78 <HAL_UART_MspInit+0x88>
 8000d26:	ed9f 6b16 	vldr	d6, [pc, #88]	; 8000d80 <HAL_UART_MspInit+0x90>
 8000d2a:	ed9f 7b17 	vldr	d7, [pc, #92]	; 8000d88 <HAL_UART_MspInit+0x98>
 8000d2e:	2407      	movs	r4, #7
 8000d30:	4b18      	ldr	r3, [pc, #96]	; (8000d94 <HAL_UART_MspInit+0xa4>)
 8000d32:	4819      	ldr	r0, [pc, #100]	; (8000d98 <HAL_UART_MspInit+0xa8>)
 8000d34:	f8d3 20a4 	ldr.w	r2, [r3, #164]	; 0xa4
 8000d38:	a902      	add	r1, sp, #8
 8000d3a:	f442 4280 	orr.w	r2, r2, #16384	; 0x4000
 8000d3e:	f8c3 20a4 	str.w	r2, [r3, #164]	; 0xa4
 8000d42:	f8d3 20a4 	ldr.w	r2, [r3, #164]	; 0xa4
 8000d46:	f402 4280 	and.w	r2, r2, #16384	; 0x4000
 8000d4a:	9200      	str	r2, [sp, #0]
 8000d4c:	9a00      	ldr	r2, [sp, #0]
 8000d4e:	f8d3 208c 	ldr.w	r2, [r3, #140]	; 0x8c
 8000d52:	f042 0201 	orr.w	r2, r2, #1
 8000d56:	f8c3 208c 	str.w	r2, [r3, #140]	; 0x8c
 8000d5a:	f8d3 308c 	ldr.w	r3, [r3, #140]	; 0x8c
 8000d5e:	ed8d 6b02 	vstr	d6, [sp, #8]
 8000d62:	f003 0301 	and.w	r3, r3, #1
 8000d66:	9301      	str	r3, [sp, #4]
 8000d68:	ed8d 7b04 	vstr	d7, [sp, #16]
 8000d6c:	9b01      	ldr	r3, [sp, #4]
 8000d6e:	9406      	str	r4, [sp, #24]
 8000d70:	f000 fbf6 	bl	8001560 <HAL_GPIO_Init>
 8000d74:	b03a      	add	sp, #232	; 0xe8
 8000d76:	bd10      	pop	{r4, pc}
 8000d78:	f7ff fe8a 	bl	8000a90 <Error_Handler>
 8000d7c:	e7d3      	b.n	8000d26 <HAL_UART_MspInit+0x36>
 8000d7e:	bf00      	nop
 8000d80:	00000600 	.word	0x00000600
 8000d84:	00000002 	.word	0x00000002
 8000d88:	00000002 	.word	0x00000002
 8000d8c:	00000003 	.word	0x00000003
 8000d90:	40013800 	.word	0x40013800
 8000d94:	46020c00 	.word	0x46020c00
 8000d98:	42020000 	.word	0x42020000
 8000d9c:	00000000 	.word	0x00000000

08000da0 <HAL_PCD_MspInit>:
 8000da0:	b510      	push	{r4, lr}
 8000da2:	2100      	movs	r1, #0
 8000da4:	4604      	mov	r4, r0
 8000da6:	b0bc      	sub	sp, #240	; 0xf0
 8000da8:	22c8      	movs	r2, #200	; 0xc8
 8000daa:	a80a      	add	r0, sp, #40	; 0x28
 8000dac:	e9cd 1104 	strd	r1, r1, [sp, #16]
 8000db0:	e9cd 1106 	strd	r1, r1, [sp, #24]
 8000db4:	9108      	str	r1, [sp, #32]
 8000db6:	f005 f989 	bl	80060cc <memset>
 8000dba:	4b33      	ldr	r3, [pc, #204]	; (8000e88 <HAL_PCD_MspInit+0xe8>)
 8000dbc:	6822      	ldr	r2, [r4, #0]
 8000dbe:	429a      	cmp	r2, r3
 8000dc0:	d001      	beq.n	8000dc6 <HAL_PCD_MspInit+0x26>
 8000dc2:	b03c      	add	sp, #240	; 0xf0
 8000dc4:	bd10      	pop	{r4, pc}
 8000dc6:	f44f 1280 	mov.w	r2, #1048576	; 0x100000
 8000dca:	2300      	movs	r3, #0
 8000dcc:	a80a      	add	r0, sp, #40	; 0x28
 8000dce:	e9cd 230a 	strd	r2, r3, [sp, #40]	; 0x28
 8000dd2:	f002 fe83 	bl	8003adc <HAL_RCCEx_PeriphCLKConfig>
 8000dd6:	2800      	cmp	r0, #0
 8000dd8:	d14b      	bne.n	8000e72 <HAL_PCD_MspInit+0xd2>
 8000dda:	ed9f 6b27 	vldr	d6, [pc, #156]	; 8000e78 <HAL_PCD_MspInit+0xd8>
 8000dde:	ed9f 7b28 	vldr	d7, [pc, #160]	; 8000e80 <HAL_PCD_MspInit+0xe0>
 8000de2:	220a      	movs	r2, #10
 8000de4:	4c29      	ldr	r4, [pc, #164]	; (8000e8c <HAL_PCD_MspInit+0xec>)
 8000de6:	482a      	ldr	r0, [pc, #168]	; (8000e90 <HAL_PCD_MspInit+0xf0>)
 8000de8:	f8d4 308c 	ldr.w	r3, [r4, #140]	; 0x8c
 8000dec:	a904      	add	r1, sp, #16
 8000dee:	f043 0301 	orr.w	r3, r3, #1
 8000df2:	f8c4 308c 	str.w	r3, [r4, #140]	; 0x8c
 8000df6:	f8d4 308c 	ldr.w	r3, [r4, #140]	; 0x8c
 8000dfa:	ed8d 6b04 	vstr	d6, [sp, #16]
 8000dfe:	f003 0301 	and.w	r3, r3, #1
 8000e02:	9301      	str	r3, [sp, #4]
 8000e04:	9b01      	ldr	r3, [sp, #4]
 8000e06:	ed8d 7b06 	vstr	d7, [sp, #24]
 8000e0a:	9208      	str	r2, [sp, #32]
 8000e0c:	f000 fba8 	bl	8001560 <HAL_GPIO_Init>
 8000e10:	f8d4 308c 	ldr.w	r3, [r4, #140]	; 0x8c
 8000e14:	f443 4380 	orr.w	r3, r3, #16384	; 0x4000
 8000e18:	f8c4 308c 	str.w	r3, [r4, #140]	; 0x8c
 8000e1c:	f8d4 308c 	ldr.w	r3, [r4, #140]	; 0x8c
 8000e20:	f403 4380 	and.w	r3, r3, #16384	; 0x4000
 8000e24:	9302      	str	r3, [sp, #8]
 8000e26:	9b02      	ldr	r3, [sp, #8]
 8000e28:	f8d4 3094 	ldr.w	r3, [r4, #148]	; 0x94
 8000e2c:	075b      	lsls	r3, r3, #29
 8000e2e:	d41d      	bmi.n	8000e6c <HAL_PCD_MspInit+0xcc>
 8000e30:	f8d4 3094 	ldr.w	r3, [r4, #148]	; 0x94
 8000e34:	f043 0304 	orr.w	r3, r3, #4
 8000e38:	f8c4 3094 	str.w	r3, [r4, #148]	; 0x94
 8000e3c:	f8d4 3094 	ldr.w	r3, [r4, #148]	; 0x94
 8000e40:	f003 0304 	and.w	r3, r3, #4
 8000e44:	9303      	str	r3, [sp, #12]
 8000e46:	9b03      	ldr	r3, [sp, #12]
 8000e48:	f001 fb88 	bl	800255c <HAL_PWREx_EnableVddUSB>
 8000e4c:	f8d4 3094 	ldr.w	r3, [r4, #148]	; 0x94
 8000e50:	f023 0304 	bic.w	r3, r3, #4
 8000e54:	f8c4 3094 	str.w	r3, [r4, #148]	; 0x94
 8000e58:	2200      	movs	r2, #0
 8000e5a:	2049      	movs	r0, #73	; 0x49
 8000e5c:	4611      	mov	r1, r2
 8000e5e:	f000 fb19 	bl	8001494 <HAL_NVIC_SetPriority>
 8000e62:	2049      	movs	r0, #73	; 0x49
 8000e64:	f000 fb54 	bl	8001510 <HAL_NVIC_EnableIRQ>
 8000e68:	b03c      	add	sp, #240	; 0xf0
 8000e6a:	bd10      	pop	{r4, pc}
 8000e6c:	f001 fb76 	bl	800255c <HAL_PWREx_EnableVddUSB>
 8000e70:	e7f2      	b.n	8000e58 <HAL_PCD_MspInit+0xb8>
 8000e72:	f7ff fe0d 	bl	8000a90 <Error_Handler>
 8000e76:	e7b0      	b.n	8000dda <HAL_PCD_MspInit+0x3a>
 8000e78:	00001800 	.word	0x00001800
 8000e7c:	00000002 	.word	0x00000002
 8000e80:	00000000 	.word	0x00000000
 8000e84:	00000003 	.word	0x00000003
 8000e88:	42040000 	.word	0x42040000
 8000e8c:	46020c00 	.word	0x46020c00
 8000e90:	42020000 	.word	0x42020000
 8000e94:	00000000 	.word	0x00000000

08000e98 <HAL_SRAM_MspInit>:
 8000e98:	2100      	movs	r1, #0
 8000e9a:	b570      	push	{r4, r5, r6, lr}
 8000e9c:	4b1a      	ldr	r3, [pc, #104]	; (8000f08 <HAL_SRAM_MspInit+0x70>)
 8000e9e:	b088      	sub	sp, #32
 8000ea0:	681a      	ldr	r2, [r3, #0]
 8000ea2:	9104      	str	r1, [sp, #16]
 8000ea4:	bb32      	cbnz	r2, 8000ef4 <HAL_SRAM_MspInit+0x5c>
 8000ea6:	2601      	movs	r6, #1
 8000ea8:	ed9f 7b13 	vldr	d7, [pc, #76]	; 8000ef8 <HAL_SRAM_MspInit+0x60>
 8000eac:	240c      	movs	r4, #12
 8000eae:	2503      	movs	r5, #3
 8000eb0:	4a16      	ldr	r2, [pc, #88]	; (8000f0c <HAL_SRAM_MspInit+0x74>)
 8000eb2:	601e      	str	r6, [r3, #0]
 8000eb4:	f8d2 3090 	ldr.w	r3, [r2, #144]	; 0x90
 8000eb8:	4815      	ldr	r0, [pc, #84]	; (8000f10 <HAL_SRAM_MspInit+0x78>)
 8000eba:	4333      	orrs	r3, r6
 8000ebc:	f8c2 3090 	str.w	r3, [r2, #144]	; 0x90
 8000ec0:	f8d2 3090 	ldr.w	r3, [r2, #144]	; 0x90
 8000ec4:	a902      	add	r1, sp, #8
 8000ec6:	4033      	ands	r3, r6
 8000ec8:	9301      	str	r3, [sp, #4]
 8000eca:	ed8d 7b02 	vstr	d7, [sp, #8]
 8000ece:	9b01      	ldr	r3, [sp, #4]
 8000ed0:	9505      	str	r5, [sp, #20]
 8000ed2:	9406      	str	r4, [sp, #24]
 8000ed4:	f000 fb44 	bl	8001560 <HAL_GPIO_Init>
 8000ed8:	f24e 72b3 	movw	r2, #59315	; 0xe7b3
 8000edc:	2302      	movs	r3, #2
 8000ede:	ed9f 7b08 	vldr	d7, [pc, #32]	; 8000f00 <HAL_SRAM_MspInit+0x68>
 8000ee2:	480c      	ldr	r0, [pc, #48]	; (8000f14 <HAL_SRAM_MspInit+0x7c>)
 8000ee4:	a902      	add	r1, sp, #8
 8000ee6:	ed8d 7b04 	vstr	d7, [sp, #16]
 8000eea:	e9cd 2302 	strd	r2, r3, [sp, #8]
 8000eee:	9406      	str	r4, [sp, #24]
 8000ef0:	f000 fb36 	bl	8001560 <HAL_GPIO_Init>
 8000ef4:	b008      	add	sp, #32
 8000ef6:	bd70      	pop	{r4, r5, r6, pc}
 8000ef8:	0000ff80 	.word	0x0000ff80
 8000efc:	00000002 	.word	0x00000002
 8000f00:	00000000 	.word	0x00000000
 8000f04:	00000003 	.word	0x00000003
 8000f08:	20025eb0 	.word	0x20025eb0
 8000f0c:	46020c00 	.word	0x46020c00
 8000f10:	42021000 	.word	0x42021000
 8000f14:	42020c00 	.word	0x42020c00

08000f18 <NMI_Handler>:
 8000f18:	e7fe      	b.n	8000f18 <NMI_Handler>
 8000f1a:	bf00      	nop

08000f1c <HardFault_Handler>:
 8000f1c:	e7fe      	b.n	8000f1c <HardFault_Handler>
 8000f1e:	bf00      	nop

08000f20 <MemManage_Handler>:
 8000f20:	e7fe      	b.n	8000f20 <MemManage_Handler>
 8000f22:	bf00      	nop

08000f24 <BusFault_Handler>:
 8000f24:	e7fe      	b.n	8000f24 <BusFault_Handler>
 8000f26:	bf00      	nop

08000f28 <UsageFault_Handler>:
 8000f28:	e7fe      	b.n	8000f28 <UsageFault_Handler>
 8000f2a:	bf00      	nop

08000f2c <SVC_Handler>:
 8000f2c:	4770      	bx	lr
 8000f2e:	bf00      	nop

08000f30 <DebugMon_Handler>:
 8000f30:	4770      	bx	lr
 8000f32:	bf00      	nop

08000f34 <PendSV_Handler>:
 8000f34:	4770      	bx	lr
 8000f36:	bf00      	nop

08000f38 <SysTick_Handler>:
 8000f38:	f000 b8a6 	b.w	8001088 <HAL_IncTick>

08000f3c <OTG_FS_IRQHandler>:
 8000f3c:	4801      	ldr	r0, [pc, #4]	; (8000f44 <OTG_FS_IRQHandler+0x8>)
 8000f3e:	f000 bcc3 	b.w	80018c8 <HAL_PCD_IRQHandler>
 8000f42:	bf00      	nop
 8000f44:	200258b8 	.word	0x200258b8

08000f48 <SystemInit>:
 8000f48:	2200      	movs	r2, #0
 8000f4a:	2101      	movs	r1, #1
 8000f4c:	b410      	push	{r4}
 8000f4e:	f04f 6400 	mov.w	r4, #134217728	; 0x8000000
 8000f52:	480e      	ldr	r0, [pc, #56]	; (8000f8c <SystemInit+0x44>)
 8000f54:	f8d0 3088 	ldr.w	r3, [r0, #136]	; 0x88
 8000f58:	f443 0370 	orr.w	r3, r3, #15728640	; 0xf00000
 8000f5c:	f8c0 3088 	str.w	r3, [r0, #136]	; 0x88
 8000f60:	4b0b      	ldr	r3, [pc, #44]	; (8000f90 <SystemInit+0x48>)
 8000f62:	6019      	str	r1, [r3, #0]
 8000f64:	61da      	str	r2, [r3, #28]
 8000f66:	621a      	str	r2, [r3, #32]
 8000f68:	625a      	str	r2, [r3, #36]	; 0x24
 8000f6a:	6819      	ldr	r1, [r3, #0]
 8000f6c:	f021 51a8 	bic.w	r1, r1, #352321536	; 0x15000000
 8000f70:	f421 2110 	bic.w	r1, r1, #589824	; 0x90000
 8000f74:	6019      	str	r1, [r3, #0]
 8000f76:	629a      	str	r2, [r3, #40]	; 0x28
 8000f78:	6819      	ldr	r1, [r3, #0]
 8000f7a:	f421 2180 	bic.w	r1, r1, #262144	; 0x40000
 8000f7e:	6019      	str	r1, [r3, #0]
 8000f80:	651a      	str	r2, [r3, #80]	; 0x50
 8000f82:	6084      	str	r4, [r0, #8]
 8000f84:	f85d 4b04 	ldr.w	r4, [sp], #4
 8000f88:	4770      	bx	lr
 8000f8a:	bf00      	nop
 8000f8c:	e000ed00 	.word	0xe000ed00
 8000f90:	46020c00 	.word	0x46020c00

08000f94 <Reset_Handler>:
 8000f94:	f8df d034 	ldr.w	sp, [pc, #52]	; 8000fcc <LoopForever+0x2>
 8000f98:	2100      	movs	r1, #0
 8000f9a:	e003      	b.n	8000fa4 <LoopCopyDataInit>

08000f9c <CopyDataInit>:
 8000f9c:	4b0c      	ldr	r3, [pc, #48]	; (8000fd0 <LoopForever+0x6>)
 8000f9e:	585b      	ldr	r3, [r3, r1]
 8000fa0:	5043      	str	r3, [r0, r1]
 8000fa2:	3104      	adds	r1, #4

08000fa4 <LoopCopyDataInit>:
 8000fa4:	480b      	ldr	r0, [pc, #44]	; (8000fd4 <LoopForever+0xa>)
 8000fa6:	4b0c      	ldr	r3, [pc, #48]	; (8000fd8 <LoopForever+0xe>)
 8000fa8:	1842      	adds	r2, r0, r1
 8000faa:	429a      	cmp	r2, r3
 8000fac:	d3f6      	bcc.n	8000f9c <CopyDataInit>
 8000fae:	4a0b      	ldr	r2, [pc, #44]	; (8000fdc <LoopForever+0x12>)
 8000fb0:	e002      	b.n	8000fb8 <LoopFillZerobss>

08000fb2 <FillZerobss>:
 8000fb2:	2300      	movs	r3, #0
 8000fb4:	f842 3b04 	str.w	r3, [r2], #4

08000fb8 <LoopFillZerobss>:
 8000fb8:	4b09      	ldr	r3, [pc, #36]	; (8000fe0 <LoopForever+0x16>)
 8000fba:	429a      	cmp	r2, r3
 8000fbc:	d3f9      	bcc.n	8000fb2 <FillZerobss>
 8000fbe:	f7ff ffc3 	bl	8000f48 <SystemInit>
 8000fc2:	f005 f85f 	bl	8006084 <__libc_init_array>
 8000fc6:	f7ff fb7f 	bl	80006c8 <main>

08000fca <LoopForever>:
 8000fca:	e7fe      	b.n	8000fca <LoopForever>
 8000fcc:	200c0000 	.word	0x200c0000
 8000fd0:	08006204 	.word	0x08006204
 8000fd4:	20000000 	.word	0x20000000
 8000fd8:	2002580c 	.word	0x2002580c
 8000fdc:	20025810 	.word	0x20025810
 8000fe0:	20025eb8 	.word	0x20025eb8

08000fe4 <ADC1_IRQHandler>:
 8000fe4:	e7fe      	b.n	8000fe4 <ADC1_IRQHandler>
	...

08000fe8 <HAL_InitTick>:
 8000fe8:	b538      	push	{r3, r4, r5, lr}
 8000fea:	4b0f      	ldr	r3, [pc, #60]	; (8001028 <HAL_InitTick+0x40>)
 8000fec:	781b      	ldrb	r3, [r3, #0]
 8000fee:	b90b      	cbnz	r3, 8000ff4 <HAL_InitTick+0xc>
 8000ff0:	2001      	movs	r0, #1
 8000ff2:	bd38      	pop	{r3, r4, r5, pc}
 8000ff4:	f44f 727a 	mov.w	r2, #1000	; 0x3e8
 8000ff8:	fbb2 f3f3 	udiv	r3, r2, r3
 8000ffc:	490b      	ldr	r1, [pc, #44]	; (800102c <HAL_InitTick+0x44>)
 8000ffe:	4605      	mov	r5, r0
 8001000:	6808      	ldr	r0, [r1, #0]
 8001002:	fbb0 f0f3 	udiv	r0, r0, r3
 8001006:	f000 fa91 	bl	800152c <HAL_SYSTICK_Config>
 800100a:	4604      	mov	r4, r0
 800100c:	2800      	cmp	r0, #0
 800100e:	d1ef      	bne.n	8000ff0 <HAL_InitTick+0x8>
 8001010:	2d0f      	cmp	r5, #15
 8001012:	d8ed      	bhi.n	8000ff0 <HAL_InitTick+0x8>
 8001014:	4602      	mov	r2, r0
 8001016:	4629      	mov	r1, r5
 8001018:	f04f 30ff 	mov.w	r0, #4294967295
 800101c:	f000 fa3a 	bl	8001494 <HAL_NVIC_SetPriority>
 8001020:	4b03      	ldr	r3, [pc, #12]	; (8001030 <HAL_InitTick+0x48>)
 8001022:	4620      	mov	r0, r4
 8001024:	601d      	str	r5, [r3, #0]
 8001026:	bd38      	pop	{r3, r4, r5, pc}
 8001028:	20025804 	.word	0x20025804
 800102c:	20025800 	.word	0x20025800
 8001030:	20025808 	.word	0x20025808

08001034 <HAL_Init>:
 8001034:	4a10      	ldr	r2, [pc, #64]	; (8001078 <HAL_Init+0x44>)
 8001036:	b510      	push	{r4, lr}
 8001038:	6813      	ldr	r3, [r2, #0]
 800103a:	2003      	movs	r0, #3
 800103c:	f443 7380 	orr.w	r3, r3, #256	; 0x100
 8001040:	6013      	str	r3, [r2, #0]
 8001042:	f000 fa15 	bl	8001470 <HAL_NVIC_SetPriorityGrouping>
 8001046:	f001 faf7 	bl	8002638 <HAL_RCC_GetSysClockFreq>
 800104a:	4603      	mov	r3, r0
 800104c:	4a0b      	ldr	r2, [pc, #44]	; (800107c <HAL_Init+0x48>)
 800104e:	480c      	ldr	r0, [pc, #48]	; (8001080 <HAL_Init+0x4c>)
 8001050:	6a12      	ldr	r2, [r2, #32]
 8001052:	490c      	ldr	r1, [pc, #48]	; (8001084 <HAL_Init+0x50>)
 8001054:	f002 020f 	and.w	r2, r2, #15
 8001058:	5c82      	ldrb	r2, [r0, r2]
 800105a:	2000      	movs	r0, #0
 800105c:	40d3      	lsrs	r3, r2
 800105e:	600b      	str	r3, [r1, #0]
 8001060:	f7ff ffc2 	bl	8000fe8 <HAL_InitTick>
 8001064:	b110      	cbz	r0, 800106c <HAL_Init+0x38>
 8001066:	2401      	movs	r4, #1
 8001068:	4620      	mov	r0, r4
 800106a:	bd10      	pop	{r4, pc}
 800106c:	4604      	mov	r4, r0
 800106e:	f7ff fdd3 	bl	8000c18 <HAL_MspInit>
 8001072:	4620      	mov	r0, r4
 8001074:	bd10      	pop	{r4, pc}
 8001076:	bf00      	nop
 8001078:	40022000 	.word	0x40022000
 800107c:	46020c00 	.word	0x46020c00
 8001080:	080060f4 	.word	0x080060f4
 8001084:	20025800 	.word	0x20025800

08001088 <HAL_IncTick>:
 8001088:	4a03      	ldr	r2, [pc, #12]	; (8001098 <HAL_IncTick+0x10>)
 800108a:	4b04      	ldr	r3, [pc, #16]	; (800109c <HAL_IncTick+0x14>)
 800108c:	6811      	ldr	r1, [r2, #0]
 800108e:	781b      	ldrb	r3, [r3, #0]
 8001090:	440b      	add	r3, r1
 8001092:	6013      	str	r3, [r2, #0]
 8001094:	4770      	bx	lr
 8001096:	bf00      	nop
 8001098:	20025eb4 	.word	0x20025eb4
 800109c:	20025804 	.word	0x20025804

080010a0 <HAL_GetTick>:
 80010a0:	4b01      	ldr	r3, [pc, #4]	; (80010a8 <HAL_GetTick+0x8>)
 80010a2:	6818      	ldr	r0, [r3, #0]
 80010a4:	4770      	bx	lr
 80010a6:	bf00      	nop
 80010a8:	20025eb4 	.word	0x20025eb4

080010ac <HAL_Delay>:
 80010ac:	b538      	push	{r3, r4, r5, lr}
 80010ae:	4604      	mov	r4, r0
 80010b0:	f7ff fff6 	bl	80010a0 <HAL_GetTick>
 80010b4:	1c63      	adds	r3, r4, #1
 80010b6:	4605      	mov	r5, r0
 80010b8:	d002      	beq.n	80010c0 <HAL_Delay+0x14>
 80010ba:	4b04      	ldr	r3, [pc, #16]	; (80010cc <HAL_Delay+0x20>)
 80010bc:	781b      	ldrb	r3, [r3, #0]
 80010be:	441c      	add	r4, r3
 80010c0:	f7ff ffee 	bl	80010a0 <HAL_GetTick>
 80010c4:	1b43      	subs	r3, r0, r5
 80010c6:	42a3      	cmp	r3, r4
 80010c8:	d3fa      	bcc.n	80010c0 <HAL_Delay+0x14>
 80010ca:	bd38      	pop	{r3, r4, r5, pc}
 80010cc:	20025804 	.word	0x20025804

080010d0 <HAL_ADC_Init>:
 80010d0:	2800      	cmp	r0, #0
 80010d2:	f000 80a4 	beq.w	800121e <HAL_ADC_Init+0x14e>
 80010d6:	b5f0      	push	{r4, r5, r6, r7, lr}
 80010d8:	6f85      	ldr	r5, [r0, #120]	; 0x78
 80010da:	4604      	mov	r4, r0
 80010dc:	b083      	sub	sp, #12
 80010de:	2d00      	cmp	r5, #0
 80010e0:	f000 8086 	beq.w	80011f0 <HAL_ADC_Init+0x120>
 80010e4:	6822      	ldr	r2, [r4, #0]
 80010e6:	6893      	ldr	r3, [r2, #8]
 80010e8:	0098      	lsls	r0, r3, #2
 80010ea:	d505      	bpl.n	80010f8 <HAL_ADC_Init+0x28>
 80010ec:	6893      	ldr	r3, [r2, #8]
 80010ee:	f023 4320 	bic.w	r3, r3, #2684354560	; 0xa0000000
 80010f2:	f023 033f 	bic.w	r3, r3, #63	; 0x3f
 80010f6:	6093      	str	r3, [r2, #8]
 80010f8:	6893      	ldr	r3, [r2, #8]
 80010fa:	00d9      	lsls	r1, r3, #3
 80010fc:	d419      	bmi.n	8001132 <HAL_ADC_Init+0x62>
 80010fe:	4b61      	ldr	r3, [pc, #388]	; (8001284 <HAL_ADC_Init+0x1b4>)
 8001100:	4861      	ldr	r0, [pc, #388]	; (8001288 <HAL_ADC_Init+0x1b8>)
 8001102:	681b      	ldr	r3, [r3, #0]
 8001104:	6891      	ldr	r1, [r2, #8]
 8001106:	099b      	lsrs	r3, r3, #6
 8001108:	fba0 0303 	umull	r0, r3, r0, r3
 800110c:	f021 4110 	bic.w	r1, r1, #2415919104	; 0x90000000
 8001110:	099b      	lsrs	r3, r3, #6
 8001112:	f021 013f 	bic.w	r1, r1, #63	; 0x3f
 8001116:	3301      	adds	r3, #1
 8001118:	005b      	lsls	r3, r3, #1
 800111a:	f041 5180 	orr.w	r1, r1, #268435456	; 0x10000000
 800111e:	6091      	str	r1, [r2, #8]
 8001120:	9301      	str	r3, [sp, #4]
 8001122:	9b01      	ldr	r3, [sp, #4]
 8001124:	b12b      	cbz	r3, 8001132 <HAL_ADC_Init+0x62>
 8001126:	9b01      	ldr	r3, [sp, #4]
 8001128:	3b01      	subs	r3, #1
 800112a:	9301      	str	r3, [sp, #4]
 800112c:	9b01      	ldr	r3, [sp, #4]
 800112e:	2b00      	cmp	r3, #0
 8001130:	d1f9      	bne.n	8001126 <HAL_ADC_Init+0x56>
 8001132:	6893      	ldr	r3, [r2, #8]
 8001134:	00db      	lsls	r3, r3, #3
 8001136:	d44e      	bmi.n	80011d6 <HAL_ADC_Init+0x106>
 8001138:	2001      	movs	r0, #1
 800113a:	6fa3      	ldr	r3, [r4, #120]	; 0x78
 800113c:	f043 0310 	orr.w	r3, r3, #16
 8001140:	67a3      	str	r3, [r4, #120]	; 0x78
 8001142:	6fe3      	ldr	r3, [r4, #124]	; 0x7c
 8001144:	4303      	orrs	r3, r0
 8001146:	67e3      	str	r3, [r4, #124]	; 0x7c
 8001148:	6893      	ldr	r3, [r2, #8]
 800114a:	f013 0f04 	tst.w	r3, #4
 800114e:	6fa3      	ldr	r3, [r4, #120]	; 0x78
 8001150:	d147      	bne.n	80011e2 <HAL_ADC_Init+0x112>
 8001152:	06df      	lsls	r7, r3, #27
 8001154:	d445      	bmi.n	80011e2 <HAL_ADC_Init+0x112>
 8001156:	6fa3      	ldr	r3, [r4, #120]	; 0x78
 8001158:	f423 7381 	bic.w	r3, r3, #258	; 0x102
 800115c:	f043 0302 	orr.w	r3, r3, #2
 8001160:	67a3      	str	r3, [r4, #120]	; 0x78
 8001162:	6893      	ldr	r3, [r2, #8]
 8001164:	f013 0f01 	tst.w	r3, #1
 8001168:	4b48      	ldr	r3, [pc, #288]	; (800128c <HAL_ADC_Init+0x1bc>)
 800116a:	d047      	beq.n	80011fc <HAL_ADC_Init+0x12c>
 800116c:	429a      	cmp	r2, r3
 800116e:	f000 80af 	beq.w	80012d0 <HAL_ADC_Init+0x200>
 8001172:	68a5      	ldr	r5, [r4, #8]
 8001174:	6c63      	ldr	r3, [r4, #68]	; 0x44
 8001176:	f894 102c 	ldrb.w	r1, [r4, #44]	; 0x2c
 800117a:	432b      	orrs	r3, r5
 800117c:	f894 5024 	ldrb.w	r5, [r4, #36]	; 0x24
 8001180:	2901      	cmp	r1, #1
 8001182:	ea43 3345 	orr.w	r3, r3, r5, lsl #13
 8001186:	ea43 4301 	orr.w	r3, r3, r1, lsl #16
 800118a:	f000 8134 	beq.w	80013f6 <HAL_ADC_Init+0x326>
 800118e:	6925      	ldr	r5, [r4, #16]
 8001190:	493e      	ldr	r1, [pc, #248]	; (800128c <HAL_ADC_Init+0x1bc>)
 8001192:	428a      	cmp	r2, r1
 8001194:	f000 80c3 	beq.w	800131e <HAL_ADC_Init+0x24e>
 8001198:	6b61      	ldr	r1, [r4, #52]	; 0x34
 800119a:	b121      	cbz	r1, 80011a6 <HAL_ADC_Init+0xd6>
 800119c:	6ba6      	ldr	r6, [r4, #56]	; 0x38
 800119e:	f401 7178 	and.w	r1, r1, #992	; 0x3e0
 80011a2:	4331      	orrs	r1, r6
 80011a4:	430b      	orrs	r3, r1
 80011a6:	68d6      	ldr	r6, [r2, #12]
 80011a8:	4939      	ldr	r1, [pc, #228]	; (8001290 <HAL_ADC_Init+0x1c0>)
 80011aa:	4031      	ands	r1, r6
 80011ac:	430b      	orrs	r3, r1
 80011ae:	60d3      	str	r3, [r2, #12]
 80011b0:	6893      	ldr	r3, [r2, #8]
 80011b2:	0759      	lsls	r1, r3, #29
 80011b4:	d535      	bpl.n	8001222 <HAL_ADC_Init+0x152>
 80011b6:	6893      	ldr	r3, [r2, #8]
 80011b8:	2d01      	cmp	r5, #1
 80011ba:	f000 8122 	beq.w	8001402 <HAL_ADC_Init+0x332>
 80011be:	6b13      	ldr	r3, [r2, #48]	; 0x30
 80011c0:	f023 030f 	bic.w	r3, r3, #15
 80011c4:	6313      	str	r3, [r2, #48]	; 0x30
 80011c6:	6fa3      	ldr	r3, [r4, #120]	; 0x78
 80011c8:	f023 0303 	bic.w	r3, r3, #3
 80011cc:	f043 0301 	orr.w	r3, r3, #1
 80011d0:	67a3      	str	r3, [r4, #120]	; 0x78
 80011d2:	b003      	add	sp, #12
 80011d4:	bdf0      	pop	{r4, r5, r6, r7, pc}
 80011d6:	6893      	ldr	r3, [r2, #8]
 80011d8:	2000      	movs	r0, #0
 80011da:	f013 0f04 	tst.w	r3, #4
 80011de:	6fa3      	ldr	r3, [r4, #120]	; 0x78
 80011e0:	d0b7      	beq.n	8001152 <HAL_ADC_Init+0x82>
 80011e2:	2001      	movs	r0, #1
 80011e4:	6fa3      	ldr	r3, [r4, #120]	; 0x78
 80011e6:	f043 0310 	orr.w	r3, r3, #16
 80011ea:	67a3      	str	r3, [r4, #120]	; 0x78
 80011ec:	b003      	add	sp, #12
 80011ee:	bdf0      	pop	{r4, r5, r6, r7, pc}
 80011f0:	f7ff fd26 	bl	8000c40 <HAL_ADC_MspInit>
 80011f4:	67e5      	str	r5, [r4, #124]	; 0x7c
 80011f6:	f884 5074 	strb.w	r5, [r4, #116]	; 0x74
 80011fa:	e773      	b.n	80010e4 <HAL_ADC_Init+0x14>
 80011fc:	429a      	cmp	r2, r3
 80011fe:	d04d      	beq.n	800129c <HAL_ADC_Init+0x1cc>
 8001200:	4924      	ldr	r1, [pc, #144]	; (8001294 <HAL_ADC_Init+0x1c4>)
 8001202:	428a      	cmp	r2, r1
 8001204:	f000 8105 	beq.w	8001412 <HAL_ADC_Init+0x342>
 8001208:	689b      	ldr	r3, [r3, #8]
 800120a:	07dd      	lsls	r5, r3, #31
 800120c:	d4b1      	bmi.n	8001172 <HAL_ADC_Init+0xa2>
 800120e:	4922      	ldr	r1, [pc, #136]	; (8001298 <HAL_ADC_Init+0x1c8>)
 8001210:	680b      	ldr	r3, [r1, #0]
 8001212:	6865      	ldr	r5, [r4, #4]
 8001214:	f423 1370 	bic.w	r3, r3, #3932160	; 0x3c0000
 8001218:	432b      	orrs	r3, r5
 800121a:	600b      	str	r3, [r1, #0]
 800121c:	e7a9      	b.n	8001172 <HAL_ADC_Init+0xa2>
 800121e:	2001      	movs	r0, #1
 8001220:	4770      	bx	lr
 8001222:	6893      	ldr	r3, [r2, #8]
 8001224:	071b      	lsls	r3, r3, #28
 8001226:	d4c7      	bmi.n	80011b8 <HAL_ADC_Init+0xe8>
 8001228:	7f23      	ldrb	r3, [r4, #28]
 800122a:	0399      	lsls	r1, r3, #14
 800122c:	4b19      	ldr	r3, [pc, #100]	; (8001294 <HAL_ADC_Init+0x1c4>)
 800122e:	429a      	cmp	r2, r3
 8001230:	bf16      	itet	ne
 8001232:	6be3      	ldrne	r3, [r4, #60]	; 0x3c
 8001234:	6be6      	ldreq	r6, [r4, #60]	; 0x3c
 8001236:	005e      	lslne	r6, r3, #1
 8001238:	68d3      	ldr	r3, [r2, #12]
 800123a:	f423 4380 	bic.w	r3, r3, #16384	; 0x4000
 800123e:	f023 0303 	bic.w	r3, r3, #3
 8001242:	430b      	orrs	r3, r1
 8001244:	68e1      	ldr	r1, [r4, #12]
 8001246:	4333      	orrs	r3, r6
 8001248:	60d3      	str	r3, [r2, #12]
 800124a:	b151      	cbz	r1, 8001262 <HAL_ADC_Init+0x192>
 800124c:	6f13      	ldr	r3, [r2, #112]	; 0x70
 800124e:	f423 537f 	bic.w	r3, r3, #16320	; 0x3fc0
 8001252:	f023 033f 	bic.w	r3, r3, #63	; 0x3f
 8001256:	430b      	orrs	r3, r1
 8001258:	6713      	str	r3, [r2, #112]	; 0x70
 800125a:	6f13      	ldr	r3, [r2, #112]	; 0x70
 800125c:	f043 4300 	orr.w	r3, r3, #2147483648	; 0x80000000
 8001260:	6713      	str	r3, [r2, #112]	; 0x70
 8001262:	f894 3054 	ldrb.w	r3, [r4, #84]	; 0x54
 8001266:	2b01      	cmp	r3, #1
 8001268:	f000 80dc 	beq.w	8001424 <HAL_ADC_Init+0x354>
 800126c:	6913      	ldr	r3, [r2, #16]
 800126e:	f023 0301 	bic.w	r3, r3, #1
 8001272:	6113      	str	r3, [r2, #16]
 8001274:	6913      	ldr	r3, [r2, #16]
 8001276:	6d21      	ldr	r1, [r4, #80]	; 0x50
 8001278:	f023 4370 	bic.w	r3, r3, #4026531840	; 0xf0000000
 800127c:	430b      	orrs	r3, r1
 800127e:	6113      	str	r3, [r2, #16]
 8001280:	e79a      	b.n	80011b8 <HAL_ADC_Init+0xe8>
 8001282:	bf00      	nop
 8001284:	20025800 	.word	0x20025800
 8001288:	053e2d63 	.word	0x053e2d63
 800128c:	46021000 	.word	0x46021000
 8001290:	fff0c013 	.word	0xfff0c013
 8001294:	42028000 	.word	0x42028000
 8001298:	46021308 	.word	0x46021308
 800129c:	f64f 75ff 	movw	r5, #65535	; 0xffff
 80012a0:	68a1      	ldr	r1, [r4, #8]
 80012a2:	68d3      	ldr	r3, [r2, #12]
 80012a4:	42a9      	cmp	r1, r5
 80012a6:	bf0e      	itee	eq
 80012a8:	210c      	moveq	r1, #12
 80012aa:	f101 31ff 	addne.w	r1, r1, #4294967295
 80012ae:	f001 010c 	andne.w	r1, r1, #12
 80012b2:	f023 030c 	bic.w	r3, r3, #12
 80012b6:	430b      	orrs	r3, r1
 80012b8:	4968      	ldr	r1, [pc, #416]	; (800145c <HAL_ADC_Init+0x38c>)
 80012ba:	60cb      	str	r3, [r1, #12]
 80012bc:	f8d1 5308 	ldr.w	r5, [r1, #776]	; 0x308
 80012c0:	6863      	ldr	r3, [r4, #4]
 80012c2:	f425 1570 	bic.w	r5, r5, #3932160	; 0x3c0000
 80012c6:	f403 1370 	and.w	r3, r3, #3932160	; 0x3c0000
 80012ca:	432b      	orrs	r3, r5
 80012cc:	f8c1 3308 	str.w	r3, [r1, #776]	; 0x308
 80012d0:	f894 6024 	ldrb.w	r6, [r4, #36]	; 0x24
 80012d4:	6c61      	ldr	r1, [r4, #68]	; 0x44
 80012d6:	7f27      	ldrb	r7, [r4, #28]
 80012d8:	6965      	ldr	r5, [r4, #20]
 80012da:	0373      	lsls	r3, r6, #13
 80012dc:	2900      	cmp	r1, #0
 80012de:	ea43 3387 	orr.w	r3, r3, r7, lsl #14
 80012e2:	bf18      	it	ne
 80012e4:	f44f 5180 	movne.w	r1, #4096	; 0x1000
 80012e8:	432b      	orrs	r3, r5
 80012ea:	6925      	ldr	r5, [r4, #16]
 80012ec:	f894 7040 	ldrb.w	r7, [r4, #64]	; 0x40
 80012f0:	2d00      	cmp	r5, #0
 80012f2:	bfa8      	it	ge
 80012f4:	f44f 1c00 	movge.w	ip, #2097152	; 0x200000
 80012f8:	ea43 0347 	orr.w	r3, r3, r7, lsl #1
 80012fc:	ea43 0301 	orr.w	r3, r3, r1
 8001300:	f894 102c 	ldrb.w	r1, [r4, #44]	; 0x2c
 8001304:	bfb8      	it	lt
 8001306:	f025 4c00 	biclt.w	ip, r5, #2147483648	; 0x80000000
 800130a:	2901      	cmp	r1, #1
 800130c:	ea43 030c 	orr.w	r3, r3, ip
 8001310:	f47f af3e 	bne.w	8001190 <HAL_ADC_Init+0xc0>
 8001314:	2e00      	cmp	r6, #0
 8001316:	f040 8098 	bne.w	800144a <HAL_ADC_Init+0x37a>
 800131a:	f443 3380 	orr.w	r3, r3, #65536	; 0x10000
 800131e:	6b62      	ldr	r2, [r4, #52]	; 0x34
 8001320:	b122      	cbz	r2, 800132c <HAL_ADC_Init+0x25c>
 8001322:	6ba1      	ldr	r1, [r4, #56]	; 0x38
 8001324:	f402 72e0 	and.w	r2, r2, #448	; 0x1c0
 8001328:	430a      	orrs	r2, r1
 800132a:	4313      	orrs	r3, r2
 800132c:	494b      	ldr	r1, [pc, #300]	; (800145c <HAL_ADC_Init+0x38c>)
 800132e:	68ca      	ldr	r2, [r1, #12]
 8001330:	f422 32bf 	bic.w	r2, r2, #97792	; 0x17e00
 8001334:	f422 72f9 	bic.w	r2, r2, #498	; 0x1f2
 8001338:	431a      	orrs	r2, r3
 800133a:	60ca      	str	r2, [r1, #12]
 800133c:	6a22      	ldr	r2, [r4, #32]
 800133e:	b112      	cbz	r2, 8001346 <HAL_ADC_Init+0x276>
 8001340:	6c4e      	ldr	r6, [r1, #68]	; 0x44
 8001342:	4332      	orrs	r2, r6
 8001344:	644a      	str	r2, [r1, #68]	; 0x44
 8001346:	6ee2      	ldr	r2, [r4, #108]	; 0x6c
 8001348:	b11a      	cbz	r2, 8001352 <HAL_ADC_Init+0x282>
 800134a:	4944      	ldr	r1, [pc, #272]	; (800145c <HAL_ADC_Init+0x38c>)
 800134c:	6c4e      	ldr	r6, [r1, #68]	; 0x44
 800134e:	4332      	orrs	r2, r6
 8001350:	644a      	str	r2, [r1, #68]	; 0x44
 8001352:	e9d4 2116 	ldrd	r2, r1, [r4, #88]	; 0x58
 8001356:	430a      	orrs	r2, r1
 8001358:	6e21      	ldr	r1, [r4, #96]	; 0x60
 800135a:	430a      	orrs	r2, r1
 800135c:	6ea1      	ldr	r1, [r4, #104]	; 0x68
 800135e:	430a      	orrs	r2, r1
 8001360:	f894 1054 	ldrb.w	r1, [r4, #84]	; 0x54
 8001364:	2901      	cmp	r1, #1
 8001366:	d043      	beq.n	80013f0 <HAL_ADC_Init+0x320>
 8001368:	493c      	ldr	r1, [pc, #240]	; (800145c <HAL_ADC_Init+0x38c>)
 800136a:	4e3d      	ldr	r6, [pc, #244]	; (8001460 <HAL_ADC_Init+0x390>)
 800136c:	690f      	ldr	r7, [r1, #16]
 800136e:	403e      	ands	r6, r7
 8001370:	4332      	orrs	r2, r6
 8001372:	610a      	str	r2, [r1, #16]
 8001374:	694a      	ldr	r2, [r1, #20]
 8001376:	6ca6      	ldr	r6, [r4, #72]	; 0x48
 8001378:	f022 0207 	bic.w	r2, r2, #7
 800137c:	4332      	orrs	r2, r6
 800137e:	614a      	str	r2, [r1, #20]
 8001380:	694a      	ldr	r2, [r1, #20]
 8001382:	6ce6      	ldr	r6, [r4, #76]	; 0x4c
 8001384:	f022 0270 	bic.w	r2, r2, #112	; 0x70
 8001388:	ea42 1206 	orr.w	r2, r2, r6, lsl #4
 800138c:	614a      	str	r2, [r1, #20]
 800138e:	b1d5      	cbz	r5, 80013c6 <HAL_ADC_Init+0x2f6>
 8001390:	f5b5 1f00 	cmp.w	r5, #2097152	; 0x200000
 8001394:	d11b      	bne.n	80013ce <HAL_ADC_Init+0x2fe>
 8001396:	f8d4 5088 	ldr.w	r5, [r4, #136]	; 0x88
 800139a:	f005 020f 	and.w	r2, r5, #15
 800139e:	2a0f      	cmp	r2, #15
 80013a0:	d003      	beq.n	80013aa <HAL_ADC_Init+0x2da>
 80013a2:	f3c5 1203 	ubfx	r2, r5, #4, #4
 80013a6:	2a0f      	cmp	r2, #15
 80013a8:	d00d      	beq.n	80013c6 <HAL_ADC_Init+0x2f6>
 80013aa:	f06f 010f 	mvn.w	r1, #15
 80013ae:	4e2b      	ldr	r6, [pc, #172]	; (800145c <HAL_ADC_Init+0x38c>)
 80013b0:	6ab2      	ldr	r2, [r6, #40]	; 0x28
 80013b2:	6aa2      	ldr	r2, [r4, #40]	; 0x28
 80013b4:	3a01      	subs	r2, #1
 80013b6:	0092      	lsls	r2, r2, #2
 80013b8:	f002 021c 	and.w	r2, r2, #28
 80013bc:	fa01 f202 	lsl.w	r2, r1, r2
 80013c0:	4315      	orrs	r5, r2
 80013c2:	62b5      	str	r5, [r6, #40]	; 0x28
 80013c4:	e003      	b.n	80013ce <HAL_ADC_Init+0x2fe>
 80013c6:	6a8a      	ldr	r2, [r1, #40]	; 0x28
 80013c8:	f062 020f 	orn	r2, r2, #15
 80013cc:	628a      	str	r2, [r1, #40]	; 0x28
 80013ce:	4923      	ldr	r1, [pc, #140]	; (800145c <HAL_ADC_Init+0x38c>)
 80013d0:	4a24      	ldr	r2, [pc, #144]	; (8001464 <HAL_ADC_Init+0x394>)
 80013d2:	68c9      	ldr	r1, [r1, #12]
 80013d4:	400a      	ands	r2, r1
 80013d6:	429a      	cmp	r2, r3
 80013d8:	d021      	beq.n	800141e <HAL_ADC_Init+0x34e>
 80013da:	2001      	movs	r0, #1
 80013dc:	6fa3      	ldr	r3, [r4, #120]	; 0x78
 80013de:	f023 0312 	bic.w	r3, r3, #18
 80013e2:	f043 0310 	orr.w	r3, r3, #16
 80013e6:	67a3      	str	r3, [r4, #120]	; 0x78
 80013e8:	6fe3      	ldr	r3, [r4, #124]	; 0x7c
 80013ea:	4303      	orrs	r3, r0
 80013ec:	67e3      	str	r3, [r4, #124]	; 0x7c
 80013ee:	e6fd      	b.n	80011ec <HAL_ADC_Init+0x11c>
 80013f0:	f042 0201 	orr.w	r2, r2, #1
 80013f4:	e7b8      	b.n	8001368 <HAL_ADC_Init+0x298>
 80013f6:	6b21      	ldr	r1, [r4, #48]	; 0x30
 80013f8:	6925      	ldr	r5, [r4, #16]
 80013fa:	3901      	subs	r1, #1
 80013fc:	ea43 4341 	orr.w	r3, r3, r1, lsl #17
 8001400:	e6ca      	b.n	8001198 <HAL_ADC_Init+0xc8>
 8001402:	6b11      	ldr	r1, [r2, #48]	; 0x30
 8001404:	6aa3      	ldr	r3, [r4, #40]	; 0x28
 8001406:	f021 010f 	bic.w	r1, r1, #15
 800140a:	3b01      	subs	r3, #1
 800140c:	430b      	orrs	r3, r1
 800140e:	6313      	str	r3, [r2, #48]	; 0x30
 8001410:	e6d9      	b.n	80011c6 <HAL_ADC_Init+0xf6>
 8001412:	6893      	ldr	r3, [r2, #8]
 8001414:	07de      	lsls	r6, r3, #31
 8001416:	f53f aeac 	bmi.w	8001172 <HAL_ADC_Init+0xa2>
 800141a:	4913      	ldr	r1, [pc, #76]	; (8001468 <HAL_ADC_Init+0x398>)
 800141c:	e6f8      	b.n	8001210 <HAL_ADC_Init+0x140>
 800141e:	2300      	movs	r3, #0
 8001420:	67e3      	str	r3, [r4, #124]	; 0x7c
 8001422:	e6d0      	b.n	80011c6 <HAL_ADC_Init+0xf6>
 8001424:	e9d4 3117 	ldrd	r3, r1, [r4, #92]	; 0x5c
 8001428:	6916      	ldr	r6, [r2, #16]
 800142a:	430b      	orrs	r3, r1
 800142c:	490f      	ldr	r1, [pc, #60]	; (800146c <HAL_ADC_Init+0x39c>)
 800142e:	4031      	ands	r1, r6
 8001430:	430b      	orrs	r3, r1
 8001432:	6e61      	ldr	r1, [r4, #100]	; 0x64
 8001434:	430b      	orrs	r3, r1
 8001436:	6da1      	ldr	r1, [r4, #88]	; 0x58
 8001438:	ea43 4301 	orr.w	r3, r3, r1, lsl #16
 800143c:	6ea1      	ldr	r1, [r4, #104]	; 0x68
 800143e:	ea43 0391 	orr.w	r3, r3, r1, lsr #2
 8001442:	f043 0301 	orr.w	r3, r3, #1
 8001446:	6113      	str	r3, [r2, #16]
 8001448:	e714      	b.n	8001274 <HAL_ADC_Init+0x1a4>
 800144a:	6fa2      	ldr	r2, [r4, #120]	; 0x78
 800144c:	f042 0220 	orr.w	r2, r2, #32
 8001450:	67a2      	str	r2, [r4, #120]	; 0x78
 8001452:	6fe2      	ldr	r2, [r4, #124]	; 0x7c
 8001454:	f042 0201 	orr.w	r2, r2, #1
 8001458:	67e2      	str	r2, [r4, #124]	; 0x7c
 800145a:	e760      	b.n	800131e <HAL_ADC_Init+0x24e>
 800145c:	46021000 	.word	0x46021000
 8001460:	f7fffc02 	.word	0xf7fffc02
 8001464:	833ffff3 	.word	0x833ffff3
 8001468:	42028308 	.word	0x42028308
 800146c:	fc00f81e 	.word	0xfc00f81e

08001470 <HAL_NVIC_SetPriorityGrouping>:
 8001470:	f64f 0cff 	movw	ip, #63743	; 0xf8ff
 8001474:	4906      	ldr	r1, [pc, #24]	; (8001490 <HAL_NVIC_SetPriorityGrouping+0x20>)
 8001476:	0203      	lsls	r3, r0, #8
 8001478:	68ca      	ldr	r2, [r1, #12]
 800147a:	f403 63e0 	and.w	r3, r3, #1792	; 0x700
 800147e:	ea02 020c 	and.w	r2, r2, ip
 8001482:	4313      	orrs	r3, r2
 8001484:	f043 63bf 	orr.w	r3, r3, #100139008	; 0x5f80000
 8001488:	f443 3300 	orr.w	r3, r3, #131072	; 0x20000
 800148c:	60cb      	str	r3, [r1, #12]
 800148e:	4770      	bx	lr
 8001490:	e000ed00 	.word	0xe000ed00

08001494 <HAL_NVIC_SetPriority>:
 8001494:	4b1c      	ldr	r3, [pc, #112]	; (8001508 <HAL_NVIC_SetPriority+0x74>)
 8001496:	b500      	push	{lr}
 8001498:	68db      	ldr	r3, [r3, #12]
 800149a:	f3c3 2302 	ubfx	r3, r3, #8, #3
 800149e:	f1c3 0e07 	rsb	lr, r3, #7
 80014a2:	f1be 0f04 	cmp.w	lr, #4
 80014a6:	f103 0c04 	add.w	ip, r3, #4
 80014aa:	bf28      	it	cs
 80014ac:	f04f 0e04 	movcs.w	lr, #4
 80014b0:	f1bc 0f06 	cmp.w	ip, #6
 80014b4:	d91b      	bls.n	80014ee <HAL_NVIC_SetPriority+0x5a>
 80014b6:	f04f 3cff 	mov.w	ip, #4294967295
 80014ba:	3b03      	subs	r3, #3
 80014bc:	fa0c fc03 	lsl.w	ip, ip, r3
 80014c0:	ea22 020c 	bic.w	r2, r2, ip
 80014c4:	f04f 3cff 	mov.w	ip, #4294967295
 80014c8:	fa0c fc0e 	lsl.w	ip, ip, lr
 80014cc:	ea21 010c 	bic.w	r1, r1, ip
 80014d0:	4099      	lsls	r1, r3
 80014d2:	2800      	cmp	r0, #0
 80014d4:	ea41 0102 	orr.w	r1, r1, r2
 80014d8:	db0c      	blt.n	80014f4 <HAL_NVIC_SetPriority+0x60>
 80014da:	0109      	lsls	r1, r1, #4
 80014dc:	f100 4060 	add.w	r0, r0, #3758096384	; 0xe0000000
 80014e0:	b2c9      	uxtb	r1, r1
 80014e2:	f500 4061 	add.w	r0, r0, #57600	; 0xe100
 80014e6:	f880 1300 	strb.w	r1, [r0, #768]	; 0x300
 80014ea:	f85d fb04 	ldr.w	pc, [sp], #4
 80014ee:	2200      	movs	r2, #0
 80014f0:	4613      	mov	r3, r2
 80014f2:	e7e7      	b.n	80014c4 <HAL_NVIC_SetPriority+0x30>
 80014f4:	4b05      	ldr	r3, [pc, #20]	; (800150c <HAL_NVIC_SetPriority+0x78>)
 80014f6:	f000 000f 	and.w	r0, r0, #15
 80014fa:	0109      	lsls	r1, r1, #4
 80014fc:	b2c9      	uxtb	r1, r1
 80014fe:	4403      	add	r3, r0
 8001500:	7619      	strb	r1, [r3, #24]
 8001502:	f85d fb04 	ldr.w	pc, [sp], #4
 8001506:	bf00      	nop
 8001508:	e000ed00 	.word	0xe000ed00
 800150c:	e000ecfc 	.word	0xe000ecfc

08001510 <HAL_NVIC_EnableIRQ>:
 8001510:	2800      	cmp	r0, #0
 8001512:	db07      	blt.n	8001524 <HAL_NVIC_EnableIRQ+0x14>
 8001514:	2301      	movs	r3, #1
 8001516:	f000 011f 	and.w	r1, r0, #31
 800151a:	4a03      	ldr	r2, [pc, #12]	; (8001528 <HAL_NVIC_EnableIRQ+0x18>)
 800151c:	0940      	lsrs	r0, r0, #5
 800151e:	408b      	lsls	r3, r1
 8001520:	f842 3020 	str.w	r3, [r2, r0, lsl #2]
 8001524:	4770      	bx	lr
 8001526:	bf00      	nop
 8001528:	e000e100 	.word	0xe000e100

0800152c <HAL_SYSTICK_Config>:
 800152c:	3801      	subs	r0, #1
 800152e:	f1b0 7f80 	cmp.w	r0, #16777216	; 0x1000000
 8001532:	d210      	bcs.n	8001556 <HAL_SYSTICK_Config+0x2a>
 8001534:	f04f 23e0 	mov.w	r3, #3758153728	; 0xe000e000
 8001538:	f04f 0cf0 	mov.w	ip, #240	; 0xf0
 800153c:	2200      	movs	r2, #0
 800153e:	2107      	movs	r1, #7
 8001540:	b410      	push	{r4}
 8001542:	4c06      	ldr	r4, [pc, #24]	; (800155c <HAL_SYSTICK_Config+0x30>)
 8001544:	6158      	str	r0, [r3, #20]
 8001546:	f884 c023 	strb.w	ip, [r4, #35]	; 0x23
 800154a:	4610      	mov	r0, r2
 800154c:	619a      	str	r2, [r3, #24]
 800154e:	f85d 4b04 	ldr.w	r4, [sp], #4
 8001552:	6119      	str	r1, [r3, #16]
 8001554:	4770      	bx	lr
 8001556:	2001      	movs	r0, #1
 8001558:	4770      	bx	lr
 800155a:	bf00      	nop
 800155c:	e000ed00 	.word	0xe000ed00

08001560 <HAL_GPIO_Init>:
 8001560:	e92d 4ff0 	stmdb	sp!, {r4, r5, r6, r7, r8, r9, sl, fp, lr}
 8001564:	680c      	ldr	r4, [r1, #0]
 8001566:	b083      	sub	sp, #12
 8001568:	9000      	str	r0, [sp, #0]
 800156a:	2c00      	cmp	r4, #0
 800156c:	f000 80ee 	beq.w	800174c <HAL_GPIO_Init+0x1ec>
 8001570:	f04f 0c00 	mov.w	ip, #0
 8001574:	4b77      	ldr	r3, [pc, #476]	; (8001754 <HAL_GPIO_Init+0x1f4>)
 8001576:	f04f 0b01 	mov.w	fp, #1
 800157a:	ea03 2390 	and.w	r3, r3, r0, lsr #10
 800157e:	9301      	str	r3, [sp, #4]
 8001580:	4688      	mov	r8, r1
 8001582:	4663      	mov	r3, ip
 8001584:	e069      	b.n	800165a <HAL_GPIO_Init+0xfa>
 8001586:	f8d8 2004 	ldr.w	r2, [r8, #4]
 800158a:	f022 0e10 	bic.w	lr, r2, #16
 800158e:	f1be 0f02 	cmp.w	lr, #2
 8001592:	f000 80a1 	beq.w	80016d8 <HAL_GPIO_Init+0x178>
 8001596:	2103      	movs	r1, #3
 8001598:	46e1      	mov	r9, ip
 800159a:	fa01 f70c 	lsl.w	r7, r1, ip
 800159e:	4619      	mov	r1, r3
 80015a0:	6805      	ldr	r5, [r0, #0]
 80015a2:	43fe      	mvns	r6, r7
 80015a4:	ea25 0507 	bic.w	r5, r5, r7
 80015a8:	f002 0703 	and.w	r7, r2, #3
 80015ac:	fa07 f70c 	lsl.w	r7, r7, ip
 80015b0:	432f      	orrs	r7, r5
 80015b2:	6007      	str	r7, [r0, #0]
 80015b4:	f10e 3eff 	add.w	lr, lr, #4294967295
 80015b8:	f1be 0f01 	cmp.w	lr, #1
 80015bc:	f240 80af 	bls.w	800171e <HAL_GPIO_Init+0x1be>
 80015c0:	2a03      	cmp	r2, #3
 80015c2:	d044      	beq.n	800164e <HAL_GPIO_Init+0xee>
 80015c4:	68c7      	ldr	r7, [r0, #12]
 80015c6:	403e      	ands	r6, r7
 80015c8:	f8d8 7008 	ldr.w	r7, [r8, #8]
 80015cc:	fa07 f709 	lsl.w	r7, r7, r9
 80015d0:	4337      	orrs	r7, r6
 80015d2:	00d6      	lsls	r6, r2, #3
 80015d4:	60c7      	str	r7, [r0, #12]
 80015d6:	d53a      	bpl.n	800164e <HAL_GPIO_Init+0xee>
 80015d8:	250f      	movs	r5, #15
 80015da:	f023 0603 	bic.w	r6, r3, #3
 80015de:	f106 468c 	add.w	r6, r6, #1174405120	; 0x46000000
 80015e2:	f003 0103 	and.w	r1, r3, #3
 80015e6:	f506 3608 	add.w	r6, r6, #139264	; 0x22000
 80015ea:	00c9      	lsls	r1, r1, #3
 80015ec:	6e37      	ldr	r7, [r6, #96]	; 0x60
 80015ee:	fa05 fe01 	lsl.w	lr, r5, r1
 80015f2:	9d01      	ldr	r5, [sp, #4]
 80015f4:	ea27 070e 	bic.w	r7, r7, lr
 80015f8:	fa05 f101 	lsl.w	r1, r5, r1
 80015fc:	4339      	orrs	r1, r7
 80015fe:	6631      	str	r1, [r6, #96]	; 0x60
 8001600:	ea6f 060a 	mvn.w	r6, sl
 8001604:	4954      	ldr	r1, [pc, #336]	; (8001758 <HAL_GPIO_Init+0x1f8>)
 8001606:	02d5      	lsls	r5, r2, #11
 8001608:	6809      	ldr	r1, [r1, #0]
 800160a:	4d53      	ldr	r5, [pc, #332]	; (8001758 <HAL_GPIO_Init+0x1f8>)
 800160c:	bf54      	ite	pl
 800160e:	4031      	andpl	r1, r6
 8001610:	ea4a 0101 	orrmi.w	r1, sl, r1
 8001614:	6029      	str	r1, [r5, #0]
 8001616:	6869      	ldr	r1, [r5, #4]
 8001618:	0297      	lsls	r7, r2, #10
 800161a:	4d4f      	ldr	r5, [pc, #316]	; (8001758 <HAL_GPIO_Init+0x1f8>)
 800161c:	bf54      	ite	pl
 800161e:	4031      	andpl	r1, r6
 8001620:	ea4a 0101 	orrmi.w	r1, sl, r1
 8001624:	6069      	str	r1, [r5, #4]
 8001626:	f8d5 1084 	ldr.w	r1, [r5, #132]	; 0x84
 800162a:	0395      	lsls	r5, r2, #14
 800162c:	4d4a      	ldr	r5, [pc, #296]	; (8001758 <HAL_GPIO_Init+0x1f8>)
 800162e:	bf54      	ite	pl
 8001630:	4031      	andpl	r1, r6
 8001632:	ea4a 0101 	orrmi.w	r1, sl, r1
 8001636:	f8c5 1084 	str.w	r1, [r5, #132]	; 0x84
 800163a:	f8d5 1080 	ldr.w	r1, [r5, #128]	; 0x80
 800163e:	03d2      	lsls	r2, r2, #15
 8001640:	4a45      	ldr	r2, [pc, #276]	; (8001758 <HAL_GPIO_Init+0x1f8>)
 8001642:	bf54      	ite	pl
 8001644:	4031      	andpl	r1, r6
 8001646:	ea4a 0101 	orrmi.w	r1, sl, r1
 800164a:	f8c2 1080 	str.w	r1, [r2, #128]	; 0x80
 800164e:	3301      	adds	r3, #1
 8001650:	fa34 f203 	lsrs.w	r2, r4, r3
 8001654:	f10c 0c02 	add.w	ip, ip, #2
 8001658:	d078      	beq.n	800174c <HAL_GPIO_Init+0x1ec>
 800165a:	fa0b f103 	lsl.w	r1, fp, r3
 800165e:	ea11 0a04 	ands.w	sl, r1, r4
 8001662:	d0f4      	beq.n	800164e <HAL_GPIO_Init+0xee>
 8001664:	9a00      	ldr	r2, [sp, #0]
 8001666:	4e3d      	ldr	r6, [pc, #244]	; (800175c <HAL_GPIO_Init+0x1fc>)
 8001668:	42b2      	cmp	r2, r6
 800166a:	d18c      	bne.n	8001586 <HAL_GPIO_Init+0x26>
 800166c:	4615      	mov	r5, r2
 800166e:	f8d8 2004 	ldr.w	r2, [r8, #4]
 8001672:	682e      	ldr	r6, [r5, #0]
 8001674:	f002 0001 	and.w	r0, r2, #1
 8001678:	ea26 0601 	bic.w	r6, r6, r1
 800167c:	4098      	lsls	r0, r3
 800167e:	4330      	orrs	r0, r6
 8001680:	6028      	str	r0, [r5, #0]
 8001682:	250f      	movs	r5, #15
 8001684:	4f36      	ldr	r7, [pc, #216]	; (8001760 <HAL_GPIO_Init+0x200>)
 8001686:	eb07 01c3 	add.w	r1, r7, r3, lsl #3
 800168a:	6849      	ldr	r1, [r1, #4]
 800168c:	f857 0033 	ldr.w	r0, [r7, r3, lsl #3]
 8001690:	f001 0607 	and.w	r6, r1, #7
 8001694:	00b6      	lsls	r6, r6, #2
 8001696:	fa05 f906 	lsl.w	r9, r5, r6
 800169a:	250b      	movs	r5, #11
 800169c:	fa05 f606 	lsl.w	r6, r5, r6
 80016a0:	2503      	movs	r5, #3
 80016a2:	08cf      	lsrs	r7, r1, #3
 80016a4:	eb00 0787 	add.w	r7, r0, r7, lsl #2
 80016a8:	f8d7 e020 	ldr.w	lr, [r7, #32]
 80016ac:	ea2e 0e09 	bic.w	lr, lr, r9
 80016b0:	ea46 060e 	orr.w	r6, r6, lr
 80016b4:	ea4f 0941 	mov.w	r9, r1, lsl #1
 80016b8:	623e      	str	r6, [r7, #32]
 80016ba:	fa05 f609 	lsl.w	r6, r5, r9
 80016be:	2502      	movs	r5, #2
 80016c0:	6807      	ldr	r7, [r0, #0]
 80016c2:	ea27 0e06 	bic.w	lr, r7, r6
 80016c6:	fa05 f709 	lsl.w	r7, r5, r9
 80016ca:	ea47 070e 	orr.w	r7, r7, lr
 80016ce:	43f6      	mvns	r6, r6
 80016d0:	6007      	str	r7, [r0, #0]
 80016d2:	f022 0e10 	bic.w	lr, r2, #16
 80016d6:	e76d      	b.n	80015b4 <HAL_GPIO_Init+0x54>
 80016d8:	250f      	movs	r5, #15
 80016da:	9900      	ldr	r1, [sp, #0]
 80016dc:	f8d8 6010 	ldr.w	r6, [r8, #16]
 80016e0:	08df      	lsrs	r7, r3, #3
 80016e2:	eb01 0787 	add.w	r7, r1, r7, lsl #2
 80016e6:	f003 0107 	and.w	r1, r3, #7
 80016ea:	f8d7 e020 	ldr.w	lr, [r7, #32]
 80016ee:	0089      	lsls	r1, r1, #2
 80016f0:	f006 060f 	and.w	r6, r6, #15
 80016f4:	408e      	lsls	r6, r1
 80016f6:	fa05 f101 	lsl.w	r1, r5, r1
 80016fa:	ea2e 0101 	bic.w	r1, lr, r1
 80016fe:	430e      	orrs	r6, r1
 8001700:	2103      	movs	r1, #3
 8001702:	623e      	str	r6, [r7, #32]
 8001704:	6807      	ldr	r7, [r0, #0]
 8001706:	fa01 f60c 	lsl.w	r6, r1, ip
 800170a:	4011      	ands	r1, r2
 800170c:	ea27 0706 	bic.w	r7, r7, r6
 8001710:	fa01 f10c 	lsl.w	r1, r1, ip
 8001714:	4339      	orrs	r1, r7
 8001716:	6001      	str	r1, [r0, #0]
 8001718:	43f6      	mvns	r6, r6
 800171a:	46e1      	mov	r9, ip
 800171c:	4619      	mov	r1, r3
 800171e:	6887      	ldr	r7, [r0, #8]
 8001720:	ea07 0e06 	and.w	lr, r7, r6
 8001724:	f8d8 700c 	ldr.w	r7, [r8, #12]
 8001728:	fa07 f709 	lsl.w	r7, r7, r9
 800172c:	ea47 070e 	orr.w	r7, r7, lr
 8001730:	6087      	str	r7, [r0, #8]
 8001732:	6847      	ldr	r7, [r0, #4]
 8001734:	fa0b fe01 	lsl.w	lr, fp, r1
 8001738:	ea27 0e0e 	bic.w	lr, r7, lr
 800173c:	f3c2 1700 	ubfx	r7, r2, #4, #1
 8001740:	fa07 f101 	lsl.w	r1, r7, r1
 8001744:	ea41 010e 	orr.w	r1, r1, lr
 8001748:	6041      	str	r1, [r0, #4]
 800174a:	e739      	b.n	80015c0 <HAL_GPIO_Init+0x60>
 800174c:	b003      	add	sp, #12
 800174e:	e8bd 8ff0 	ldmia.w	sp!, {r4, r5, r6, r7, r8, r9, sl, fp, pc}
 8001752:	bf00      	nop
 8001754:	002f7f7f 	.word	0x002f7f7f
 8001758:	46022000 	.word	0x46022000
 800175c:	46020000 	.word	0x46020000
 8001760:	0800614c 	.word	0x0800614c

08001764 <HAL_GPIO_WritePin>:
 8001764:	b10a      	cbz	r2, 800176a <HAL_GPIO_WritePin+0x6>
 8001766:	6181      	str	r1, [r0, #24]
 8001768:	4770      	bx	lr
 800176a:	6281      	str	r1, [r0, #40]	; 0x28
 800176c:	4770      	bx	lr
 800176e:	bf00      	nop

08001770 <HAL_PCD_Init>:
 8001770:	b5f0      	push	{r4, r5, r6, r7, lr}
 8001772:	b08b      	sub	sp, #44	; 0x2c
 8001774:	2800      	cmp	r0, #0
 8001776:	f000 8088 	beq.w	800188a <HAL_PCD_Init+0x11a>
 800177a:	f890 34bd 	ldrb.w	r3, [r0, #1213]	; 0x4bd
 800177e:	4605      	mov	r5, r0
 8001780:	6804      	ldr	r4, [r0, #0]
 8001782:	f003 02ff 	and.w	r2, r3, #255	; 0xff
 8001786:	2b00      	cmp	r3, #0
 8001788:	d079      	beq.n	800187e <HAL_PCD_Init+0x10e>
 800178a:	4620      	mov	r0, r4
 800178c:	2303      	movs	r3, #3
 800178e:	462e      	mov	r6, r5
 8001790:	f885 34bd 	strb.w	r3, [r5, #1213]	; 0x4bd
 8001794:	6be3      	ldr	r3, [r4, #60]	; 0x3c
 8001796:	466c      	mov	r4, sp
 8001798:	f413 7380 	ands.w	r3, r3, #256	; 0x100
 800179c:	bf08      	it	eq
 800179e:	612b      	streq	r3, [r5, #16]
 80017a0:	f004 f9f8 	bl	8005b94 <USB_DisableGlobalInt>
 80017a4:	f856 eb10 	ldr.w	lr, [r6], #16
 80017a8:	1d2f      	adds	r7, r5, #4
 80017aa:	46b4      	mov	ip, r6
 80017ac:	e8bc 000f 	ldmia.w	ip!, {r0, r1, r2, r3}
 80017b0:	c40f      	stmia	r4!, {r0, r1, r2, r3}
 80017b2:	e8bc 000f 	ldmia.w	ip!, {r0, r1, r2, r3}
 80017b6:	c40f      	stmia	r4!, {r0, r1, r2, r3}
 80017b8:	e89c 0003 	ldmia.w	ip, {r0, r1}
 80017bc:	e884 0003 	stmia.w	r4, {r0, r1}
 80017c0:	4670      	mov	r0, lr
 80017c2:	e897 000e 	ldmia.w	r7, {r1, r2, r3}
 80017c6:	f004 f927 	bl	8005a18 <USB_CoreInit>
 80017ca:	4604      	mov	r4, r0
 80017cc:	b130      	cbz	r0, 80017dc <HAL_PCD_Init+0x6c>
 80017ce:	2401      	movs	r4, #1
 80017d0:	2302      	movs	r3, #2
 80017d2:	4620      	mov	r0, r4
 80017d4:	f885 34bd 	strb.w	r3, [r5, #1213]	; 0x4bd
 80017d8:	b00b      	add	sp, #44	; 0x2c
 80017da:	bdf0      	pop	{r4, r5, r6, r7, pc}
 80017dc:	4601      	mov	r1, r0
 80017de:	6828      	ldr	r0, [r5, #0]
 80017e0:	f004 f9e0 	bl	8005ba4 <USB_SetCurrentMode>
 80017e4:	6868      	ldr	r0, [r5, #4]
 80017e6:	b358      	cbz	r0, 8001840 <HAL_PCD_Init+0xd0>
 80017e8:	4622      	mov	r2, r4
 80017ea:	f04f 0e01 	mov.w	lr, #1
 80017ee:	4621      	mov	r1, r4
 80017f0:	eb02 03c2 	add.w	r3, r2, r2, lsl #3
 80017f4:	eb05 0383 	add.w	r3, r5, r3, lsl #2
 80017f8:	f102 0c01 	add.w	ip, r2, #1
 80017fc:	f883 203c 	strb.w	r2, [r3, #60]	; 0x3c
 8001800:	f8a3 2044 	strh.w	r2, [r3, #68]	; 0x44
 8001804:	fa5f f28c 	uxtb.w	r2, ip
 8001808:	4282      	cmp	r2, r0
 800180a:	e9c3 1112 	strd	r1, r1, [r3, #72]	; 0x48
 800180e:	f883 e03d 	strb.w	lr, [r3, #61]	; 0x3d
 8001812:	f883 1040 	strb.w	r1, [r3, #64]	; 0x40
 8001816:	6559      	str	r1, [r3, #84]	; 0x54
 8001818:	d3ea      	bcc.n	80017f0 <HAL_PCD_Init+0x80>
 800181a:	2200      	movs	r2, #0
 800181c:	eb04 03c4 	add.w	r3, r4, r4, lsl #3
 8001820:	eb05 0383 	add.w	r3, r5, r3, lsl #2
 8001824:	1c61      	adds	r1, r4, #1
 8001826:	f883 427c 	strb.w	r4, [r3, #636]	; 0x27c
 800182a:	b2cc      	uxtb	r4, r1
 800182c:	4284      	cmp	r4, r0
 800182e:	e9c3 22a2 	strd	r2, r2, [r3, #648]	; 0x288
 8001832:	f883 227d 	strb.w	r2, [r3, #637]	; 0x27d
 8001836:	f883 2280 	strb.w	r2, [r3, #640]	; 0x280
 800183a:	f8c3 2294 	str.w	r2, [r3, #660]	; 0x294
 800183e:	d3ed      	bcc.n	800181c <HAL_PCD_Init+0xac>
 8001840:	ce0f      	ldmia	r6!, {r0, r1, r2, r3}
 8001842:	466c      	mov	r4, sp
 8001844:	c40f      	stmia	r4!, {r0, r1, r2, r3}
 8001846:	ce0f      	ldmia	r6!, {r0, r1, r2, r3}
 8001848:	c40f      	stmia	r4!, {r0, r1, r2, r3}
 800184a:	e896 0003 	ldmia.w	r6, {r0, r1}
 800184e:	e884 0003 	stmia.w	r4, {r0, r1}
 8001852:	6828      	ldr	r0, [r5, #0]
 8001854:	e897 000e 	ldmia.w	r7, {r1, r2, r3}
 8001858:	f004 f9da 	bl	8005c10 <USB_DevInit>
 800185c:	4604      	mov	r4, r0
 800185e:	2800      	cmp	r0, #0
 8001860:	d1b5      	bne.n	80017ce <HAL_PCD_Init+0x5e>
 8001862:	2201      	movs	r2, #1
 8001864:	6a6b      	ldr	r3, [r5, #36]	; 0x24
 8001866:	f885 0038 	strb.w	r0, [r5, #56]	; 0x38
 800186a:	4293      	cmp	r3, r2
 800186c:	f885 24bd 	strb.w	r2, [r5, #1213]	; 0x4bd
 8001870:	d00f      	beq.n	8001892 <HAL_PCD_Init+0x122>
 8001872:	6828      	ldr	r0, [r5, #0]
 8001874:	f004 fb86 	bl	8005f84 <USB_DevDisconnect>
 8001878:	4620      	mov	r0, r4
 800187a:	b00b      	add	sp, #44	; 0x2c
 800187c:	bdf0      	pop	{r4, r5, r6, r7, pc}
 800187e:	f880 24bc 	strb.w	r2, [r0, #1212]	; 0x4bc
 8001882:	f7ff fa8d 	bl	8000da0 <HAL_PCD_MspInit>
 8001886:	6828      	ldr	r0, [r5, #0]
 8001888:	e780      	b.n	800178c <HAL_PCD_Init+0x1c>
 800188a:	2401      	movs	r4, #1
 800188c:	4620      	mov	r0, r4
 800188e:	b00b      	add	sp, #44	; 0x2c
 8001890:	bdf0      	pop	{r4, r5, r6, r7, pc}
 8001892:	4628      	mov	r0, r5
 8001894:	f000 fdc2 	bl	800241c <HAL_PCDEx_ActivateLPM>
 8001898:	e7eb      	b.n	8001872 <HAL_PCD_Init+0x102>
 800189a:	bf00      	nop

0800189c <HAL_PCD_DataOutStageCallback>:
 800189c:	4770      	bx	lr
 800189e:	bf00      	nop

080018a0 <HAL_PCD_DataInStageCallback>:
 80018a0:	4770      	bx	lr
 80018a2:	bf00      	nop

080018a4 <HAL_PCD_SetupStageCallback>:
 80018a4:	4770      	bx	lr
 80018a6:	bf00      	nop

080018a8 <HAL_PCD_SOFCallback>:
 80018a8:	4770      	bx	lr
 80018aa:	bf00      	nop

080018ac <HAL_PCD_ResetCallback>:
 80018ac:	4770      	bx	lr
 80018ae:	bf00      	nop

080018b0 <HAL_PCD_SuspendCallback>:
 80018b0:	4770      	bx	lr
 80018b2:	bf00      	nop

080018b4 <HAL_PCD_ResumeCallback>:
 80018b4:	4770      	bx	lr
 80018b6:	bf00      	nop

080018b8 <HAL_PCD_ISOOUTIncompleteCallback>:
 80018b8:	4770      	bx	lr
 80018ba:	bf00      	nop

080018bc <HAL_PCD_ISOINIncompleteCallback>:
 80018bc:	4770      	bx	lr
 80018be:	bf00      	nop

080018c0 <HAL_PCD_ConnectCallback>:
 80018c0:	4770      	bx	lr
 80018c2:	bf00      	nop

080018c4 <HAL_PCD_DisconnectCallback>:
 80018c4:	4770      	bx	lr
 80018c6:	bf00      	nop

080018c8 <HAL_PCD_IRQHandler>:
 80018c8:	e92d 4ff0 	stmdb	sp!, {r4, r5, r6, r7, r8, r9, sl, fp, lr}
 80018cc:	6805      	ldr	r5, [r0, #0]
 80018ce:	4604      	mov	r4, r0
 80018d0:	b089      	sub	sp, #36	; 0x24
 80018d2:	4628      	mov	r0, r5
 80018d4:	f004 fb94 	bl	8006000 <USB_GetMode>
 80018d8:	b110      	cbz	r0, 80018e0 <HAL_PCD_IRQHandler+0x18>
 80018da:	b009      	add	sp, #36	; 0x24
 80018dc:	e8bd 8ff0 	ldmia.w	sp!, {r4, r5, r6, r7, r8, r9, sl, fp, pc}
 80018e0:	4683      	mov	fp, r0
 80018e2:	6820      	ldr	r0, [r4, #0]
 80018e4:	f004 fb5e 	bl	8005fa4 <USB_ReadInterrupts>
 80018e8:	2800      	cmp	r0, #0
 80018ea:	d0f6      	beq.n	80018da <HAL_PCD_IRQHandler+0x12>
 80018ec:	f8d5 3808 	ldr.w	r3, [r5, #2056]	; 0x808
 80018f0:	6820      	ldr	r0, [r4, #0]
 80018f2:	f3c3 230d 	ubfx	r3, r3, #8, #14
 80018f6:	f8c4 34fc 	str.w	r3, [r4, #1276]	; 0x4fc
 80018fa:	f004 fb53 	bl	8005fa4 <USB_ReadInterrupts>
 80018fe:	f010 0f02 	tst.w	r0, #2
 8001902:	6820      	ldr	r0, [r4, #0]
 8001904:	f505 6300 	add.w	r3, r5, #2048	; 0x800
 8001908:	9303      	str	r3, [sp, #12]
 800190a:	bf1e      	ittt	ne
 800190c:	6943      	ldrne	r3, [r0, #20]
 800190e:	f003 0302 	andne.w	r3, r3, #2
 8001912:	6143      	strne	r3, [r0, #20]
 8001914:	f004 fb46 	bl	8005fa4 <USB_ReadInterrupts>
 8001918:	f010 0f10 	tst.w	r0, #16
 800191c:	6820      	ldr	r0, [r4, #0]
 800191e:	d012      	beq.n	8001946 <HAL_PCD_IRQHandler+0x7e>
 8001920:	6983      	ldr	r3, [r0, #24]
 8001922:	f023 0310 	bic.w	r3, r3, #16
 8001926:	6183      	str	r3, [r0, #24]
 8001928:	6a2e      	ldr	r6, [r5, #32]
 800192a:	f3c6 4343 	ubfx	r3, r6, #17, #4
 800192e:	2b02      	cmp	r3, #2
 8001930:	f006 070f 	and.w	r7, r6, #15
 8001934:	f000 83e7 	beq.w	8002106 <HAL_PCD_IRQHandler+0x83e>
 8001938:	2b06      	cmp	r3, #6
 800193a:	f000 8325 	beq.w	8001f88 <HAL_PCD_IRQHandler+0x6c0>
 800193e:	6983      	ldr	r3, [r0, #24]
 8001940:	f043 0310 	orr.w	r3, r3, #16
 8001944:	6183      	str	r3, [r0, #24]
 8001946:	f004 fb2d 	bl	8005fa4 <USB_ReadInterrupts>
 800194a:	0307      	lsls	r7, r0, #12
 800194c:	f100 8283 	bmi.w	8001e56 <HAL_PCD_IRQHandler+0x58e>
 8001950:	6820      	ldr	r0, [r4, #0]
 8001952:	f004 fb27 	bl	8005fa4 <USB_ReadInterrupts>
 8001956:	0346      	lsls	r6, r0, #13
 8001958:	f100 822b 	bmi.w	8001db2 <HAL_PCD_IRQHandler+0x4ea>
 800195c:	6820      	ldr	r0, [r4, #0]
 800195e:	f004 fb21 	bl	8005fa4 <USB_ReadInterrupts>
 8001962:	2800      	cmp	r0, #0
 8001964:	f2c0 819c 	blt.w	8001ca0 <HAL_PCD_IRQHandler+0x3d8>
 8001968:	6820      	ldr	r0, [r4, #0]
 800196a:	f004 fb1b 	bl	8005fa4 <USB_ReadInterrupts>
 800196e:	0503      	lsls	r3, r0, #20
 8001970:	f100 8157 	bmi.w	8001c22 <HAL_PCD_IRQHandler+0x35a>
 8001974:	6820      	ldr	r0, [r4, #0]
 8001976:	f004 fb15 	bl	8005fa4 <USB_ReadInterrupts>
 800197a:	0106      	lsls	r6, r0, #4
 800197c:	d514      	bpl.n	80019a8 <HAL_PCD_IRQHandler+0xe0>
 800197e:	6822      	ldr	r2, [r4, #0]
 8001980:	6953      	ldr	r3, [r2, #20]
 8001982:	f003 6300 	and.w	r3, r3, #134217728	; 0x8000000
 8001986:	6153      	str	r3, [r2, #20]
 8001988:	f894 34f4 	ldrb.w	r3, [r4, #1268]	; 0x4f4
 800198c:	2b00      	cmp	r3, #0
 800198e:	f040 82ae 	bne.w	8001eee <HAL_PCD_IRQHandler+0x626>
 8001992:	2101      	movs	r1, #1
 8001994:	f884 14f4 	strb.w	r1, [r4, #1268]	; 0x4f4
 8001998:	6d53      	ldr	r3, [r2, #84]	; 0x54
 800199a:	4620      	mov	r0, r4
 800199c:	f3c3 0383 	ubfx	r3, r3, #2, #4
 80019a0:	f8c4 34f8 	str.w	r3, [r4, #1272]	; 0x4f8
 80019a4:	f000 fd52 	bl	800244c <HAL_PCDEx_LPM_Callback>
 80019a8:	6820      	ldr	r0, [r4, #0]
 80019aa:	f004 fafb 	bl	8005fa4 <USB_ReadInterrupts>
 80019ae:	04c0      	lsls	r0, r0, #19
 80019b0:	f100 81a0 	bmi.w	8001cf4 <HAL_PCD_IRQHandler+0x42c>
 80019b4:	6820      	ldr	r0, [r4, #0]
 80019b6:	f004 faf5 	bl	8005fa4 <USB_ReadInterrupts>
 80019ba:	f410 5f00 	tst.w	r0, #8192	; 0x2000
 80019be:	6820      	ldr	r0, [r4, #0]
 80019c0:	f040 8181 	bne.w	8001cc6 <HAL_PCD_IRQHandler+0x3fe>
 80019c4:	f004 faee 	bl	8005fa4 <USB_ReadInterrupts>
 80019c8:	0701      	lsls	r1, r0, #28
 80019ca:	f100 81e9 	bmi.w	8001da0 <HAL_PCD_IRQHandler+0x4d8>
 80019ce:	6820      	ldr	r0, [r4, #0]
 80019d0:	f004 fae8 	bl	8005fa4 <USB_ReadInterrupts>
 80019d4:	0602      	lsls	r2, r0, #24
 80019d6:	d571      	bpl.n	8001abc <HAL_PCD_IRQHandler+0x1f4>
 80019d8:	69aa      	ldr	r2, [r5, #24]
 80019da:	6863      	ldr	r3, [r4, #4]
 80019dc:	f022 0280 	bic.w	r2, r2, #128	; 0x80
 80019e0:	2b01      	cmp	r3, #1
 80019e2:	61aa      	str	r2, [r5, #24]
 80019e4:	d96a      	bls.n	8001abc <HAL_PCD_IRQHandler+0x1f4>
 80019e6:	f894 22a3 	ldrb.w	r2, [r4, #675]	; 0x2a3
 80019ea:	2a01      	cmp	r2, #1
 80019ec:	f000 83ee 	beq.w	80021cc <HAL_PCD_IRQHandler+0x904>
 80019f0:	2b02      	cmp	r3, #2
 80019f2:	d963      	bls.n	8001abc <HAL_PCD_IRQHandler+0x1f4>
 80019f4:	f894 22c7 	ldrb.w	r2, [r4, #711]	; 0x2c7
 80019f8:	2a01      	cmp	r2, #1
 80019fa:	f000 8402 	beq.w	8002202 <HAL_PCD_IRQHandler+0x93a>
 80019fe:	2b03      	cmp	r3, #3
 8001a00:	d95c      	bls.n	8001abc <HAL_PCD_IRQHandler+0x1f4>
 8001a02:	f894 22eb 	ldrb.w	r2, [r4, #747]	; 0x2eb
 8001a06:	2a01      	cmp	r2, #1
 8001a08:	f000 82b7 	beq.w	8001f7a <HAL_PCD_IRQHandler+0x6b2>
 8001a0c:	2b04      	cmp	r3, #4
 8001a0e:	d955      	bls.n	8001abc <HAL_PCD_IRQHandler+0x1f4>
 8001a10:	f894 230f 	ldrb.w	r2, [r4, #783]	; 0x30f
 8001a14:	2a01      	cmp	r2, #1
 8001a16:	f000 82ca 	beq.w	8001fae <HAL_PCD_IRQHandler+0x6e6>
 8001a1a:	2b05      	cmp	r3, #5
 8001a1c:	d94e      	bls.n	8001abc <HAL_PCD_IRQHandler+0x1f4>
 8001a1e:	f894 2333 	ldrb.w	r2, [r4, #819]	; 0x333
 8001a22:	2a01      	cmp	r2, #1
 8001a24:	f000 842a 	beq.w	800227c <HAL_PCD_IRQHandler+0x9b4>
 8001a28:	2b06      	cmp	r3, #6
 8001a2a:	d947      	bls.n	8001abc <HAL_PCD_IRQHandler+0x1f4>
 8001a2c:	f894 2357 	ldrb.w	r2, [r4, #855]	; 0x357
 8001a30:	2a01      	cmp	r2, #1
 8001a32:	f000 8437 	beq.w	80022a4 <HAL_PCD_IRQHandler+0x9dc>
 8001a36:	2b07      	cmp	r3, #7
 8001a38:	d940      	bls.n	8001abc <HAL_PCD_IRQHandler+0x1f4>
 8001a3a:	f894 237b 	ldrb.w	r2, [r4, #891]	; 0x37b
 8001a3e:	2a01      	cmp	r2, #1
 8001a40:	f000 844e 	beq.w	80022e0 <HAL_PCD_IRQHandler+0xa18>
 8001a44:	2b08      	cmp	r3, #8
 8001a46:	d939      	bls.n	8001abc <HAL_PCD_IRQHandler+0x1f4>
 8001a48:	f894 239f 	ldrb.w	r2, [r4, #927]	; 0x39f
 8001a4c:	2a01      	cmp	r2, #1
 8001a4e:	f000 845b 	beq.w	8002308 <HAL_PCD_IRQHandler+0xa40>
 8001a52:	2b09      	cmp	r3, #9
 8001a54:	d932      	bls.n	8001abc <HAL_PCD_IRQHandler+0x1f4>
 8001a56:	f894 23c3 	ldrb.w	r2, [r4, #963]	; 0x3c3
 8001a5a:	2a01      	cmp	r2, #1
 8001a5c:	f000 8468 	beq.w	8002330 <HAL_PCD_IRQHandler+0xa68>
 8001a60:	2b0a      	cmp	r3, #10
 8001a62:	d92b      	bls.n	8001abc <HAL_PCD_IRQHandler+0x1f4>
 8001a64:	f894 23e7 	ldrb.w	r2, [r4, #999]	; 0x3e7
 8001a68:	2a01      	cmp	r2, #1
 8001a6a:	f000 8475 	beq.w	8002358 <HAL_PCD_IRQHandler+0xa90>
 8001a6e:	2b0b      	cmp	r3, #11
 8001a70:	d924      	bls.n	8001abc <HAL_PCD_IRQHandler+0x1f4>
 8001a72:	f894 240b 	ldrb.w	r2, [r4, #1035]	; 0x40b
 8001a76:	2a01      	cmp	r2, #1
 8001a78:	f000 8482 	beq.w	8002380 <HAL_PCD_IRQHandler+0xab8>
 8001a7c:	2b0c      	cmp	r3, #12
 8001a7e:	d91d      	bls.n	8001abc <HAL_PCD_IRQHandler+0x1f4>
 8001a80:	f894 242f 	ldrb.w	r2, [r4, #1071]	; 0x42f
 8001a84:	2a01      	cmp	r2, #1
 8001a86:	f000 8483 	beq.w	8002390 <HAL_PCD_IRQHandler+0xac8>
 8001a8a:	2b0d      	cmp	r3, #13
 8001a8c:	d916      	bls.n	8001abc <HAL_PCD_IRQHandler+0x1f4>
 8001a8e:	f894 2453 	ldrb.w	r2, [r4, #1107]	; 0x453
 8001a92:	2a01      	cmp	r2, #1
 8001a94:	f000 84a3 	beq.w	80023de <HAL_PCD_IRQHandler+0xb16>
 8001a98:	2b0e      	cmp	r3, #14
 8001a9a:	d90f      	bls.n	8001abc <HAL_PCD_IRQHandler+0x1f4>
 8001a9c:	f894 2477 	ldrb.w	r2, [r4, #1143]	; 0x477
 8001aa0:	2a01      	cmp	r2, #1
 8001aa2:	f000 84aa 	beq.w	80023fa <HAL_PCD_IRQHandler+0xb32>
 8001aa6:	2b0f      	cmp	r3, #15
 8001aa8:	d908      	bls.n	8001abc <HAL_PCD_IRQHandler+0x1f4>
 8001aaa:	f894 349b 	ldrb.w	r3, [r4, #1179]	; 0x49b
 8001aae:	2b01      	cmp	r3, #1
 8001ab0:	d104      	bne.n	8001abc <HAL_PCD_IRQHandler+0x1f4>
 8001ab2:	6820      	ldr	r0, [r4, #0]
 8001ab4:	f504 6193 	add.w	r1, r4, #1176	; 0x498
 8001ab8:	f004 f9e2 	bl	8005e80 <USB_EPStopXfer>
 8001abc:	6820      	ldr	r0, [r4, #0]
 8001abe:	f004 fa71 	bl	8005fa4 <USB_ReadInterrupts>
 8001ac2:	02c3      	lsls	r3, r0, #11
 8001ac4:	f140 80ab 	bpl.w	8001c1e <HAL_PCD_IRQHandler+0x356>
 8001ac8:	6863      	ldr	r3, [r4, #4]
 8001aca:	2b01      	cmp	r3, #1
 8001acc:	f240 8089 	bls.w	8001be2 <HAL_PCD_IRQHandler+0x31a>
 8001ad0:	f894 2064 	ldrb.w	r2, [r4, #100]	; 0x64
 8001ad4:	f8d5 1920 	ldr.w	r1, [r5, #2336]	; 0x920
 8001ad8:	2a01      	cmp	r2, #1
 8001ada:	f000 8217 	beq.w	8001f0c <HAL_PCD_IRQHandler+0x644>
 8001ade:	2b02      	cmp	r3, #2
 8001ae0:	d97f      	bls.n	8001be2 <HAL_PCD_IRQHandler+0x31a>
 8001ae2:	f894 2088 	ldrb.w	r2, [r4, #136]	; 0x88
 8001ae6:	f8d5 1940 	ldr.w	r1, [r5, #2368]	; 0x940
 8001aea:	2a01      	cmp	r2, #1
 8001aec:	f000 8221 	beq.w	8001f32 <HAL_PCD_IRQHandler+0x66a>
 8001af0:	2b03      	cmp	r3, #3
 8001af2:	d976      	bls.n	8001be2 <HAL_PCD_IRQHandler+0x31a>
 8001af4:	f894 20ac 	ldrb.w	r2, [r4, #172]	; 0xac
 8001af8:	f8d5 1960 	ldr.w	r1, [r5, #2400]	; 0x960
 8001afc:	2a01      	cmp	r2, #1
 8001afe:	f000 8224 	beq.w	8001f4a <HAL_PCD_IRQHandler+0x682>
 8001b02:	2b04      	cmp	r3, #4
 8001b04:	d96d      	bls.n	8001be2 <HAL_PCD_IRQHandler+0x31a>
 8001b06:	f894 20d0 	ldrb.w	r2, [r4, #208]	; 0xd0
 8001b0a:	f8d5 1980 	ldr.w	r1, [r5, #2432]	; 0x980
 8001b0e:	2a01      	cmp	r2, #1
 8001b10:	f000 8227 	beq.w	8001f62 <HAL_PCD_IRQHandler+0x69a>
 8001b14:	2b05      	cmp	r3, #5
 8001b16:	d964      	bls.n	8001be2 <HAL_PCD_IRQHandler+0x31a>
 8001b18:	f894 20f4 	ldrb.w	r2, [r4, #244]	; 0xf4
 8001b1c:	f8d5 19a0 	ldr.w	r1, [r5, #2464]	; 0x9a0
 8001b20:	2a01      	cmp	r2, #1
 8001b22:	f000 8347 	beq.w	80021b4 <HAL_PCD_IRQHandler+0x8ec>
 8001b26:	2b06      	cmp	r3, #6
 8001b28:	d95b      	bls.n	8001be2 <HAL_PCD_IRQHandler+0x31a>
 8001b2a:	f894 2118 	ldrb.w	r2, [r4, #280]	; 0x118
 8001b2e:	f8d5 19c0 	ldr.w	r1, [r5, #2496]	; 0x9c0
 8001b32:	2a01      	cmp	r2, #1
 8001b34:	f000 8359 	beq.w	80021ea <HAL_PCD_IRQHandler+0x922>
 8001b38:	2b07      	cmp	r3, #7
 8001b3a:	d952      	bls.n	8001be2 <HAL_PCD_IRQHandler+0x31a>
 8001b3c:	f894 213c 	ldrb.w	r2, [r4, #316]	; 0x13c
 8001b40:	f8d5 19e0 	ldr.w	r1, [r5, #2528]	; 0x9e0
 8001b44:	2a01      	cmp	r2, #1
 8001b46:	f000 8364 	beq.w	8002212 <HAL_PCD_IRQHandler+0x94a>
 8001b4a:	2b08      	cmp	r3, #8
 8001b4c:	d949      	bls.n	8001be2 <HAL_PCD_IRQHandler+0x31a>
 8001b4e:	f894 2160 	ldrb.w	r2, [r4, #352]	; 0x160
 8001b52:	f8d5 1a00 	ldr.w	r1, [r5, #2560]	; 0xa00
 8001b56:	2a01      	cmp	r2, #1
 8001b58:	f000 8367 	beq.w	800222a <HAL_PCD_IRQHandler+0x962>
 8001b5c:	2b09      	cmp	r3, #9
 8001b5e:	d940      	bls.n	8001be2 <HAL_PCD_IRQHandler+0x31a>
 8001b60:	f894 2184 	ldrb.w	r2, [r4, #388]	; 0x184
 8001b64:	f8d5 1a20 	ldr.w	r1, [r5, #2592]	; 0xa20
 8001b68:	2a01      	cmp	r2, #1
 8001b6a:	f000 8372 	beq.w	8002252 <HAL_PCD_IRQHandler+0x98a>
 8001b6e:	2b0a      	cmp	r3, #10
 8001b70:	d937      	bls.n	8001be2 <HAL_PCD_IRQHandler+0x31a>
 8001b72:	f894 21a8 	ldrb.w	r2, [r4, #424]	; 0x1a8
 8001b76:	f8d5 1a40 	ldr.w	r1, [r5, #2624]	; 0xa40
 8001b7a:	2a01      	cmp	r2, #1
 8001b7c:	f000 8386 	beq.w	800228c <HAL_PCD_IRQHandler+0x9c4>
 8001b80:	2b0b      	cmp	r3, #11
 8001b82:	d92e      	bls.n	8001be2 <HAL_PCD_IRQHandler+0x31a>
 8001b84:	f894 21cc 	ldrb.w	r2, [r4, #460]	; 0x1cc
 8001b88:	f8d5 1a60 	ldr.w	r1, [r5, #2656]	; 0xa60
 8001b8c:	2a01      	cmp	r2, #1
 8001b8e:	f000 839b 	beq.w	80022c8 <HAL_PCD_IRQHandler+0xa00>
 8001b92:	2b0c      	cmp	r3, #12
 8001b94:	d925      	bls.n	8001be2 <HAL_PCD_IRQHandler+0x31a>
 8001b96:	f894 21f0 	ldrb.w	r2, [r4, #496]	; 0x1f0
 8001b9a:	f8d5 1a80 	ldr.w	r1, [r5, #2688]	; 0xa80
 8001b9e:	2a01      	cmp	r2, #1
 8001ba0:	f000 83a6 	beq.w	80022f0 <HAL_PCD_IRQHandler+0xa28>
 8001ba4:	2b0d      	cmp	r3, #13
 8001ba6:	d91c      	bls.n	8001be2 <HAL_PCD_IRQHandler+0x31a>
 8001ba8:	f894 2214 	ldrb.w	r2, [r4, #532]	; 0x214
 8001bac:	f8d5 1aa0 	ldr.w	r1, [r5, #2720]	; 0xaa0
 8001bb0:	2a01      	cmp	r2, #1
 8001bb2:	f000 83b1 	beq.w	8002318 <HAL_PCD_IRQHandler+0xa50>
 8001bb6:	2b0e      	cmp	r3, #14
 8001bb8:	d913      	bls.n	8001be2 <HAL_PCD_IRQHandler+0x31a>
 8001bba:	f894 2238 	ldrb.w	r2, [r4, #568]	; 0x238
 8001bbe:	f8d5 1ac0 	ldr.w	r1, [r5, #2752]	; 0xac0
 8001bc2:	2a01      	cmp	r2, #1
 8001bc4:	f000 83bc 	beq.w	8002340 <HAL_PCD_IRQHandler+0xa78>
 8001bc8:	2b0f      	cmp	r3, #15
 8001bca:	d90a      	bls.n	8001be2 <HAL_PCD_IRQHandler+0x31a>
 8001bcc:	f894 225c 	ldrb.w	r2, [r4, #604]	; 0x25c
 8001bd0:	f8d5 1ae0 	ldr.w	r1, [r5, #2784]	; 0xae0
 8001bd4:	2a01      	cmp	r2, #1
 8001bd6:	f000 83c7 	beq.w	8002368 <HAL_PCD_IRQHandler+0xaa0>
 8001bda:	2b10      	cmp	r3, #16
 8001bdc:	d901      	bls.n	8001be2 <HAL_PCD_IRQHandler+0x31a>
 8001bde:	f8d5 3b00 	ldr.w	r3, [r5, #2816]	; 0xb00
 8001be2:	6820      	ldr	r0, [r4, #0]
 8001be4:	6943      	ldr	r3, [r0, #20]
 8001be6:	f403 1380 	and.w	r3, r3, #1048576	; 0x100000
 8001bea:	6143      	str	r3, [r0, #20]
 8001bec:	f004 f9da 	bl	8005fa4 <USB_ReadInterrupts>
 8001bf0:	0287      	lsls	r7, r0, #10
 8001bf2:	d421      	bmi.n	8001c38 <HAL_PCD_IRQHandler+0x370>
 8001bf4:	6820      	ldr	r0, [r4, #0]
 8001bf6:	f004 f9d5 	bl	8005fa4 <USB_ReadInterrupts>
 8001bfa:	0040      	lsls	r0, r0, #1
 8001bfc:	f100 80c7 	bmi.w	8001d8e <HAL_PCD_IRQHandler+0x4c6>
 8001c00:	6820      	ldr	r0, [r4, #0]
 8001c02:	f004 f9cf 	bl	8005fa4 <USB_ReadInterrupts>
 8001c06:	0741      	lsls	r1, r0, #29
 8001c08:	f57f ae67 	bpl.w	80018da <HAL_PCD_IRQHandler+0x12>
 8001c0c:	6823      	ldr	r3, [r4, #0]
 8001c0e:	685d      	ldr	r5, [r3, #4]
 8001c10:	076a      	lsls	r2, r5, #29
 8001c12:	f100 829b 	bmi.w	800214c <HAL_PCD_IRQHandler+0x884>
 8001c16:	685a      	ldr	r2, [r3, #4]
 8001c18:	432a      	orrs	r2, r5
 8001c1a:	605a      	str	r2, [r3, #4]
 8001c1c:	e65d      	b.n	80018da <HAL_PCD_IRQHandler+0x12>
 8001c1e:	6820      	ldr	r0, [r4, #0]
 8001c20:	e7e4      	b.n	8001bec <HAL_PCD_IRQHandler+0x324>
 8001c22:	9b03      	ldr	r3, [sp, #12]
 8001c24:	689b      	ldr	r3, [r3, #8]
 8001c26:	07df      	lsls	r7, r3, #31
 8001c28:	f100 828c 	bmi.w	8002144 <HAL_PCD_IRQHandler+0x87c>
 8001c2c:	6820      	ldr	r0, [r4, #0]
 8001c2e:	6943      	ldr	r3, [r0, #20]
 8001c30:	f403 6300 	and.w	r3, r3, #2048	; 0x800
 8001c34:	6143      	str	r3, [r0, #20]
 8001c36:	e69e      	b.n	8001976 <HAL_PCD_IRQHandler+0xae>
 8001c38:	f8d4 c004 	ldr.w	ip, [r4, #4]
 8001c3c:	f1bc 0f01 	cmp.w	ip, #1
 8001c40:	d928      	bls.n	8001c94 <HAL_PCD_IRQHandler+0x3cc>
 8001c42:	4623      	mov	r3, r4
 8001c44:	2101      	movs	r1, #1
 8001c46:	f505 6232 	add.w	r2, r5, #2848	; 0xb20
 8001c4a:	e006      	b.n	8001c5a <HAL_PCD_IRQHandler+0x392>
 8001c4c:	3101      	adds	r1, #1
 8001c4e:	4561      	cmp	r1, ip
 8001c50:	f102 0220 	add.w	r2, r2, #32
 8001c54:	f103 0324 	add.w	r3, r3, #36	; 0x24
 8001c58:	d01c      	beq.n	8001c94 <HAL_PCD_IRQHandler+0x3cc>
 8001c5a:	f893 02a4 	ldrb.w	r0, [r3, #676]	; 0x2a4
 8001c5e:	6816      	ldr	r6, [r2, #0]
 8001c60:	2801      	cmp	r0, #1
 8001c62:	d1f3      	bne.n	8001c4c <HAL_PCD_IRQHandler+0x384>
 8001c64:	2e00      	cmp	r6, #0
 8001c66:	daf1      	bge.n	8001c4c <HAL_PCD_IRQHandler+0x384>
 8001c68:	f8d4 74fc 	ldr.w	r7, [r4, #1276]	; 0x4fc
 8001c6c:	f406 3680 	and.w	r6, r6, #65536	; 0x10000
 8001c70:	f007 0701 	and.w	r7, r7, #1
 8001c74:	42be      	cmp	r6, r7
 8001c76:	d1e9      	bne.n	8001c4c <HAL_PCD_IRQHandler+0x384>
 8001c78:	f883 02a3 	strb.w	r0, [r3, #675]	; 0x2a3
 8001c7c:	69a8      	ldr	r0, [r5, #24]
 8001c7e:	f040 0080 	orr.w	r0, r0, #128	; 0x80
 8001c82:	61a8      	str	r0, [r5, #24]
 8001c84:	6968      	ldr	r0, [r5, #20]
 8001c86:	0606      	lsls	r6, r0, #24
 8001c88:	d4e0      	bmi.n	8001c4c <HAL_PCD_IRQHandler+0x384>
 8001c8a:	9a03      	ldr	r2, [sp, #12]
 8001c8c:	6853      	ldr	r3, [r2, #4]
 8001c8e:	f443 7300 	orr.w	r3, r3, #512	; 0x200
 8001c92:	6053      	str	r3, [r2, #4]
 8001c94:	6820      	ldr	r0, [r4, #0]
 8001c96:	6943      	ldr	r3, [r0, #20]
 8001c98:	f403 1300 	and.w	r3, r3, #2097152	; 0x200000
 8001c9c:	6143      	str	r3, [r0, #20]
 8001c9e:	e7aa      	b.n	8001bf6 <HAL_PCD_IRQHandler+0x32e>
 8001ca0:	9a03      	ldr	r2, [sp, #12]
 8001ca2:	6853      	ldr	r3, [r2, #4]
 8001ca4:	f023 0301 	bic.w	r3, r3, #1
 8001ca8:	6053      	str	r3, [r2, #4]
 8001caa:	f894 34f4 	ldrb.w	r3, [r4, #1268]	; 0x4f4
 8001cae:	2b01      	cmp	r3, #1
 8001cb0:	f000 8138 	beq.w	8001f24 <HAL_PCD_IRQHandler+0x65c>
 8001cb4:	4620      	mov	r0, r4
 8001cb6:	f7ff fdfd 	bl	80018b4 <HAL_PCD_ResumeCallback>
 8001cba:	6820      	ldr	r0, [r4, #0]
 8001cbc:	6943      	ldr	r3, [r0, #20]
 8001cbe:	f003 4300 	and.w	r3, r3, #2147483648	; 0x80000000
 8001cc2:	6143      	str	r3, [r0, #20]
 8001cc4:	e651      	b.n	800196a <HAL_PCD_IRQHandler+0xa2>
 8001cc6:	f004 f99f 	bl	8006008 <USB_ActivateSetup>
 8001cca:	6820      	ldr	r0, [r4, #0]
 8001ccc:	f004 f8cc 	bl	8005e68 <USB_GetDevSpeed>
 8001cd0:	60e0      	str	r0, [r4, #12]
 8001cd2:	6826      	ldr	r6, [r4, #0]
 8001cd4:	f001 fb9c 	bl	8003410 <HAL_RCC_GetHCLKFreq>
 8001cd8:	7b22      	ldrb	r2, [r4, #12]
 8001cda:	4601      	mov	r1, r0
 8001cdc:	4630      	mov	r0, r6
 8001cde:	f003 fedf 	bl	8005aa0 <USB_SetTurnaroundTime>
 8001ce2:	4620      	mov	r0, r4
 8001ce4:	f7ff fde2 	bl	80018ac <HAL_PCD_ResetCallback>
 8001ce8:	6820      	ldr	r0, [r4, #0]
 8001cea:	6943      	ldr	r3, [r0, #20]
 8001cec:	f403 5300 	and.w	r3, r3, #8192	; 0x2000
 8001cf0:	6143      	str	r3, [r0, #20]
 8001cf2:	e667      	b.n	80019c4 <HAL_PCD_IRQHandler+0xfc>
 8001cf4:	9a03      	ldr	r2, [sp, #12]
 8001cf6:	2110      	movs	r1, #16
 8001cf8:	6853      	ldr	r3, [r2, #4]
 8001cfa:	6820      	ldr	r0, [r4, #0]
 8001cfc:	f023 0301 	bic.w	r3, r3, #1
 8001d00:	6053      	str	r3, [r2, #4]
 8001d02:	f004 f887 	bl	8005e14 <USB_FlushTxFifo>
 8001d06:	6860      	ldr	r0, [r4, #4]
 8001d08:	b1e0      	cbz	r0, 8001d44 <HAL_PCD_IRQHandler+0x47c>
 8001d0a:	f64f 317f 	movw	r1, #64383	; 0xfb7f
 8001d0e:	f505 6310 	add.w	r3, r5, #2304	; 0x900
 8001d12:	6099      	str	r1, [r3, #8]
 8001d14:	681a      	ldr	r2, [r3, #0]
 8001d16:	f10b 0b01 	add.w	fp, fp, #1
 8001d1a:	f422 1200 	bic.w	r2, r2, #2097152	; 0x200000
 8001d1e:	601a      	str	r2, [r3, #0]
 8001d20:	f8c3 1208 	str.w	r1, [r3, #520]	; 0x208
 8001d24:	f8d3 2200 	ldr.w	r2, [r3, #512]	; 0x200
 8001d28:	4583      	cmp	fp, r0
 8001d2a:	f422 1200 	bic.w	r2, r2, #2097152	; 0x200000
 8001d2e:	f8c3 2200 	str.w	r2, [r3, #512]	; 0x200
 8001d32:	f8d3 2200 	ldr.w	r2, [r3, #512]	; 0x200
 8001d36:	f103 0320 	add.w	r3, r3, #32
 8001d3a:	f042 6200 	orr.w	r2, r2, #134217728	; 0x8000000
 8001d3e:	f8c3 21e0 	str.w	r2, [r3, #480]	; 0x1e0
 8001d42:	d1e6      	bne.n	8001d12 <HAL_PCD_IRQHandler+0x44a>
 8001d44:	9903      	ldr	r1, [sp, #12]
 8001d46:	6b22      	ldr	r2, [r4, #48]	; 0x30
 8001d48:	69cb      	ldr	r3, [r1, #28]
 8001d4a:	f043 1301 	orr.w	r3, r3, #65537	; 0x10001
 8001d4e:	61cb      	str	r3, [r1, #28]
 8001d50:	2a00      	cmp	r2, #0
 8001d52:	f040 80d0 	bne.w	8001ef6 <HAL_PCD_IRQHandler+0x62e>
 8001d56:	694b      	ldr	r3, [r1, #20]
 8001d58:	f443 5300 	orr.w	r3, r3, #8192	; 0x2000
 8001d5c:	f043 032b 	orr.w	r3, r3, #43	; 0x2b
 8001d60:	614b      	str	r3, [r1, #20]
 8001d62:	690b      	ldr	r3, [r1, #16]
 8001d64:	f043 030b 	orr.w	r3, r3, #11
 8001d68:	610b      	str	r3, [r1, #16]
 8001d6a:	f8d5 3800 	ldr.w	r3, [r5, #2048]	; 0x800
 8001d6e:	7c21      	ldrb	r1, [r4, #16]
 8001d70:	f423 63fe 	bic.w	r3, r3, #2032	; 0x7f0
 8001d74:	f8c5 3800 	str.w	r3, [r5, #2048]	; 0x800
 8001d78:	6820      	ldr	r0, [r4, #0]
 8001d7a:	f204 42c4 	addw	r2, r4, #1220	; 0x4c4
 8001d7e:	f004 f955 	bl	800602c <USB_EP0_OutStart>
 8001d82:	6820      	ldr	r0, [r4, #0]
 8001d84:	6943      	ldr	r3, [r0, #20]
 8001d86:	f403 5380 	and.w	r3, r3, #4096	; 0x1000
 8001d8a:	6143      	str	r3, [r0, #20]
 8001d8c:	e613      	b.n	80019b6 <HAL_PCD_IRQHandler+0xee>
 8001d8e:	4620      	mov	r0, r4
 8001d90:	f7ff fd96 	bl	80018c0 <HAL_PCD_ConnectCallback>
 8001d94:	6820      	ldr	r0, [r4, #0]
 8001d96:	6943      	ldr	r3, [r0, #20]
 8001d98:	f003 4380 	and.w	r3, r3, #1073741824	; 0x40000000
 8001d9c:	6143      	str	r3, [r0, #20]
 8001d9e:	e730      	b.n	8001c02 <HAL_PCD_IRQHandler+0x33a>
 8001da0:	4620      	mov	r0, r4
 8001da2:	f7ff fd81 	bl	80018a8 <HAL_PCD_SOFCallback>
 8001da6:	6820      	ldr	r0, [r4, #0]
 8001da8:	6943      	ldr	r3, [r0, #20]
 8001daa:	f003 0308 	and.w	r3, r3, #8
 8001dae:	6143      	str	r3, [r0, #20]
 8001db0:	e60e      	b.n	80019d0 <HAL_PCD_IRQHandler+0x108>
 8001db2:	6820      	ldr	r0, [r4, #0]
 8001db4:	f004 f902 	bl	8005fbc <USB_ReadDevAllInEpInterrupt>
 8001db8:	4680      	mov	r8, r0
 8001dba:	2800      	cmp	r0, #0
 8001dbc:	f43f adce 	beq.w	800195c <HAL_PCD_IRQHandler+0x94>
 8001dc0:	f04f 0a00 	mov.w	sl, #0
 8001dc4:	4627      	mov	r7, r4
 8001dc6:	4656      	mov	r6, sl
 8001dc8:	6820      	ldr	r0, [r4, #0]
 8001dca:	f505 6910 	add.w	r9, r5, #2304	; 0x900
 8001dce:	9504      	str	r5, [sp, #16]
 8001dd0:	f8cd b014 	str.w	fp, [sp, #20]
 8001dd4:	e009      	b.n	8001dea <HAL_PCD_IRQHandler+0x522>
 8001dd6:	ea5f 0858 	movs.w	r8, r8, lsr #1
 8001dda:	f106 0601 	add.w	r6, r6, #1
 8001dde:	f107 0724 	add.w	r7, r7, #36	; 0x24
 8001de2:	f109 0920 	add.w	r9, r9, #32
 8001de6:	f000 80ec 	beq.w	8001fc2 <HAL_PCD_IRQHandler+0x6fa>
 8001dea:	f018 0f01 	tst.w	r8, #1
 8001dee:	d0f2      	beq.n	8001dd6 <HAL_PCD_IRQHandler+0x50e>
 8001df0:	fa5f fa86 	uxtb.w	sl, r6
 8001df4:	4651      	mov	r1, sl
 8001df6:	f004 f8f3 	bl	8005fe0 <USB_ReadDevInEPInterrupt>
 8001dfa:	07c1      	lsls	r1, r0, #31
 8001dfc:	4605      	mov	r5, r0
 8001dfe:	d513      	bpl.n	8001e28 <HAL_PCD_IRQHandler+0x560>
 8001e00:	2001      	movs	r0, #1
 8001e02:	9903      	ldr	r1, [sp, #12]
 8001e04:	f006 020f 	and.w	r2, r6, #15
 8001e08:	6b4b      	ldr	r3, [r1, #52]	; 0x34
 8001e0a:	fa00 f202 	lsl.w	r2, r0, r2
 8001e0e:	ea23 0302 	bic.w	r3, r3, r2
 8001e12:	634b      	str	r3, [r1, #52]	; 0x34
 8001e14:	6921      	ldr	r1, [r4, #16]
 8001e16:	f8c9 0008 	str.w	r0, [r9, #8]
 8001e1a:	4281      	cmp	r1, r0
 8001e1c:	f000 819b 	beq.w	8002156 <HAL_PCD_IRQHandler+0x88e>
 8001e20:	4651      	mov	r1, sl
 8001e22:	4620      	mov	r0, r4
 8001e24:	f7ff fd3c 	bl	80018a0 <HAL_PCD_DataInStageCallback>
 8001e28:	072a      	lsls	r2, r5, #28
 8001e2a:	bf44      	itt	mi
 8001e2c:	2308      	movmi	r3, #8
 8001e2e:	f8c9 3008 	strmi.w	r3, [r9, #8]
 8001e32:	06eb      	lsls	r3, r5, #27
 8001e34:	bf44      	itt	mi
 8001e36:	2310      	movmi	r3, #16
 8001e38:	f8c9 3008 	strmi.w	r3, [r9, #8]
 8001e3c:	0668      	lsls	r0, r5, #25
 8001e3e:	bf44      	itt	mi
 8001e40:	2340      	movmi	r3, #64	; 0x40
 8001e42:	f8c9 3008 	strmi.w	r3, [r9, #8]
 8001e46:	07a9      	lsls	r1, r5, #30
 8001e48:	f100 8150 	bmi.w	80020ec <HAL_PCD_IRQHandler+0x824>
 8001e4c:	062a      	lsls	r2, r5, #24
 8001e4e:	f100 80f9 	bmi.w	8002044 <HAL_PCD_IRQHandler+0x77c>
 8001e52:	6820      	ldr	r0, [r4, #0]
 8001e54:	e7bf      	b.n	8001dd6 <HAL_PCD_IRQHandler+0x50e>
 8001e56:	6820      	ldr	r0, [r4, #0]
 8001e58:	f004 f8a8 	bl	8005fac <USB_ReadDevAllOutEpInterrupt>
 8001e5c:	4606      	mov	r6, r0
 8001e5e:	2800      	cmp	r0, #0
 8001e60:	f43f ad76 	beq.w	8001950 <HAL_PCD_IRQHandler+0x88>
 8001e64:	46a2      	mov	sl, r4
 8001e66:	f04f 0900 	mov.w	r9, #0
 8001e6a:	f505 6730 	add.w	r7, r5, #2816	; 0xb00
 8001e6e:	f8cd b010 	str.w	fp, [sp, #16]
 8001e72:	e008      	b.n	8001e86 <HAL_PCD_IRQHandler+0x5be>
 8001e74:	0876      	lsrs	r6, r6, #1
 8001e76:	f109 0901 	add.w	r9, r9, #1
 8001e7a:	f107 0720 	add.w	r7, r7, #32
 8001e7e:	f10a 0a24 	add.w	sl, sl, #36	; 0x24
 8001e82:	f000 809b 	beq.w	8001fbc <HAL_PCD_IRQHandler+0x6f4>
 8001e86:	07f0      	lsls	r0, r6, #31
 8001e88:	d5f4      	bpl.n	8001e74 <HAL_PCD_IRQHandler+0x5ac>
 8001e8a:	fa5f fb89 	uxtb.w	fp, r9
 8001e8e:	4659      	mov	r1, fp
 8001e90:	6820      	ldr	r0, [r4, #0]
 8001e92:	f004 f89b 	bl	8005fcc <USB_ReadDevOutEPInterrupt>
 8001e96:	f010 0f01 	tst.w	r0, #1
 8001e9a:	4680      	mov	r8, r0
 8001e9c:	f040 80b3 	bne.w	8002006 <HAL_PCD_IRQHandler+0x73e>
 8001ea0:	f018 0f08 	tst.w	r8, #8
 8001ea4:	f040 8090 	bne.w	8001fc8 <HAL_PCD_IRQHandler+0x700>
 8001ea8:	f018 0f10 	tst.w	r8, #16
 8001eac:	bf1c      	itt	ne
 8001eae:	2210      	movne	r2, #16
 8001eb0:	60ba      	strne	r2, [r7, #8]
 8001eb2:	f018 0f02 	tst.w	r8, #2
 8001eb6:	d00e      	beq.n	8001ed6 <HAL_PCD_IRQHandler+0x60e>
 8001eb8:	696a      	ldr	r2, [r5, #20]
 8001eba:	0610      	lsls	r0, r2, #24
 8001ebc:	d504      	bpl.n	8001ec8 <HAL_PCD_IRQHandler+0x600>
 8001ebe:	9b03      	ldr	r3, [sp, #12]
 8001ec0:	685a      	ldr	r2, [r3, #4]
 8001ec2:	f442 6280 	orr.w	r2, r2, #1024	; 0x400
 8001ec6:	605a      	str	r2, [r3, #4]
 8001ec8:	f89a 227f 	ldrb.w	r2, [sl, #639]	; 0x27f
 8001ecc:	2a01      	cmp	r2, #1
 8001ece:	f000 8184 	beq.w	80021da <HAL_PCD_IRQHandler+0x912>
 8001ed2:	2302      	movs	r3, #2
 8001ed4:	60bb      	str	r3, [r7, #8]
 8001ed6:	f018 0f20 	tst.w	r8, #32
 8001eda:	bf1c      	itt	ne
 8001edc:	2320      	movne	r3, #32
 8001ede:	60bb      	strne	r3, [r7, #8]
 8001ee0:	f418 5f00 	tst.w	r8, #8192	; 0x2000
 8001ee4:	bf1c      	itt	ne
 8001ee6:	f44f 5300 	movne.w	r3, #8192	; 0x2000
 8001eea:	60bb      	strne	r3, [r7, #8]
 8001eec:	e7c2      	b.n	8001e74 <HAL_PCD_IRQHandler+0x5ac>
 8001eee:	4620      	mov	r0, r4
 8001ef0:	f7ff fcde 	bl	80018b0 <HAL_PCD_SuspendCallback>
 8001ef4:	e558      	b.n	80019a8 <HAL_PCD_IRQHandler+0xe0>
 8001ef6:	f8d1 3084 	ldr.w	r3, [r1, #132]	; 0x84
 8001efa:	f043 030b 	orr.w	r3, r3, #11
 8001efe:	f8c1 3084 	str.w	r3, [r1, #132]	; 0x84
 8001f02:	6c4b      	ldr	r3, [r1, #68]	; 0x44
 8001f04:	f043 030b 	orr.w	r3, r3, #11
 8001f08:	644b      	str	r3, [r1, #68]	; 0x44
 8001f0a:	e72e      	b.n	8001d6a <HAL_PCD_IRQHandler+0x4a2>
 8001f0c:	2900      	cmp	r1, #0
 8001f0e:	f6bf ade6 	bge.w	8001ade <HAL_PCD_IRQHandler+0x216>
 8001f12:	4621      	mov	r1, r4
 8001f14:	f884 2063 	strb.w	r2, [r4, #99]	; 0x63
 8001f18:	f851 0b60 	ldr.w	r0, [r1], #96
 8001f1c:	f003 ffb0 	bl	8005e80 <USB_EPStopXfer>
 8001f20:	6863      	ldr	r3, [r4, #4]
 8001f22:	e5dc      	b.n	8001ade <HAL_PCD_IRQHandler+0x216>
 8001f24:	2100      	movs	r1, #0
 8001f26:	4620      	mov	r0, r4
 8001f28:	f884 14f4 	strb.w	r1, [r4, #1268]	; 0x4f4
 8001f2c:	f000 fa8e 	bl	800244c <HAL_PCDEx_LPM_Callback>
 8001f30:	e6c3      	b.n	8001cba <HAL_PCD_IRQHandler+0x3f2>
 8001f32:	2900      	cmp	r1, #0
 8001f34:	f6bf addc 	bge.w	8001af0 <HAL_PCD_IRQHandler+0x228>
 8001f38:	4621      	mov	r1, r4
 8001f3a:	f884 2087 	strb.w	r2, [r4, #135]	; 0x87
 8001f3e:	f851 0b84 	ldr.w	r0, [r1], #132
 8001f42:	f003 ff9d 	bl	8005e80 <USB_EPStopXfer>
 8001f46:	6863      	ldr	r3, [r4, #4]
 8001f48:	e5d2      	b.n	8001af0 <HAL_PCD_IRQHandler+0x228>
 8001f4a:	2900      	cmp	r1, #0
 8001f4c:	f6bf add9 	bge.w	8001b02 <HAL_PCD_IRQHandler+0x23a>
 8001f50:	4621      	mov	r1, r4
 8001f52:	f884 20ab 	strb.w	r2, [r4, #171]	; 0xab
 8001f56:	f851 0ba8 	ldr.w	r0, [r1], #168
 8001f5a:	f003 ff91 	bl	8005e80 <USB_EPStopXfer>
 8001f5e:	6863      	ldr	r3, [r4, #4]
 8001f60:	e5cf      	b.n	8001b02 <HAL_PCD_IRQHandler+0x23a>
 8001f62:	2900      	cmp	r1, #0
 8001f64:	f6bf add6 	bge.w	8001b14 <HAL_PCD_IRQHandler+0x24c>
 8001f68:	4621      	mov	r1, r4
 8001f6a:	f884 20cf 	strb.w	r2, [r4, #207]	; 0xcf
 8001f6e:	f851 0bcc 	ldr.w	r0, [r1], #204
 8001f72:	f003 ff85 	bl	8005e80 <USB_EPStopXfer>
 8001f76:	6863      	ldr	r3, [r4, #4]
 8001f78:	e5cc      	b.n	8001b14 <HAL_PCD_IRQHandler+0x24c>
 8001f7a:	6820      	ldr	r0, [r4, #0]
 8001f7c:	f504 713a 	add.w	r1, r4, #744	; 0x2e8
 8001f80:	f003 ff7e 	bl	8005e80 <USB_EPStopXfer>
 8001f84:	6863      	ldr	r3, [r4, #4]
 8001f86:	e541      	b.n	8001a0c <HAL_PCD_IRQHandler+0x144>
 8001f88:	2208      	movs	r2, #8
 8001f8a:	f204 41c4 	addw	r1, r4, #1220	; 0x4c4
 8001f8e:	4628      	mov	r0, r5
 8001f90:	eb07 07c7 	add.w	r7, r7, r7, lsl #3
 8001f94:	f003 ffce 	bl	8005f34 <USB_ReadPacket>
 8001f98:	eb04 0287 	add.w	r2, r4, r7, lsl #2
 8001f9c:	f8d2 129c 	ldr.w	r1, [r2, #668]	; 0x29c
 8001fa0:	f3c6 130a 	ubfx	r3, r6, #4, #11
 8001fa4:	440b      	add	r3, r1
 8001fa6:	6820      	ldr	r0, [r4, #0]
 8001fa8:	f8c2 329c 	str.w	r3, [r2, #668]	; 0x29c
 8001fac:	e4c7      	b.n	800193e <HAL_PCD_IRQHandler+0x76>
 8001fae:	6820      	ldr	r0, [r4, #0]
 8001fb0:	f504 7143 	add.w	r1, r4, #780	; 0x30c
 8001fb4:	f003 ff64 	bl	8005e80 <USB_EPStopXfer>
 8001fb8:	6863      	ldr	r3, [r4, #4]
 8001fba:	e52e      	b.n	8001a1a <HAL_PCD_IRQHandler+0x152>
 8001fbc:	f8dd b010 	ldr.w	fp, [sp, #16]
 8001fc0:	e4c6      	b.n	8001950 <HAL_PCD_IRQHandler+0x88>
 8001fc2:	e9dd 5b04 	ldrd	r5, fp, [sp, #16]
 8001fc6:	e4ca      	b.n	800195e <HAL_PCD_IRQHandler+0x96>
 8001fc8:	2208      	movs	r2, #8
 8001fca:	60ba      	str	r2, [r7, #8]
 8001fcc:	6822      	ldr	r2, [r4, #0]
 8001fce:	4bbc      	ldr	r3, [pc, #752]	; (80022c0 <HAL_PCD_IRQHandler+0x9f8>)
 8001fd0:	6c11      	ldr	r1, [r2, #64]	; 0x40
 8001fd2:	f502 6230 	add.w	r2, r2, #2816	; 0xb00
 8001fd6:	eb02 1249 	add.w	r2, r2, r9, lsl #5
 8001fda:	4299      	cmp	r1, r3
 8001fdc:	6890      	ldr	r0, [r2, #8]
 8001fde:	f240 80cb 	bls.w	8002178 <HAL_PCD_IRQHandler+0x8b0>
 8001fe2:	0403      	lsls	r3, r0, #16
 8001fe4:	d502      	bpl.n	8001fec <HAL_PCD_IRQHandler+0x724>
 8001fe6:	f44f 4100 	mov.w	r1, #32768	; 0x8000
 8001fea:	6091      	str	r1, [r2, #8]
 8001fec:	4620      	mov	r0, r4
 8001fee:	f7ff fc59 	bl	80018a4 <HAL_PCD_SetupStageCallback>
 8001ff2:	6921      	ldr	r1, [r4, #16]
 8001ff4:	2901      	cmp	r1, #1
 8001ff6:	f47f af57 	bne.w	8001ea8 <HAL_PCD_IRQHandler+0x5e0>
 8001ffa:	6820      	ldr	r0, [r4, #0]
 8001ffc:	f204 42c4 	addw	r2, r4, #1220	; 0x4c4
 8002000:	f004 f814 	bl	800602c <USB_EP0_OutStart>
 8002004:	e750      	b.n	8001ea8 <HAL_PCD_IRQHandler+0x5e0>
 8002006:	2201      	movs	r2, #1
 8002008:	6820      	ldr	r0, [r4, #0]
 800200a:	6921      	ldr	r1, [r4, #16]
 800200c:	60ba      	str	r2, [r7, #8]
 800200e:	f500 6230 	add.w	r2, r0, #2816	; 0xb00
 8002012:	eb02 1249 	add.w	r2, r2, r9, lsl #5
 8002016:	2901      	cmp	r1, #1
 8002018:	f8d0 c040 	ldr.w	ip, [r0, #64]	; 0x40
 800201c:	6893      	ldr	r3, [r2, #8]
 800201e:	f000 80af 	beq.w	8002180 <HAL_PCD_IRQHandler+0x8b8>
 8002022:	49a8      	ldr	r1, [pc, #672]	; (80022c4 <HAL_PCD_IRQHandler+0x9fc>)
 8002024:	458c      	cmp	ip, r1
 8002026:	f000 810c 	beq.w	8002242 <HAL_PCD_IRQHandler+0x97a>
 800202a:	f1b9 0f00 	cmp.w	r9, #0
 800202e:	d104      	bne.n	800203a <HAL_PCD_IRQHandler+0x772>
 8002030:	f8d4 2294 	ldr.w	r2, [r4, #660]	; 0x294
 8002034:	2a00      	cmp	r2, #0
 8002036:	f000 81da 	beq.w	80023ee <HAL_PCD_IRQHandler+0xb26>
 800203a:	4659      	mov	r1, fp
 800203c:	4620      	mov	r0, r4
 800203e:	f7ff fc2d 	bl	800189c <HAL_PCD_DataOutStageCallback>
 8002042:	e72d      	b.n	8001ea0 <HAL_PCD_IRQHandler+0x5d8>
 8002044:	6dfb      	ldr	r3, [r7, #92]	; 0x5c
 8002046:	6d7d      	ldr	r5, [r7, #84]	; 0x54
 8002048:	f8d4 b000 	ldr.w	fp, [r4]
 800204c:	42ab      	cmp	r3, r5
 800204e:	4658      	mov	r0, fp
 8002050:	f63f aec1 	bhi.w	8001dd6 <HAL_PCD_IRQHandler+0x50e>
 8002054:	6cba      	ldr	r2, [r7, #72]	; 0x48
 8002056:	1ae9      	subs	r1, r5, r3
 8002058:	4291      	cmp	r1, r2
 800205a:	bf28      	it	cs
 800205c:	4611      	movcs	r1, r2
 800205e:	f50b 6210 	add.w	r2, fp, #2304	; 0x900
 8002062:	eb02 1246 	add.w	r2, r2, r6, lsl #5
 8002066:	4694      	mov	ip, r2
 8002068:	6992      	ldr	r2, [r2, #24]
 800206a:	3103      	adds	r1, #3
 800206c:	b292      	uxth	r2, r2
 800206e:	ebb2 0f91 	cmp.w	r2, r1, lsr #2
 8002072:	f8cd b01c 	str.w	fp, [sp, #28]
 8002076:	f0c0 8099 	bcc.w	80021ac <HAL_PCD_IRQHandler+0x8e4>
 800207a:	4652      	mov	r2, sl
 800207c:	9606      	str	r6, [sp, #24]
 800207e:	46ca      	mov	sl, r9
 8002080:	4626      	mov	r6, r4
 8002082:	46c1      	mov	r9, r8
 8002084:	4664      	mov	r4, ip
 8002086:	4690      	mov	r8, r2
 8002088:	e019      	b.n	80020be <HAL_PCD_IRQHandler+0x7f6>
 800208a:	1aed      	subs	r5, r5, r3
 800208c:	6cbb      	ldr	r3, [r7, #72]	; 0x48
 800208e:	6cf9      	ldr	r1, [r7, #76]	; 0x4c
 8002090:	429d      	cmp	r5, r3
 8002092:	bf28      	it	cs
 8002094:	461d      	movcs	r5, r3
 8002096:	7c33      	ldrb	r3, [r6, #16]
 8002098:	4642      	mov	r2, r8
 800209a:	9300      	str	r3, [sp, #0]
 800209c:	4658      	mov	r0, fp
 800209e:	b2ab      	uxth	r3, r5
 80020a0:	f003 ff32 	bl	8005f08 <USB_WritePacket>
 80020a4:	6cfb      	ldr	r3, [r7, #76]	; 0x4c
 80020a6:	69a1      	ldr	r1, [r4, #24]
 80020a8:	442b      	add	r3, r5
 80020aa:	64fb      	str	r3, [r7, #76]	; 0x4c
 80020ac:	6dfb      	ldr	r3, [r7, #92]	; 0x5c
 80020ae:	b289      	uxth	r1, r1
 80020b0:	442b      	add	r3, r5
 80020b2:	3503      	adds	r5, #3
 80020b4:	ebb1 0f95 	cmp.w	r1, r5, lsr #2
 80020b8:	65fb      	str	r3, [r7, #92]	; 0x5c
 80020ba:	d36f      	bcc.n	800219c <HAL_PCD_IRQHandler+0x8d4>
 80020bc:	6d7d      	ldr	r5, [r7, #84]	; 0x54
 80020be:	429d      	cmp	r5, r3
 80020c0:	d8e3      	bhi.n	800208a <HAL_PCD_IRQHandler+0x7c2>
 80020c2:	4634      	mov	r4, r6
 80020c4:	46c8      	mov	r8, r9
 80020c6:	46d1      	mov	r9, sl
 80020c8:	9e06      	ldr	r6, [sp, #24]
 80020ca:	f8d4 b000 	ldr.w	fp, [r4]
 80020ce:	2501      	movs	r5, #1
 80020d0:	9b07      	ldr	r3, [sp, #28]
 80020d2:	f006 020f 	and.w	r2, r6, #15
 80020d6:	f503 6100 	add.w	r1, r3, #2048	; 0x800
 80020da:	f8d3 3834 	ldr.w	r3, [r3, #2100]	; 0x834
 80020de:	fa05 f202 	lsl.w	r2, r5, r2
 80020e2:	ea23 0302 	bic.w	r3, r3, r2
 80020e6:	4658      	mov	r0, fp
 80020e8:	634b      	str	r3, [r1, #52]	; 0x34
 80020ea:	e674      	b.n	8001dd6 <HAL_PCD_IRQHandler+0x50e>
 80020ec:	4631      	mov	r1, r6
 80020ee:	9804      	ldr	r0, [sp, #16]
 80020f0:	f003 fe90 	bl	8005e14 <USB_FlushTxFifo>
 80020f4:	f897 303f 	ldrb.w	r3, [r7, #63]	; 0x3f
 80020f8:	2b01      	cmp	r3, #1
 80020fa:	f000 80b6 	beq.w	800226a <HAL_PCD_IRQHandler+0x9a2>
 80020fe:	2302      	movs	r3, #2
 8002100:	f8c9 3008 	str.w	r3, [r9, #8]
 8002104:	e6a2      	b.n	8001e4c <HAL_PCD_IRQHandler+0x584>
 8002106:	f647 73f0 	movw	r3, #32752	; 0x7ff0
 800210a:	421e      	tst	r6, r3
 800210c:	f43f ac17 	beq.w	800193e <HAL_PCD_IRQHandler+0x76>
 8002110:	eb07 07c7 	add.w	r7, r7, r7, lsl #3
 8002114:	eb04 0787 	add.w	r7, r4, r7, lsl #2
 8002118:	f3c6 120a 	ubfx	r2, r6, #4, #11
 800211c:	4628      	mov	r0, r5
 800211e:	f8d7 128c 	ldr.w	r1, [r7, #652]	; 0x28c
 8002122:	f003 ff07 	bl	8005f34 <USB_ReadPacket>
 8002126:	f8d7 328c 	ldr.w	r3, [r7, #652]	; 0x28c
 800212a:	f3c6 160a 	ubfx	r6, r6, #4, #11
 800212e:	4433      	add	r3, r6
 8002130:	f8c7 328c 	str.w	r3, [r7, #652]	; 0x28c
 8002134:	f8d7 329c 	ldr.w	r3, [r7, #668]	; 0x29c
 8002138:	6820      	ldr	r0, [r4, #0]
 800213a:	4433      	add	r3, r6
 800213c:	f8c7 329c 	str.w	r3, [r7, #668]	; 0x29c
 8002140:	f7ff bbfd 	b.w	800193e <HAL_PCD_IRQHandler+0x76>
 8002144:	4620      	mov	r0, r4
 8002146:	f7ff fbb3 	bl	80018b0 <HAL_PCD_SuspendCallback>
 800214a:	e56f      	b.n	8001c2c <HAL_PCD_IRQHandler+0x364>
 800214c:	4620      	mov	r0, r4
 800214e:	f7ff fbb9 	bl	80018c4 <HAL_PCD_DisconnectCallback>
 8002152:	6823      	ldr	r3, [r4, #0]
 8002154:	e55f      	b.n	8001c16 <HAL_PCD_IRQHandler+0x34e>
 8002156:	e9d7 2312 	ldrd	r2, r3, [r7, #72]	; 0x48
 800215a:	4413      	add	r3, r2
 800215c:	64fb      	str	r3, [r7, #76]	; 0x4c
 800215e:	2e00      	cmp	r6, #0
 8002160:	f47f ae5e 	bne.w	8001e20 <HAL_PCD_IRQHandler+0x558>
 8002164:	6d63      	ldr	r3, [r4, #84]	; 0x54
 8002166:	2b00      	cmp	r3, #0
 8002168:	f47f ae5a 	bne.w	8001e20 <HAL_PCD_IRQHandler+0x558>
 800216c:	6820      	ldr	r0, [r4, #0]
 800216e:	f204 42c4 	addw	r2, r4, #1220	; 0x4c4
 8002172:	f003 ff5b 	bl	800602c <USB_EP0_OutStart>
 8002176:	e653      	b.n	8001e20 <HAL_PCD_IRQHandler+0x558>
 8002178:	4620      	mov	r0, r4
 800217a:	f7ff fb93 	bl	80018a4 <HAL_PCD_SetupStageCallback>
 800217e:	e693      	b.n	8001ea8 <HAL_PCD_IRQHandler+0x5e0>
 8002180:	0719      	lsls	r1, r3, #28
 8002182:	f140 8097 	bpl.w	80022b4 <HAL_PCD_IRQHandler+0x9ec>
 8002186:	494e      	ldr	r1, [pc, #312]	; (80022c0 <HAL_PCD_IRQHandler+0x9f8>)
 8002188:	458c      	cmp	ip, r1
 800218a:	f67f ae89 	bls.w	8001ea0 <HAL_PCD_IRQHandler+0x5d8>
 800218e:	0418      	lsls	r0, r3, #16
 8002190:	f57f ae86 	bpl.w	8001ea0 <HAL_PCD_IRQHandler+0x5d8>
 8002194:	f44f 4100 	mov.w	r1, #32768	; 0x8000
 8002198:	6091      	str	r1, [r2, #8]
 800219a:	e681      	b.n	8001ea0 <HAL_PCD_IRQHandler+0x5d8>
 800219c:	4634      	mov	r4, r6
 800219e:	f8d4 b000 	ldr.w	fp, [r4]
 80021a2:	46c8      	mov	r8, r9
 80021a4:	4658      	mov	r0, fp
 80021a6:	46d1      	mov	r9, sl
 80021a8:	9e06      	ldr	r6, [sp, #24]
 80021aa:	6d7d      	ldr	r5, [r7, #84]	; 0x54
 80021ac:	429d      	cmp	r5, r3
 80021ae:	f63f ae12 	bhi.w	8001dd6 <HAL_PCD_IRQHandler+0x50e>
 80021b2:	e78c      	b.n	80020ce <HAL_PCD_IRQHandler+0x806>
 80021b4:	2900      	cmp	r1, #0
 80021b6:	f6bf acb6 	bge.w	8001b26 <HAL_PCD_IRQHandler+0x25e>
 80021ba:	4621      	mov	r1, r4
 80021bc:	f884 20f3 	strb.w	r2, [r4, #243]	; 0xf3
 80021c0:	f851 0bf0 	ldr.w	r0, [r1], #240
 80021c4:	f003 fe5c 	bl	8005e80 <USB_EPStopXfer>
 80021c8:	6863      	ldr	r3, [r4, #4]
 80021ca:	e4ac      	b.n	8001b26 <HAL_PCD_IRQHandler+0x25e>
 80021cc:	6820      	ldr	r0, [r4, #0]
 80021ce:	f504 7128 	add.w	r1, r4, #672	; 0x2a0
 80021d2:	f003 fe55 	bl	8005e80 <USB_EPStopXfer>
 80021d6:	6863      	ldr	r3, [r4, #4]
 80021d8:	e40a      	b.n	80019f0 <HAL_PCD_IRQHandler+0x128>
 80021da:	2300      	movs	r3, #0
 80021dc:	4659      	mov	r1, fp
 80021de:	4620      	mov	r0, r4
 80021e0:	f88a 327f 	strb.w	r3, [sl, #639]	; 0x27f
 80021e4:	f7ff fb68 	bl	80018b8 <HAL_PCD_ISOOUTIncompleteCallback>
 80021e8:	e673      	b.n	8001ed2 <HAL_PCD_IRQHandler+0x60a>
 80021ea:	2900      	cmp	r1, #0
 80021ec:	f6bf aca4 	bge.w	8001b38 <HAL_PCD_IRQHandler+0x270>
 80021f0:	6820      	ldr	r0, [r4, #0]
 80021f2:	f884 2117 	strb.w	r2, [r4, #279]	; 0x117
 80021f6:	f504 718a 	add.w	r1, r4, #276	; 0x114
 80021fa:	f003 fe41 	bl	8005e80 <USB_EPStopXfer>
 80021fe:	6863      	ldr	r3, [r4, #4]
 8002200:	e49a      	b.n	8001b38 <HAL_PCD_IRQHandler+0x270>
 8002202:	6820      	ldr	r0, [r4, #0]
 8002204:	f504 7131 	add.w	r1, r4, #708	; 0x2c4
 8002208:	f003 fe3a 	bl	8005e80 <USB_EPStopXfer>
 800220c:	6863      	ldr	r3, [r4, #4]
 800220e:	f7ff bbf6 	b.w	80019fe <HAL_PCD_IRQHandler+0x136>
 8002212:	2900      	cmp	r1, #0
 8002214:	f6bf ac99 	bge.w	8001b4a <HAL_PCD_IRQHandler+0x282>
 8002218:	6820      	ldr	r0, [r4, #0]
 800221a:	f884 213b 	strb.w	r2, [r4, #315]	; 0x13b
 800221e:	f504 719c 	add.w	r1, r4, #312	; 0x138
 8002222:	f003 fe2d 	bl	8005e80 <USB_EPStopXfer>
 8002226:	6863      	ldr	r3, [r4, #4]
 8002228:	e48f      	b.n	8001b4a <HAL_PCD_IRQHandler+0x282>
 800222a:	2900      	cmp	r1, #0
 800222c:	f6bf ac96 	bge.w	8001b5c <HAL_PCD_IRQHandler+0x294>
 8002230:	6820      	ldr	r0, [r4, #0]
 8002232:	f884 215f 	strb.w	r2, [r4, #351]	; 0x15f
 8002236:	f504 71ae 	add.w	r1, r4, #348	; 0x15c
 800223a:	f003 fe21 	bl	8005e80 <USB_EPStopXfer>
 800223e:	6863      	ldr	r3, [r4, #4]
 8002240:	e48c      	b.n	8001b5c <HAL_PCD_IRQHandler+0x294>
 8002242:	0418      	lsls	r0, r3, #16
 8002244:	d4a6      	bmi.n	8002194 <HAL_PCD_IRQHandler+0x8cc>
 8002246:	0699      	lsls	r1, r3, #26
 8002248:	f57f aef7 	bpl.w	800203a <HAL_PCD_IRQHandler+0x772>
 800224c:	2120      	movs	r1, #32
 800224e:	6091      	str	r1, [r2, #8]
 8002250:	e6f3      	b.n	800203a <HAL_PCD_IRQHandler+0x772>
 8002252:	2900      	cmp	r1, #0
 8002254:	f6bf ac8b 	bge.w	8001b6e <HAL_PCD_IRQHandler+0x2a6>
 8002258:	6820      	ldr	r0, [r4, #0]
 800225a:	f884 2183 	strb.w	r2, [r4, #387]	; 0x183
 800225e:	f504 71c0 	add.w	r1, r4, #384	; 0x180
 8002262:	f003 fe0d 	bl	8005e80 <USB_EPStopXfer>
 8002266:	6863      	ldr	r3, [r4, #4]
 8002268:	e481      	b.n	8001b6e <HAL_PCD_IRQHandler+0x2a6>
 800226a:	f04f 0300 	mov.w	r3, #0
 800226e:	4651      	mov	r1, sl
 8002270:	4620      	mov	r0, r4
 8002272:	f887 303f 	strb.w	r3, [r7, #63]	; 0x3f
 8002276:	f7ff fb21 	bl	80018bc <HAL_PCD_ISOINIncompleteCallback>
 800227a:	e740      	b.n	80020fe <HAL_PCD_IRQHandler+0x836>
 800227c:	6820      	ldr	r0, [r4, #0]
 800227e:	f504 714c 	add.w	r1, r4, #816	; 0x330
 8002282:	f003 fdfd 	bl	8005e80 <USB_EPStopXfer>
 8002286:	6863      	ldr	r3, [r4, #4]
 8002288:	f7ff bbce 	b.w	8001a28 <HAL_PCD_IRQHandler+0x160>
 800228c:	2900      	cmp	r1, #0
 800228e:	f6bf ac77 	bge.w	8001b80 <HAL_PCD_IRQHandler+0x2b8>
 8002292:	6820      	ldr	r0, [r4, #0]
 8002294:	f884 21a7 	strb.w	r2, [r4, #423]	; 0x1a7
 8002298:	f504 71d2 	add.w	r1, r4, #420	; 0x1a4
 800229c:	f003 fdf0 	bl	8005e80 <USB_EPStopXfer>
 80022a0:	6863      	ldr	r3, [r4, #4]
 80022a2:	e46d      	b.n	8001b80 <HAL_PCD_IRQHandler+0x2b8>
 80022a4:	6820      	ldr	r0, [r4, #0]
 80022a6:	f504 7155 	add.w	r1, r4, #852	; 0x354
 80022aa:	f003 fde9 	bl	8005e80 <USB_EPStopXfer>
 80022ae:	6863      	ldr	r3, [r4, #4]
 80022b0:	f7ff bbc1 	b.w	8001a36 <HAL_PCD_IRQHandler+0x16e>
 80022b4:	0699      	lsls	r1, r3, #26
 80022b6:	d573      	bpl.n	80023a0 <HAL_PCD_IRQHandler+0xad8>
 80022b8:	2120      	movs	r1, #32
 80022ba:	6091      	str	r1, [r2, #8]
 80022bc:	e5f0      	b.n	8001ea0 <HAL_PCD_IRQHandler+0x5d8>
 80022be:	bf00      	nop
 80022c0:	4f54300a 	.word	0x4f54300a
 80022c4:	4f54310a 	.word	0x4f54310a
 80022c8:	2900      	cmp	r1, #0
 80022ca:	f6bf ac62 	bge.w	8001b92 <HAL_PCD_IRQHandler+0x2ca>
 80022ce:	6820      	ldr	r0, [r4, #0]
 80022d0:	f884 21cb 	strb.w	r2, [r4, #459]	; 0x1cb
 80022d4:	f504 71e4 	add.w	r1, r4, #456	; 0x1c8
 80022d8:	f003 fdd2 	bl	8005e80 <USB_EPStopXfer>
 80022dc:	6863      	ldr	r3, [r4, #4]
 80022de:	e458      	b.n	8001b92 <HAL_PCD_IRQHandler+0x2ca>
 80022e0:	6820      	ldr	r0, [r4, #0]
 80022e2:	f504 715e 	add.w	r1, r4, #888	; 0x378
 80022e6:	f003 fdcb 	bl	8005e80 <USB_EPStopXfer>
 80022ea:	6863      	ldr	r3, [r4, #4]
 80022ec:	f7ff bbaa 	b.w	8001a44 <HAL_PCD_IRQHandler+0x17c>
 80022f0:	2900      	cmp	r1, #0
 80022f2:	f6bf ac57 	bge.w	8001ba4 <HAL_PCD_IRQHandler+0x2dc>
 80022f6:	6820      	ldr	r0, [r4, #0]
 80022f8:	f884 21ef 	strb.w	r2, [r4, #495]	; 0x1ef
 80022fc:	f504 71f6 	add.w	r1, r4, #492	; 0x1ec
 8002300:	f003 fdbe 	bl	8005e80 <USB_EPStopXfer>
 8002304:	6863      	ldr	r3, [r4, #4]
 8002306:	e44d      	b.n	8001ba4 <HAL_PCD_IRQHandler+0x2dc>
 8002308:	6820      	ldr	r0, [r4, #0]
 800230a:	f504 7167 	add.w	r1, r4, #924	; 0x39c
 800230e:	f003 fdb7 	bl	8005e80 <USB_EPStopXfer>
 8002312:	6863      	ldr	r3, [r4, #4]
 8002314:	f7ff bb9d 	b.w	8001a52 <HAL_PCD_IRQHandler+0x18a>
 8002318:	2900      	cmp	r1, #0
 800231a:	f6bf ac4c 	bge.w	8001bb6 <HAL_PCD_IRQHandler+0x2ee>
 800231e:	6820      	ldr	r0, [r4, #0]
 8002320:	f884 2213 	strb.w	r2, [r4, #531]	; 0x213
 8002324:	f504 7104 	add.w	r1, r4, #528	; 0x210
 8002328:	f003 fdaa 	bl	8005e80 <USB_EPStopXfer>
 800232c:	6863      	ldr	r3, [r4, #4]
 800232e:	e442      	b.n	8001bb6 <HAL_PCD_IRQHandler+0x2ee>
 8002330:	6820      	ldr	r0, [r4, #0]
 8002332:	f504 7170 	add.w	r1, r4, #960	; 0x3c0
 8002336:	f003 fda3 	bl	8005e80 <USB_EPStopXfer>
 800233a:	6863      	ldr	r3, [r4, #4]
 800233c:	f7ff bb90 	b.w	8001a60 <HAL_PCD_IRQHandler+0x198>
 8002340:	2900      	cmp	r1, #0
 8002342:	f6bf ac41 	bge.w	8001bc8 <HAL_PCD_IRQHandler+0x300>
 8002346:	6820      	ldr	r0, [r4, #0]
 8002348:	f884 2237 	strb.w	r2, [r4, #567]	; 0x237
 800234c:	f504 710d 	add.w	r1, r4, #564	; 0x234
 8002350:	f003 fd96 	bl	8005e80 <USB_EPStopXfer>
 8002354:	6863      	ldr	r3, [r4, #4]
 8002356:	e437      	b.n	8001bc8 <HAL_PCD_IRQHandler+0x300>
 8002358:	6820      	ldr	r0, [r4, #0]
 800235a:	f504 7179 	add.w	r1, r4, #996	; 0x3e4
 800235e:	f003 fd8f 	bl	8005e80 <USB_EPStopXfer>
 8002362:	6863      	ldr	r3, [r4, #4]
 8002364:	f7ff bb83 	b.w	8001a6e <HAL_PCD_IRQHandler+0x1a6>
 8002368:	2900      	cmp	r1, #0
 800236a:	f6bf ac36 	bge.w	8001bda <HAL_PCD_IRQHandler+0x312>
 800236e:	6820      	ldr	r0, [r4, #0]
 8002370:	f884 225b 	strb.w	r2, [r4, #603]	; 0x25b
 8002374:	f504 7116 	add.w	r1, r4, #600	; 0x258
 8002378:	f003 fd82 	bl	8005e80 <USB_EPStopXfer>
 800237c:	6863      	ldr	r3, [r4, #4]
 800237e:	e42c      	b.n	8001bda <HAL_PCD_IRQHandler+0x312>
 8002380:	6820      	ldr	r0, [r4, #0]
 8002382:	f504 6181 	add.w	r1, r4, #1032	; 0x408
 8002386:	f003 fd7b 	bl	8005e80 <USB_EPStopXfer>
 800238a:	6863      	ldr	r3, [r4, #4]
 800238c:	f7ff bb76 	b.w	8001a7c <HAL_PCD_IRQHandler+0x1b4>
 8002390:	6820      	ldr	r0, [r4, #0]
 8002392:	f204 412c 	addw	r1, r4, #1068	; 0x42c
 8002396:	f003 fd73 	bl	8005e80 <USB_EPStopXfer>
 800239a:	6863      	ldr	r3, [r4, #4]
 800239c:	f7ff bb75 	b.w	8001a8a <HAL_PCD_IRQHandler+0x1c2>
 80023a0:	f013 0f28 	tst.w	r3, #40	; 0x28
 80023a4:	f47f ad7c 	bne.w	8001ea0 <HAL_PCD_IRQHandler+0x5d8>
 80023a8:	491b      	ldr	r1, [pc, #108]	; (8002418 <HAL_PCD_IRQHandler+0xb50>)
 80023aa:	458c      	cmp	ip, r1
 80023ac:	d902      	bls.n	80023b4 <HAL_PCD_IRQHandler+0xaec>
 80023ae:	041b      	lsls	r3, r3, #16
 80023b0:	f53f aef0 	bmi.w	8002194 <HAL_PCD_IRQHandler+0x8cc>
 80023b4:	6911      	ldr	r1, [r2, #16]
 80023b6:	f8da 2298 	ldr.w	r2, [sl, #664]	; 0x298
 80023ba:	f3c1 0112 	ubfx	r1, r1, #0, #19
 80023be:	1a52      	subs	r2, r2, r1
 80023c0:	f8ca 229c 	str.w	r2, [sl, #668]	; 0x29c
 80023c4:	f1b9 0f00 	cmp.w	r9, #0
 80023c8:	f47f ae37 	bne.w	800203a <HAL_PCD_IRQHandler+0x772>
 80023cc:	f8d4 1294 	ldr.w	r1, [r4, #660]	; 0x294
 80023d0:	b1d9      	cbz	r1, 800240a <HAL_PCD_IRQHandler+0xb42>
 80023d2:	f8d4 128c 	ldr.w	r1, [r4, #652]	; 0x28c
 80023d6:	440a      	add	r2, r1
 80023d8:	f8c4 228c 	str.w	r2, [r4, #652]	; 0x28c
 80023dc:	e62d      	b.n	800203a <HAL_PCD_IRQHandler+0x772>
 80023de:	6820      	ldr	r0, [r4, #0]
 80023e0:	f504 618a 	add.w	r1, r4, #1104	; 0x450
 80023e4:	f003 fd4c 	bl	8005e80 <USB_EPStopXfer>
 80023e8:	6863      	ldr	r3, [r4, #4]
 80023ea:	f7ff bb55 	b.w	8001a98 <HAL_PCD_IRQHandler+0x1d0>
 80023ee:	4649      	mov	r1, r9
 80023f0:	f204 42c4 	addw	r2, r4, #1220	; 0x4c4
 80023f4:	f003 fe1a 	bl	800602c <USB_EP0_OutStart>
 80023f8:	e61f      	b.n	800203a <HAL_PCD_IRQHandler+0x772>
 80023fa:	6820      	ldr	r0, [r4, #0]
 80023fc:	f204 4174 	addw	r1, r4, #1140	; 0x474
 8002400:	f003 fd3e 	bl	8005e80 <USB_EPStopXfer>
 8002404:	6863      	ldr	r3, [r4, #4]
 8002406:	f7ff bb4e 	b.w	8001aa6 <HAL_PCD_IRQHandler+0x1de>
 800240a:	2101      	movs	r1, #1
 800240c:	f204 42c4 	addw	r2, r4, #1220	; 0x4c4
 8002410:	f003 fe0c 	bl	800602c <USB_EP0_OutStart>
 8002414:	e611      	b.n	800203a <HAL_PCD_IRQHandler+0x772>
 8002416:	bf00      	nop
 8002418:	4f54300a 	.word	0x4f54300a

0800241c <HAL_PCDEx_ActivateLPM>:
 800241c:	4603      	mov	r3, r0
 800241e:	2100      	movs	r1, #0
 8002420:	b410      	push	{r4}
 8002422:	2401      	movs	r4, #1
 8002424:	681a      	ldr	r2, [r3, #0]
 8002426:	f883 14f4 	strb.w	r1, [r3, #1268]	; 0x4f4
 800242a:	4608      	mov	r0, r1
 800242c:	6991      	ldr	r1, [r2, #24]
 800242e:	f8c3 4500 	str.w	r4, [r3, #1280]	; 0x500
 8002432:	f041 6100 	orr.w	r1, r1, #134217728	; 0x8000000
 8002436:	6191      	str	r1, [r2, #24]
 8002438:	6d53      	ldr	r3, [r2, #84]	; 0x54
 800243a:	f85d 4b04 	ldr.w	r4, [sp], #4
 800243e:	f043 5380 	orr.w	r3, r3, #268435456	; 0x10000000
 8002442:	f043 0303 	orr.w	r3, r3, #3
 8002446:	6553      	str	r3, [r2, #84]	; 0x54
 8002448:	4770      	bx	lr
 800244a:	bf00      	nop

0800244c <HAL_PCDEx_LPM_Callback>:
 800244c:	4770      	bx	lr
 800244e:	bf00      	nop

08002450 <HAL_PWREx_ControlVoltageScaling>:
 8002450:	4a1d      	ldr	r2, [pc, #116]	; (80024c8 <HAL_PWREx_ControlVoltageScaling+0x78>)
 8002452:	6bd3      	ldr	r3, [r2, #60]	; 0x3c
 8002454:	f403 3340 	and.w	r3, r3, #196608	; 0x30000
 8002458:	4283      	cmp	r3, r0
 800245a:	d030      	beq.n	80024be <HAL_PWREx_ControlVoltageScaling+0x6e>
 800245c:	f04f 0c32 	mov.w	ip, #50	; 0x32
 8002460:	68d3      	ldr	r3, [r2, #12]
 8002462:	f5b0 3f80 	cmp.w	r0, #65536	; 0x10000
 8002466:	f423 23e0 	bic.w	r3, r3, #458752	; 0x70000
 800246a:	ea40 0003 	orr.w	r0, r0, r3
 800246e:	bf88      	it	hi
 8002470:	f440 2080 	orrhi.w	r0, r0, #262144	; 0x40000
 8002474:	4b15      	ldr	r3, [pc, #84]	; (80024cc <HAL_PWREx_ControlVoltageScaling+0x7c>)
 8002476:	60d0      	str	r0, [r2, #12]
 8002478:	681b      	ldr	r3, [r3, #0]
 800247a:	4a15      	ldr	r2, [pc, #84]	; (80024d0 <HAL_PWREx_ControlVoltageScaling+0x80>)
 800247c:	4812      	ldr	r0, [pc, #72]	; (80024c8 <HAL_PWREx_ControlVoltageScaling+0x78>)
 800247e:	fba2 1303 	umull	r1, r3, r2, r3
 8002482:	099b      	lsrs	r3, r3, #6
 8002484:	fb0c f303 	mul.w	r3, ip, r3
 8002488:	fba2 2303 	umull	r2, r3, r2, r3
 800248c:	68c1      	ldr	r1, [r0, #12]
 800248e:	099b      	lsrs	r3, r3, #6
 8002490:	040a      	lsls	r2, r1, #16
 8002492:	f103 0301 	add.w	r3, r3, #1
 8002496:	d407      	bmi.n	80024a8 <HAL_PWREx_ControlVoltageScaling+0x58>
 8002498:	461a      	mov	r2, r3
 800249a:	e000      	b.n	800249e <HAL_PWREx_ControlVoltageScaling+0x4e>
 800249c:	b18a      	cbz	r2, 80024c2 <HAL_PWREx_ControlVoltageScaling+0x72>
 800249e:	68c1      	ldr	r1, [r0, #12]
 80024a0:	3a01      	subs	r2, #1
 80024a2:	0409      	lsls	r1, r1, #16
 80024a4:	d5fa      	bpl.n	800249c <HAL_PWREx_ControlVoltageScaling+0x4c>
 80024a6:	b162      	cbz	r2, 80024c2 <HAL_PWREx_ControlVoltageScaling+0x72>
 80024a8:	4907      	ldr	r1, [pc, #28]	; (80024c8 <HAL_PWREx_ControlVoltageScaling+0x78>)
 80024aa:	6bca      	ldr	r2, [r1, #60]	; 0x3c
 80024ac:	0410      	lsls	r0, r2, #16
 80024ae:	d406      	bmi.n	80024be <HAL_PWREx_ControlVoltageScaling+0x6e>
 80024b0:	e000      	b.n	80024b4 <HAL_PWREx_ControlVoltageScaling+0x64>
 80024b2:	b133      	cbz	r3, 80024c2 <HAL_PWREx_ControlVoltageScaling+0x72>
 80024b4:	6bca      	ldr	r2, [r1, #60]	; 0x3c
 80024b6:	3b01      	subs	r3, #1
 80024b8:	0412      	lsls	r2, r2, #16
 80024ba:	d5fa      	bpl.n	80024b2 <HAL_PWREx_ControlVoltageScaling+0x62>
 80024bc:	b10b      	cbz	r3, 80024c2 <HAL_PWREx_ControlVoltageScaling+0x72>
 80024be:	2000      	movs	r0, #0
 80024c0:	4770      	bx	lr
 80024c2:	2003      	movs	r0, #3
 80024c4:	4770      	bx	lr
 80024c6:	bf00      	nop
 80024c8:	46020800 	.word	0x46020800
 80024cc:	20025800 	.word	0x20025800
 80024d0:	10624dd3 	.word	0x10624dd3

080024d4 <HAL_PWREx_GetVoltageRange>:
 80024d4:	4b02      	ldr	r3, [pc, #8]	; (80024e0 <HAL_PWREx_GetVoltageRange+0xc>)
 80024d6:	6bd8      	ldr	r0, [r3, #60]	; 0x3c
 80024d8:	f400 3040 	and.w	r0, r0, #196608	; 0x30000
 80024dc:	4770      	bx	lr
 80024de:	bf00      	nop
 80024e0:	46020800 	.word	0x46020800

080024e4 <HAL_PWREx_ConfigSupply>:
 80024e4:	2132      	movs	r1, #50	; 0x32
 80024e6:	4b1a      	ldr	r3, [pc, #104]	; (8002550 <HAL_PWREx_ConfigSupply+0x6c>)
 80024e8:	4a1a      	ldr	r2, [pc, #104]	; (8002554 <HAL_PWREx_ConfigSupply+0x70>)
 80024ea:	681b      	ldr	r3, [r3, #0]
 80024ec:	fba2 c303 	umull	ip, r3, r2, r3
 80024f0:	099b      	lsrs	r3, r3, #6
 80024f2:	fb01 f303 	mul.w	r3, r1, r3
 80024f6:	fba2 2303 	umull	r2, r3, r2, r3
 80024fa:	4917      	ldr	r1, [pc, #92]	; (8002558 <HAL_PWREx_ConfigSupply+0x74>)
 80024fc:	099b      	lsrs	r3, r3, #6
 80024fe:	688a      	ldr	r2, [r1, #8]
 8002500:	3301      	adds	r3, #1
 8002502:	b988      	cbnz	r0, 8002528 <HAL_PWREx_ConfigSupply+0x44>
 8002504:	f022 0202 	bic.w	r2, r2, #2
 8002508:	608a      	str	r2, [r1, #8]
 800250a:	6bca      	ldr	r2, [r1, #60]	; 0x3c
 800250c:	0790      	lsls	r0, r2, #30
 800250e:	d509      	bpl.n	8002524 <HAL_PWREx_ConfigSupply+0x40>
 8002510:	6bca      	ldr	r2, [r1, #60]	; 0x3c
 8002512:	3b01      	subs	r3, #1
 8002514:	0792      	lsls	r2, r2, #30
 8002516:	d504      	bpl.n	8002522 <HAL_PWREx_ConfigSupply+0x3e>
 8002518:	b1bb      	cbz	r3, 800254a <HAL_PWREx_ConfigSupply+0x66>
 800251a:	6bca      	ldr	r2, [r1, #60]	; 0x3c
 800251c:	3b01      	subs	r3, #1
 800251e:	0792      	lsls	r2, r2, #30
 8002520:	d4fa      	bmi.n	8002518 <HAL_PWREx_ConfigSupply+0x34>
 8002522:	b193      	cbz	r3, 800254a <HAL_PWREx_ConfigSupply+0x66>
 8002524:	2000      	movs	r0, #0
 8002526:	4770      	bx	lr
 8002528:	f042 0202 	orr.w	r2, r2, #2
 800252c:	608a      	str	r2, [r1, #8]
 800252e:	6bca      	ldr	r2, [r1, #60]	; 0x3c
 8002530:	0790      	lsls	r0, r2, #30
 8002532:	d4f7      	bmi.n	8002524 <HAL_PWREx_ConfigSupply+0x40>
 8002534:	6bca      	ldr	r2, [r1, #60]	; 0x3c
 8002536:	3b01      	subs	r3, #1
 8002538:	0792      	lsls	r2, r2, #30
 800253a:	d4f2      	bmi.n	8002522 <HAL_PWREx_ConfigSupply+0x3e>
 800253c:	b12b      	cbz	r3, 800254a <HAL_PWREx_ConfigSupply+0x66>
 800253e:	6bca      	ldr	r2, [r1, #60]	; 0x3c
 8002540:	3b01      	subs	r3, #1
 8002542:	0792      	lsls	r2, r2, #30
 8002544:	d4ed      	bmi.n	8002522 <HAL_PWREx_ConfigSupply+0x3e>
 8002546:	2b00      	cmp	r3, #0
 8002548:	d1f9      	bne.n	800253e <HAL_PWREx_ConfigSupply+0x5a>
 800254a:	2003      	movs	r0, #3
 800254c:	4770      	bx	lr
 800254e:	bf00      	nop
 8002550:	20025800 	.word	0x20025800
 8002554:	10624dd3 	.word	0x10624dd3
 8002558:	46020800 	.word	0x46020800

0800255c <HAL_PWREx_EnableVddUSB>:
 800255c:	4a02      	ldr	r2, [pc, #8]	; (8002568 <HAL_PWREx_EnableVddUSB+0xc>)
 800255e:	6913      	ldr	r3, [r2, #16]
 8002560:	f043 5380 	orr.w	r3, r3, #268435456	; 0x10000000
 8002564:	6113      	str	r3, [r2, #16]
 8002566:	4770      	bx	lr
 8002568:	46020800 	.word	0x46020800

0800256c <HAL_PWREx_EnableVddIO2>:
 800256c:	4a02      	ldr	r2, [pc, #8]	; (8002578 <HAL_PWREx_EnableVddIO2+0xc>)
 800256e:	6913      	ldr	r3, [r2, #16]
 8002570:	f043 5300 	orr.w	r3, r3, #536870912	; 0x20000000
 8002574:	6113      	str	r3, [r2, #16]
 8002576:	4770      	bx	lr
 8002578:	46020800 	.word	0x46020800

0800257c <RCC_SetFlashLatencyFromMSIRange>:
 800257c:	b530      	push	{r4, r5, lr}
 800257e:	4d2c      	ldr	r5, [pc, #176]	; (8002630 <RCC_SetFlashLatencyFromMSIRange+0xb4>)
 8002580:	4604      	mov	r4, r0
 8002582:	f8d5 3094 	ldr.w	r3, [r5, #148]	; 0x94
 8002586:	b083      	sub	sp, #12
 8002588:	075b      	lsls	r3, r3, #29
 800258a:	d52b      	bpl.n	80025e4 <RCC_SetFlashLatencyFromMSIRange+0x68>
 800258c:	f7ff ffa2 	bl	80024d4 <HAL_PWREx_GetVoltageRange>
 8002590:	f420 3380 	bic.w	r3, r0, #65536	; 0x10000
 8002594:	f5b3 3f00 	cmp.w	r3, #131072	; 0x20000
 8002598:	d007      	beq.n	80025aa <RCC_SetFlashLatencyFromMSIRange+0x2e>
 800259a:	f1b4 5f80 	cmp.w	r4, #268435456	; 0x10000000
 800259e:	d217      	bcs.n	80025d0 <RCC_SetFlashLatencyFromMSIRange+0x54>
 80025a0:	f5b0 3f80 	cmp.w	r0, #65536	; 0x10000
 80025a4:	d133      	bne.n	800260e <RCC_SetFlashLatencyFromMSIRange+0x92>
 80025a6:	2203      	movs	r2, #3
 80025a8:	e004      	b.n	80025b4 <RCC_SetFlashLatencyFromMSIRange+0x38>
 80025aa:	f1b4 5f80 	cmp.w	r4, #268435456	; 0x10000000
 80025ae:	bf2c      	ite	cs
 80025b0:	2200      	movcs	r2, #0
 80025b2:	2201      	movcc	r2, #1
 80025b4:	491f      	ldr	r1, [pc, #124]	; (8002634 <RCC_SetFlashLatencyFromMSIRange+0xb8>)
 80025b6:	680b      	ldr	r3, [r1, #0]
 80025b8:	f023 030f 	bic.w	r3, r3, #15
 80025bc:	4313      	orrs	r3, r2
 80025be:	600b      	str	r3, [r1, #0]
 80025c0:	6808      	ldr	r0, [r1, #0]
 80025c2:	f000 000f 	and.w	r0, r0, #15
 80025c6:	1a80      	subs	r0, r0, r2
 80025c8:	bf18      	it	ne
 80025ca:	2001      	movne	r0, #1
 80025cc:	b003      	add	sp, #12
 80025ce:	bd30      	pop	{r4, r5, pc}
 80025d0:	f1b4 5f00 	cmp.w	r4, #536870912	; 0x20000000
 80025d4:	d91e      	bls.n	8002614 <RCC_SetFlashLatencyFromMSIRange+0x98>
 80025d6:	bb10      	cbnz	r0, 800261e <RCC_SetFlashLatencyFromMSIRange+0xa2>
 80025d8:	f1b4 5f40 	cmp.w	r4, #805306368	; 0x30000000
 80025dc:	bf8c      	ite	hi
 80025de:	2200      	movhi	r2, #0
 80025e0:	2201      	movls	r2, #1
 80025e2:	e7e7      	b.n	80025b4 <RCC_SetFlashLatencyFromMSIRange+0x38>
 80025e4:	f8d5 3094 	ldr.w	r3, [r5, #148]	; 0x94
 80025e8:	f043 0304 	orr.w	r3, r3, #4
 80025ec:	f8c5 3094 	str.w	r3, [r5, #148]	; 0x94
 80025f0:	f8d5 3094 	ldr.w	r3, [r5, #148]	; 0x94
 80025f4:	f003 0304 	and.w	r3, r3, #4
 80025f8:	9301      	str	r3, [sp, #4]
 80025fa:	9b01      	ldr	r3, [sp, #4]
 80025fc:	f7ff ff6a 	bl	80024d4 <HAL_PWREx_GetVoltageRange>
 8002600:	f8d5 3094 	ldr.w	r3, [r5, #148]	; 0x94
 8002604:	f023 0304 	bic.w	r3, r3, #4
 8002608:	f8c5 3094 	str.w	r3, [r5, #148]	; 0x94
 800260c:	e7c0      	b.n	8002590 <RCC_SetFlashLatencyFromMSIRange+0x14>
 800260e:	2001      	movs	r0, #1
 8002610:	b003      	add	sp, #12
 8002612:	bd30      	pop	{r4, r5, pc}
 8002614:	f1b4 5f80 	cmp.w	r4, #268435456	; 0x10000000
 8002618:	d003      	beq.n	8002622 <RCC_SetFlashLatencyFromMSIRange+0xa6>
 800261a:	2201      	movs	r2, #1
 800261c:	e7ca      	b.n	80025b4 <RCC_SetFlashLatencyFromMSIRange+0x38>
 800261e:	2200      	movs	r2, #0
 8002620:	e7c8      	b.n	80025b4 <RCC_SetFlashLatencyFromMSIRange+0x38>
 8002622:	f5b0 3f80 	cmp.w	r0, #65536	; 0x10000
 8002626:	bf0c      	ite	eq
 8002628:	2201      	moveq	r2, #1
 800262a:	2202      	movne	r2, #2
 800262c:	e7c2      	b.n	80025b4 <RCC_SetFlashLatencyFromMSIRange+0x38>
 800262e:	bf00      	nop
 8002630:	46020c00 	.word	0x46020c00
 8002634:	40022000 	.word	0x40022000

08002638 <HAL_RCC_GetSysClockFreq>:
 8002638:	4a42      	ldr	r2, [pc, #264]	; (8002744 <HAL_RCC_GetSysClockFreq+0x10c>)
 800263a:	69d3      	ldr	r3, [r2, #28]
 800263c:	6a91      	ldr	r1, [r2, #40]	; 0x28
 800263e:	f013 030c 	ands.w	r3, r3, #12
 8002642:	d050      	beq.n	80026e6 <HAL_RCC_GetSysClockFreq+0xae>
 8002644:	2b0c      	cmp	r3, #12
 8002646:	d061      	beq.n	800270c <HAL_RCC_GetSysClockFreq+0xd4>
 8002648:	69d2      	ldr	r2, [r2, #28]
 800264a:	f002 020c 	and.w	r2, r2, #12
 800264e:	2a04      	cmp	r2, #4
 8002650:	d05a      	beq.n	8002708 <HAL_RCC_GetSysClockFreq+0xd0>
 8002652:	2b08      	cmp	r3, #8
 8002654:	d058      	beq.n	8002708 <HAL_RCC_GetSysClockFreq+0xd0>
 8002656:	2000      	movs	r0, #0
 8002658:	2b0c      	cmp	r3, #12
 800265a:	d170      	bne.n	800273e <HAL_RCC_GetSysClockFreq+0x106>
 800265c:	4939      	ldr	r1, [pc, #228]	; (8002744 <HAL_RCC_GetSysClockFreq+0x10c>)
 800265e:	b510      	push	{r4, lr}
 8002660:	6a8c      	ldr	r4, [r1, #40]	; 0x28
 8002662:	6a8a      	ldr	r2, [r1, #40]	; 0x28
 8002664:	6a8b      	ldr	r3, [r1, #40]	; 0x28
 8002666:	f004 0c03 	and.w	ip, r4, #3
 800266a:	f3c3 1e00 	ubfx	lr, r3, #4, #1
 800266e:	6b8b      	ldr	r3, [r1, #56]	; 0x38
 8002670:	f3c2 2203 	ubfx	r2, r2, #8, #4
 8002674:	f3c3 03cc 	ubfx	r3, r3, #3, #13
 8002678:	fb0e f303 	mul.w	r3, lr, r3
 800267c:	ee07 3a90 	vmov	s15, r3
 8002680:	f1bc 0f02 	cmp.w	ip, #2
 8002684:	eef8 7ae7 	vcvt.f32.s32	s15, s15
 8002688:	f102 0201 	add.w	r2, r2, #1
 800268c:	d002      	beq.n	8002694 <HAL_RCC_GetSysClockFreq+0x5c>
 800268e:	f1bc 0f03 	cmp.w	ip, #3
 8002692:	d142      	bne.n	800271a <HAL_RCC_GetSysClockFreq+0xe2>
 8002694:	6b4b      	ldr	r3, [r1, #52]	; 0x34
 8002696:	ee07 2a10 	vmov	s14, r2
 800269a:	f3c3 0308 	ubfx	r3, r3, #0, #9
 800269e:	ee06 3a90 	vmov	s13, r3
 80026a2:	ed9f 5a29 	vldr	s10, [pc, #164]	; 8002748 <HAL_RCC_GetSysClockFreq+0x110>
 80026a6:	eef8 6ae6 	vcvt.f32.s32	s13, s13
 80026aa:	eeb8 7ac7 	vcvt.f32.s32	s14, s14
 80026ae:	eddf 5a27 	vldr	s11, [pc, #156]	; 800274c <HAL_RCC_GetSysClockFreq+0x114>
 80026b2:	eee7 6a85 	vfma.f32	s13, s15, s10
 80026b6:	eeb7 6a00 	vmov.f32	s12, #112	; 0x3f800000  1.0
 80026ba:	eec5 7a87 	vdiv.f32	s15, s11, s14
 80026be:	ee36 7a86 	vadd.f32	s14, s13, s12
 80026c2:	4b20      	ldr	r3, [pc, #128]	; (8002744 <HAL_RCC_GetSysClockFreq+0x10c>)
 80026c4:	ee27 7a27 	vmul.f32	s14, s14, s15
 80026c8:	6b5b      	ldr	r3, [r3, #52]	; 0x34
 80026ca:	f3c3 6306 	ubfx	r3, r3, #24, #7
 80026ce:	3301      	adds	r3, #1
 80026d0:	ee07 3a90 	vmov	s15, r3
 80026d4:	eef8 7ae7 	vcvt.f32.s32	s15, s15
 80026d8:	eec7 6a27 	vdiv.f32	s13, s14, s15
 80026dc:	eefc 7ae6 	vcvt.u32.f32	s15, s13
 80026e0:	ee17 0a90 	vmov	r0, s15
 80026e4:	bd10      	pop	{r4, pc}
 80026e6:	4a17      	ldr	r2, [pc, #92]	; (8002744 <HAL_RCC_GetSysClockFreq+0x10c>)
 80026e8:	6891      	ldr	r1, [r2, #8]
 80026ea:	0209      	lsls	r1, r1, #8
 80026ec:	bf54      	ite	pl
 80026ee:	f8d2 20f4 	ldrpl.w	r2, [r2, #244]	; 0xf4
 80026f2:	6892      	ldrmi	r2, [r2, #8]
 80026f4:	4916      	ldr	r1, [pc, #88]	; (8002750 <HAL_RCC_GetSysClockFreq+0x118>)
 80026f6:	bf54      	ite	pl
 80026f8:	f3c2 3203 	ubfxpl	r2, r2, #12, #4
 80026fc:	0f12      	lsrmi	r2, r2, #28
 80026fe:	f851 0022 	ldr.w	r0, [r1, r2, lsl #2]
 8002702:	2b00      	cmp	r3, #0
 8002704:	d1a8      	bne.n	8002658 <HAL_RCC_GetSysClockFreq+0x20>
 8002706:	4770      	bx	lr
 8002708:	4812      	ldr	r0, [pc, #72]	; (8002754 <HAL_RCC_GetSysClockFreq+0x11c>)
 800270a:	4770      	bx	lr
 800270c:	f001 0103 	and.w	r1, r1, #3
 8002710:	2901      	cmp	r1, #1
 8002712:	d0e8      	beq.n	80026e6 <HAL_RCC_GetSysClockFreq+0xae>
 8002714:	2000      	movs	r0, #0
 8002716:	69d3      	ldr	r3, [r2, #28]
 8002718:	e7a0      	b.n	800265c <HAL_RCC_GetSysClockFreq+0x24>
 800271a:	ee07 0a10 	vmov	s14, r0
 800271e:	6b4b      	ldr	r3, [r1, #52]	; 0x34
 8002720:	eef8 5a47 	vcvt.f32.u32	s11, s14
 8002724:	f3c3 0308 	ubfx	r3, r3, #0, #9
 8002728:	ee06 3a90 	vmov	s13, r3
 800272c:	ee07 2a10 	vmov	s14, r2
 8002730:	ed9f 5a05 	vldr	s10, [pc, #20]	; 8002748 <HAL_RCC_GetSysClockFreq+0x110>
 8002734:	eef8 6ae6 	vcvt.f32.s32	s13, s13
 8002738:	eeb8 7ac7 	vcvt.f32.s32	s14, s14
 800273c:	e7b9      	b.n	80026b2 <HAL_RCC_GetSysClockFreq+0x7a>
 800273e:	2000      	movs	r0, #0
 8002740:	4770      	bx	lr
 8002742:	bf00      	nop
 8002744:	46020c00 	.word	0x46020c00
 8002748:	39000000 	.word	0x39000000
 800274c:	4b742400 	.word	0x4b742400
 8002750:	0800610c 	.word	0x0800610c
 8002754:	00f42400 	.word	0x00f42400

08002758 <HAL_RCC_ClockConfig>:
 8002758:	2800      	cmp	r0, #0
 800275a:	f000 810c 	beq.w	8002976 <HAL_RCC_ClockConfig+0x21e>
 800275e:	4a9e      	ldr	r2, [pc, #632]	; (80029d8 <HAL_RCC_ClockConfig+0x280>)
 8002760:	e92d 41f0 	stmdb	sp!, {r4, r5, r6, r7, r8, lr}
 8002764:	6813      	ldr	r3, [r2, #0]
 8002766:	4604      	mov	r4, r0
 8002768:	f003 030f 	and.w	r3, r3, #15
 800276c:	428b      	cmp	r3, r1
 800276e:	460d      	mov	r5, r1
 8002770:	b082      	sub	sp, #8
 8002772:	d20d      	bcs.n	8002790 <HAL_RCC_ClockConfig+0x38>
 8002774:	6813      	ldr	r3, [r2, #0]
 8002776:	f023 030f 	bic.w	r3, r3, #15
 800277a:	430b      	orrs	r3, r1
 800277c:	6013      	str	r3, [r2, #0]
 800277e:	6813      	ldr	r3, [r2, #0]
 8002780:	f003 030f 	and.w	r3, r3, #15
 8002784:	428b      	cmp	r3, r1
 8002786:	d003      	beq.n	8002790 <HAL_RCC_ClockConfig+0x38>
 8002788:	2001      	movs	r0, #1
 800278a:	b002      	add	sp, #8
 800278c:	e8bd 81f0 	ldmia.w	sp!, {r4, r5, r6, r7, r8, pc}
 8002790:	6823      	ldr	r3, [r4, #0]
 8002792:	06d9      	lsls	r1, r3, #27
 8002794:	d50b      	bpl.n	80027ae <HAL_RCC_ClockConfig+0x56>
 8002796:	4991      	ldr	r1, [pc, #580]	; (80029dc <HAL_RCC_ClockConfig+0x284>)
 8002798:	6960      	ldr	r0, [r4, #20]
 800279a:	6a4a      	ldr	r2, [r1, #36]	; 0x24
 800279c:	f002 0270 	and.w	r2, r2, #112	; 0x70
 80027a0:	4290      	cmp	r0, r2
 80027a2:	d904      	bls.n	80027ae <HAL_RCC_ClockConfig+0x56>
 80027a4:	6a4a      	ldr	r2, [r1, #36]	; 0x24
 80027a6:	f022 0270 	bic.w	r2, r2, #112	; 0x70
 80027aa:	4302      	orrs	r2, r0
 80027ac:	624a      	str	r2, [r1, #36]	; 0x24
 80027ae:	071a      	lsls	r2, r3, #28
 80027b0:	d50d      	bpl.n	80027ce <HAL_RCC_ClockConfig+0x76>
 80027b2:	498a      	ldr	r1, [pc, #552]	; (80029dc <HAL_RCC_ClockConfig+0x284>)
 80027b4:	6920      	ldr	r0, [r4, #16]
 80027b6:	6a0a      	ldr	r2, [r1, #32]
 80027b8:	0912      	lsrs	r2, r2, #4
 80027ba:	f002 0270 	and.w	r2, r2, #112	; 0x70
 80027be:	4290      	cmp	r0, r2
 80027c0:	d905      	bls.n	80027ce <HAL_RCC_ClockConfig+0x76>
 80027c2:	6a0a      	ldr	r2, [r1, #32]
 80027c4:	f422 62e0 	bic.w	r2, r2, #1792	; 0x700
 80027c8:	ea42 1200 	orr.w	r2, r2, r0, lsl #4
 80027cc:	620a      	str	r2, [r1, #32]
 80027ce:	075f      	lsls	r7, r3, #29
 80027d0:	d50b      	bpl.n	80027ea <HAL_RCC_ClockConfig+0x92>
 80027d2:	4982      	ldr	r1, [pc, #520]	; (80029dc <HAL_RCC_ClockConfig+0x284>)
 80027d4:	68e0      	ldr	r0, [r4, #12]
 80027d6:	6a0a      	ldr	r2, [r1, #32]
 80027d8:	f002 0270 	and.w	r2, r2, #112	; 0x70
 80027dc:	4290      	cmp	r0, r2
 80027de:	d904      	bls.n	80027ea <HAL_RCC_ClockConfig+0x92>
 80027e0:	6a0a      	ldr	r2, [r1, #32]
 80027e2:	f022 0270 	bic.w	r2, r2, #112	; 0x70
 80027e6:	4302      	orrs	r2, r0
 80027e8:	620a      	str	r2, [r1, #32]
 80027ea:	079e      	lsls	r6, r3, #30
 80027ec:	d530      	bpl.n	8002850 <HAL_RCC_ClockConfig+0xf8>
 80027ee:	487b      	ldr	r0, [pc, #492]	; (80029dc <HAL_RCC_ClockConfig+0x284>)
 80027f0:	68a1      	ldr	r1, [r4, #8]
 80027f2:	6a02      	ldr	r2, [r0, #32]
 80027f4:	f002 020f 	and.w	r2, r2, #15
 80027f8:	4291      	cmp	r1, r2
 80027fa:	d904      	bls.n	8002806 <HAL_RCC_ClockConfig+0xae>
 80027fc:	6a02      	ldr	r2, [r0, #32]
 80027fe:	f022 020f 	bic.w	r2, r2, #15
 8002802:	430a      	orrs	r2, r1
 8002804:	6202      	str	r2, [r0, #32]
 8002806:	07d8      	lsls	r0, r3, #31
 8002808:	f140 8081 	bpl.w	800290e <HAL_RCC_ClockConfig+0x1b6>
 800280c:	6863      	ldr	r3, [r4, #4]
 800280e:	2b03      	cmp	r3, #3
 8002810:	f000 80b3 	beq.w	800297a <HAL_RCC_ClockConfig+0x222>
 8002814:	4a71      	ldr	r2, [pc, #452]	; (80029dc <HAL_RCC_ClockConfig+0x284>)
 8002816:	2b02      	cmp	r3, #2
 8002818:	6812      	ldr	r2, [r2, #0]
 800281a:	f000 8084 	beq.w	8002926 <HAL_RCC_ClockConfig+0x1ce>
 800281e:	2b00      	cmp	r3, #0
 8002820:	f040 80be 	bne.w	80029a0 <HAL_RCC_ClockConfig+0x248>
 8002824:	0750      	lsls	r0, r2, #29
 8002826:	d5af      	bpl.n	8002788 <HAL_RCC_ClockConfig+0x30>
 8002828:	4e6c      	ldr	r6, [pc, #432]	; (80029dc <HAL_RCC_ClockConfig+0x284>)
 800282a:	f241 3888 	movw	r8, #5000	; 0x1388
 800282e:	69f2      	ldr	r2, [r6, #28]
 8002830:	f022 0203 	bic.w	r2, r2, #3
 8002834:	4313      	orrs	r3, r2
 8002836:	61f3      	str	r3, [r6, #28]
 8002838:	f7fe fc32 	bl	80010a0 <HAL_GetTick>
 800283c:	6863      	ldr	r3, [r4, #4]
 800283e:	4607      	mov	r7, r0
 8002840:	2b03      	cmp	r3, #3
 8002842:	d05b      	beq.n	80028fc <HAL_RCC_ClockConfig+0x1a4>
 8002844:	2b02      	cmp	r3, #2
 8002846:	d077      	beq.n	8002938 <HAL_RCC_ClockConfig+0x1e0>
 8002848:	2b00      	cmp	r3, #0
 800284a:	f040 808a 	bne.w	8002962 <HAL_RCC_ClockConfig+0x20a>
 800284e:	e07e      	b.n	800294e <HAL_RCC_ClockConfig+0x1f6>
 8002850:	07da      	lsls	r2, r3, #31
 8002852:	d4db      	bmi.n	800280c <HAL_RCC_ClockConfig+0xb4>
 8002854:	4960      	ldr	r1, [pc, #384]	; (80029d8 <HAL_RCC_ClockConfig+0x280>)
 8002856:	680a      	ldr	r2, [r1, #0]
 8002858:	f002 020f 	and.w	r2, r2, #15
 800285c:	42aa      	cmp	r2, r5
 800285e:	d909      	bls.n	8002874 <HAL_RCC_ClockConfig+0x11c>
 8002860:	680a      	ldr	r2, [r1, #0]
 8002862:	f022 020f 	bic.w	r2, r2, #15
 8002866:	432a      	orrs	r2, r5
 8002868:	600a      	str	r2, [r1, #0]
 800286a:	680a      	ldr	r2, [r1, #0]
 800286c:	f002 020f 	and.w	r2, r2, #15
 8002870:	42aa      	cmp	r2, r5
 8002872:	d189      	bne.n	8002788 <HAL_RCC_ClockConfig+0x30>
 8002874:	075f      	lsls	r7, r3, #29
 8002876:	d50b      	bpl.n	8002890 <HAL_RCC_ClockConfig+0x138>
 8002878:	4958      	ldr	r1, [pc, #352]	; (80029dc <HAL_RCC_ClockConfig+0x284>)
 800287a:	68e0      	ldr	r0, [r4, #12]
 800287c:	6a0a      	ldr	r2, [r1, #32]
 800287e:	f002 0270 	and.w	r2, r2, #112	; 0x70
 8002882:	4290      	cmp	r0, r2
 8002884:	d204      	bcs.n	8002890 <HAL_RCC_ClockConfig+0x138>
 8002886:	6a0a      	ldr	r2, [r1, #32]
 8002888:	f022 0270 	bic.w	r2, r2, #112	; 0x70
 800288c:	4302      	orrs	r2, r0
 800288e:	620a      	str	r2, [r1, #32]
 8002890:	071e      	lsls	r6, r3, #28
 8002892:	d50d      	bpl.n	80028b0 <HAL_RCC_ClockConfig+0x158>
 8002894:	4951      	ldr	r1, [pc, #324]	; (80029dc <HAL_RCC_ClockConfig+0x284>)
 8002896:	6920      	ldr	r0, [r4, #16]
 8002898:	6a0a      	ldr	r2, [r1, #32]
 800289a:	0912      	lsrs	r2, r2, #4
 800289c:	f002 0270 	and.w	r2, r2, #112	; 0x70
 80028a0:	4290      	cmp	r0, r2
 80028a2:	d205      	bcs.n	80028b0 <HAL_RCC_ClockConfig+0x158>
 80028a4:	6a0a      	ldr	r2, [r1, #32]
 80028a6:	f422 62e0 	bic.w	r2, r2, #1792	; 0x700
 80028aa:	ea42 1200 	orr.w	r2, r2, r0, lsl #4
 80028ae:	620a      	str	r2, [r1, #32]
 80028b0:	06dd      	lsls	r5, r3, #27
 80028b2:	d50b      	bpl.n	80028cc <HAL_RCC_ClockConfig+0x174>
 80028b4:	4a49      	ldr	r2, [pc, #292]	; (80029dc <HAL_RCC_ClockConfig+0x284>)
 80028b6:	6961      	ldr	r1, [r4, #20]
 80028b8:	6a53      	ldr	r3, [r2, #36]	; 0x24
 80028ba:	f003 0370 	and.w	r3, r3, #112	; 0x70
 80028be:	4299      	cmp	r1, r3
 80028c0:	d204      	bcs.n	80028cc <HAL_RCC_ClockConfig+0x174>
 80028c2:	6a53      	ldr	r3, [r2, #36]	; 0x24
 80028c4:	f023 0370 	bic.w	r3, r3, #112	; 0x70
 80028c8:	430b      	orrs	r3, r1
 80028ca:	6253      	str	r3, [r2, #36]	; 0x24
 80028cc:	f7ff feb4 	bl	8002638 <HAL_RCC_GetSysClockFreq>
 80028d0:	4603      	mov	r3, r0
 80028d2:	4a42      	ldr	r2, [pc, #264]	; (80029dc <HAL_RCC_ClockConfig+0x284>)
 80028d4:	4942      	ldr	r1, [pc, #264]	; (80029e0 <HAL_RCC_ClockConfig+0x288>)
 80028d6:	6a12      	ldr	r2, [r2, #32]
 80028d8:	4842      	ldr	r0, [pc, #264]	; (80029e4 <HAL_RCC_ClockConfig+0x28c>)
 80028da:	f002 020f 	and.w	r2, r2, #15
 80028de:	5c89      	ldrb	r1, [r1, r2]
 80028e0:	6800      	ldr	r0, [r0, #0]
 80028e2:	4a41      	ldr	r2, [pc, #260]	; (80029e8 <HAL_RCC_ClockConfig+0x290>)
 80028e4:	40cb      	lsrs	r3, r1
 80028e6:	6013      	str	r3, [r2, #0]
 80028e8:	b002      	add	sp, #8
 80028ea:	e8bd 41f0 	ldmia.w	sp!, {r4, r5, r6, r7, r8, lr}
 80028ee:	f7fe bb7b 	b.w	8000fe8 <HAL_InitTick>
 80028f2:	f7fe fbd5 	bl	80010a0 <HAL_GetTick>
 80028f6:	1bc3      	subs	r3, r0, r7
 80028f8:	4543      	cmp	r3, r8
 80028fa:	d838      	bhi.n	800296e <HAL_RCC_ClockConfig+0x216>
 80028fc:	69f3      	ldr	r3, [r6, #28]
 80028fe:	f003 030c 	and.w	r3, r3, #12
 8002902:	2b0c      	cmp	r3, #12
 8002904:	d1f5      	bne.n	80028f2 <HAL_RCC_ClockConfig+0x19a>
 8002906:	6823      	ldr	r3, [r4, #0]
 8002908:	079a      	lsls	r2, r3, #30
 800290a:	d5a3      	bpl.n	8002854 <HAL_RCC_ClockConfig+0xfc>
 800290c:	68a1      	ldr	r1, [r4, #8]
 800290e:	4833      	ldr	r0, [pc, #204]	; (80029dc <HAL_RCC_ClockConfig+0x284>)
 8002910:	6a02      	ldr	r2, [r0, #32]
 8002912:	f002 020f 	and.w	r2, r2, #15
 8002916:	428a      	cmp	r2, r1
 8002918:	d99c      	bls.n	8002854 <HAL_RCC_ClockConfig+0xfc>
 800291a:	6a02      	ldr	r2, [r0, #32]
 800291c:	f022 020f 	bic.w	r2, r2, #15
 8002920:	4311      	orrs	r1, r2
 8002922:	6201      	str	r1, [r0, #32]
 8002924:	e796      	b.n	8002854 <HAL_RCC_ClockConfig+0xfc>
 8002926:	0396      	lsls	r6, r2, #14
 8002928:	f53f af7e 	bmi.w	8002828 <HAL_RCC_ClockConfig+0xd0>
 800292c:	e72c      	b.n	8002788 <HAL_RCC_ClockConfig+0x30>
 800292e:	f7fe fbb7 	bl	80010a0 <HAL_GetTick>
 8002932:	1bc0      	subs	r0, r0, r7
 8002934:	4540      	cmp	r0, r8
 8002936:	d81a      	bhi.n	800296e <HAL_RCC_ClockConfig+0x216>
 8002938:	69f3      	ldr	r3, [r6, #28]
 800293a:	f003 030c 	and.w	r3, r3, #12
 800293e:	2b08      	cmp	r3, #8
 8002940:	d1f5      	bne.n	800292e <HAL_RCC_ClockConfig+0x1d6>
 8002942:	e7e0      	b.n	8002906 <HAL_RCC_ClockConfig+0x1ae>
 8002944:	f7fe fbac 	bl	80010a0 <HAL_GetTick>
 8002948:	1bc0      	subs	r0, r0, r7
 800294a:	4540      	cmp	r0, r8
 800294c:	d80f      	bhi.n	800296e <HAL_RCC_ClockConfig+0x216>
 800294e:	69f3      	ldr	r3, [r6, #28]
 8002950:	f013 0f0c 	tst.w	r3, #12
 8002954:	d1f6      	bne.n	8002944 <HAL_RCC_ClockConfig+0x1ec>
 8002956:	e7d6      	b.n	8002906 <HAL_RCC_ClockConfig+0x1ae>
 8002958:	f7fe fba2 	bl	80010a0 <HAL_GetTick>
 800295c:	1bc0      	subs	r0, r0, r7
 800295e:	4540      	cmp	r0, r8
 8002960:	d805      	bhi.n	800296e <HAL_RCC_ClockConfig+0x216>
 8002962:	69f3      	ldr	r3, [r6, #28]
 8002964:	f003 030c 	and.w	r3, r3, #12
 8002968:	2b04      	cmp	r3, #4
 800296a:	d1f5      	bne.n	8002958 <HAL_RCC_ClockConfig+0x200>
 800296c:	e7cb      	b.n	8002906 <HAL_RCC_ClockConfig+0x1ae>
 800296e:	2003      	movs	r0, #3
 8002970:	b002      	add	sp, #8
 8002972:	e8bd 81f0 	ldmia.w	sp!, {r4, r5, r6, r7, r8, pc}
 8002976:	2001      	movs	r0, #1
 8002978:	4770      	bx	lr
 800297a:	4b18      	ldr	r3, [pc, #96]	; (80029dc <HAL_RCC_ClockConfig+0x284>)
 800297c:	f8d3 2094 	ldr.w	r2, [r3, #148]	; 0x94
 8002980:	0750      	lsls	r0, r2, #29
 8002982:	d511      	bpl.n	80029a8 <HAL_RCC_ClockConfig+0x250>
 8002984:	f7fe fb8c 	bl	80010a0 <HAL_GetTick>
 8002988:	4b18      	ldr	r3, [pc, #96]	; (80029ec <HAL_RCC_ClockConfig+0x294>)
 800298a:	4606      	mov	r6, r0
 800298c:	68db      	ldr	r3, [r3, #12]
 800298e:	0359      	lsls	r1, r3, #13
 8002990:	d441      	bmi.n	8002a16 <HAL_RCC_ClockConfig+0x2be>
 8002992:	4b12      	ldr	r3, [pc, #72]	; (80029dc <HAL_RCC_ClockConfig+0x284>)
 8002994:	681b      	ldr	r3, [r3, #0]
 8002996:	019f      	lsls	r7, r3, #6
 8002998:	f57f aef6 	bpl.w	8002788 <HAL_RCC_ClockConfig+0x30>
 800299c:	6863      	ldr	r3, [r4, #4]
 800299e:	e743      	b.n	8002828 <HAL_RCC_ClockConfig+0xd0>
 80029a0:	0551      	lsls	r1, r2, #21
 80029a2:	f57f aef1 	bpl.w	8002788 <HAL_RCC_ClockConfig+0x30>
 80029a6:	e73f      	b.n	8002828 <HAL_RCC_ClockConfig+0xd0>
 80029a8:	f8d3 2094 	ldr.w	r2, [r3, #148]	; 0x94
 80029ac:	f042 0204 	orr.w	r2, r2, #4
 80029b0:	f8c3 2094 	str.w	r2, [r3, #148]	; 0x94
 80029b4:	f8d3 3094 	ldr.w	r3, [r3, #148]	; 0x94
 80029b8:	f003 0304 	and.w	r3, r3, #4
 80029bc:	9301      	str	r3, [sp, #4]
 80029be:	9b01      	ldr	r3, [sp, #4]
 80029c0:	f7fe fb6e 	bl	80010a0 <HAL_GetTick>
 80029c4:	4b09      	ldr	r3, [pc, #36]	; (80029ec <HAL_RCC_ClockConfig+0x294>)
 80029c6:	4606      	mov	r6, r0
 80029c8:	68db      	ldr	r3, [r3, #12]
 80029ca:	035a      	lsls	r2, r3, #13
 80029cc:	d51b      	bpl.n	8002a06 <HAL_RCC_ClockConfig+0x2ae>
 80029ce:	f04f 0801 	mov.w	r8, #1
 80029d2:	4f06      	ldr	r7, [pc, #24]	; (80029ec <HAL_RCC_ClockConfig+0x294>)
 80029d4:	e011      	b.n	80029fa <HAL_RCC_ClockConfig+0x2a2>
 80029d6:	bf00      	nop
 80029d8:	40022000 	.word	0x40022000
 80029dc:	46020c00 	.word	0x46020c00
 80029e0:	080060f4 	.word	0x080060f4
 80029e4:	20025808 	.word	0x20025808
 80029e8:	20025800 	.word	0x20025800
 80029ec:	46020800 	.word	0x46020800
 80029f0:	f7fe fb56 	bl	80010a0 <HAL_GetTick>
 80029f4:	1b83      	subs	r3, r0, r6
 80029f6:	2b02      	cmp	r3, #2
 80029f8:	d8b9      	bhi.n	800296e <HAL_RCC_ClockConfig+0x216>
 80029fa:	68fb      	ldr	r3, [r7, #12]
 80029fc:	045b      	lsls	r3, r3, #17
 80029fe:	d5f7      	bpl.n	80029f0 <HAL_RCC_ClockConfig+0x298>
 8002a00:	f1b8 0f00 	cmp.w	r8, #0
 8002a04:	d0c5      	beq.n	8002992 <HAL_RCC_ClockConfig+0x23a>
 8002a06:	4a05      	ldr	r2, [pc, #20]	; (8002a1c <HAL_RCC_ClockConfig+0x2c4>)
 8002a08:	f8d2 3094 	ldr.w	r3, [r2, #148]	; 0x94
 8002a0c:	f023 0304 	bic.w	r3, r3, #4
 8002a10:	f8c2 3094 	str.w	r3, [r2, #148]	; 0x94
 8002a14:	e7bd      	b.n	8002992 <HAL_RCC_ClockConfig+0x23a>
 8002a16:	f04f 0800 	mov.w	r8, #0
 8002a1a:	e7da      	b.n	80029d2 <HAL_RCC_ClockConfig+0x27a>
 8002a1c:	46020c00 	.word	0x46020c00

08002a20 <HAL_RCC_OscConfig>:
 8002a20:	2800      	cmp	r0, #0
 8002a22:	f000 8316 	beq.w	8003052 <HAL_RCC_OscConfig+0x632>
 8002a26:	e92d 41f0 	stmdb	sp!, {r4, r5, r6, r7, r8, lr}
 8002a2a:	4aa1      	ldr	r2, [pc, #644]	; (8002cb0 <HAL_RCC_OscConfig+0x290>)
 8002a2c:	6803      	ldr	r3, [r0, #0]
 8002a2e:	69d5      	ldr	r5, [r2, #28]
 8002a30:	6a96      	ldr	r6, [r2, #40]	; 0x28
 8002a32:	4604      	mov	r4, r0
 8002a34:	06d8      	lsls	r0, r3, #27
 8002a36:	b084      	sub	sp, #16
 8002a38:	f005 050c 	and.w	r5, r5, #12
 8002a3c:	f006 0603 	and.w	r6, r6, #3
 8002a40:	d531      	bpl.n	8002aa6 <HAL_RCC_OscConfig+0x86>
 8002a42:	2d00      	cmp	r5, #0
 8002a44:	f000 81be 	beq.w	8002dc4 <HAL_RCC_OscConfig+0x3a4>
 8002a48:	2d0c      	cmp	r5, #12
 8002a4a:	f000 81b8 	beq.w	8002dbe <HAL_RCC_OscConfig+0x39e>
 8002a4e:	69e3      	ldr	r3, [r4, #28]
 8002a50:	4f97      	ldr	r7, [pc, #604]	; (8002cb0 <HAL_RCC_OscConfig+0x290>)
 8002a52:	2b00      	cmp	r3, #0
 8002a54:	f000 8267 	beq.w	8002f26 <HAL_RCC_OscConfig+0x506>
 8002a58:	683b      	ldr	r3, [r7, #0]
 8002a5a:	f043 0301 	orr.w	r3, r3, #1
 8002a5e:	603b      	str	r3, [r7, #0]
 8002a60:	f7fe fb1e 	bl	80010a0 <HAL_GetTick>
 8002a64:	4680      	mov	r8, r0
 8002a66:	e006      	b.n	8002a76 <HAL_RCC_OscConfig+0x56>
 8002a68:	f7fe fb1a 	bl	80010a0 <HAL_GetTick>
 8002a6c:	eba0 0008 	sub.w	r0, r0, r8
 8002a70:	2802      	cmp	r0, #2
 8002a72:	f200 821d 	bhi.w	8002eb0 <HAL_RCC_OscConfig+0x490>
 8002a76:	683b      	ldr	r3, [r7, #0]
 8002a78:	075b      	lsls	r3, r3, #29
 8002a7a:	d5f5      	bpl.n	8002a68 <HAL_RCC_OscConfig+0x48>
 8002a7c:	68bb      	ldr	r3, [r7, #8]
 8002a7e:	f443 0300 	orr.w	r3, r3, #8388608	; 0x800000
 8002a82:	60bb      	str	r3, [r7, #8]
 8002a84:	68bb      	ldr	r3, [r7, #8]
 8002a86:	6a62      	ldr	r2, [r4, #36]	; 0x24
 8002a88:	f023 4370 	bic.w	r3, r3, #4026531840	; 0xf0000000
 8002a8c:	4313      	orrs	r3, r2
 8002a8e:	60bb      	str	r3, [r7, #8]
 8002a90:	f1b2 4f40 	cmp.w	r2, #3221225472	; 0xc0000000
 8002a94:	68fb      	ldr	r3, [r7, #12]
 8002a96:	f0c0 8414 	bcc.w	80032c2 <HAL_RCC_OscConfig+0x8a2>
 8002a9a:	6a22      	ldr	r2, [r4, #32]
 8002a9c:	f023 031f 	bic.w	r3, r3, #31
 8002aa0:	4313      	orrs	r3, r2
 8002aa2:	60fb      	str	r3, [r7, #12]
 8002aa4:	6823      	ldr	r3, [r4, #0]
 8002aa6:	07d9      	lsls	r1, r3, #31
 8002aa8:	d531      	bpl.n	8002b0e <HAL_RCC_OscConfig+0xee>
 8002aaa:	2d08      	cmp	r5, #8
 8002aac:	f000 81e6 	beq.w	8002e7c <HAL_RCC_OscConfig+0x45c>
 8002ab0:	2d0c      	cmp	r5, #12
 8002ab2:	f000 81e0 	beq.w	8002e76 <HAL_RCC_OscConfig+0x456>
 8002ab6:	6863      	ldr	r3, [r4, #4]
 8002ab8:	f5b3 3f80 	cmp.w	r3, #65536	; 0x10000
 8002abc:	f000 8245 	beq.w	8002f4a <HAL_RCC_OscConfig+0x52a>
 8002ac0:	f5b3 2fa0 	cmp.w	r3, #327680	; 0x50000
 8002ac4:	f000 83cd 	beq.w	8003262 <HAL_RCC_OscConfig+0x842>
 8002ac8:	f5b3 1fa8 	cmp.w	r3, #1376256	; 0x150000
 8002acc:	f000 83eb 	beq.w	80032a6 <HAL_RCC_OscConfig+0x886>
 8002ad0:	4f77      	ldr	r7, [pc, #476]	; (8002cb0 <HAL_RCC_OscConfig+0x290>)
 8002ad2:	683a      	ldr	r2, [r7, #0]
 8002ad4:	f422 3280 	bic.w	r2, r2, #65536	; 0x10000
 8002ad8:	603a      	str	r2, [r7, #0]
 8002ada:	683a      	ldr	r2, [r7, #0]
 8002adc:	f422 2280 	bic.w	r2, r2, #262144	; 0x40000
 8002ae0:	603a      	str	r2, [r7, #0]
 8002ae2:	683a      	ldr	r2, [r7, #0]
 8002ae4:	f422 1280 	bic.w	r2, r2, #1048576	; 0x100000
 8002ae8:	603a      	str	r2, [r7, #0]
 8002aea:	2b00      	cmp	r3, #0
 8002aec:	f040 8232 	bne.w	8002f54 <HAL_RCC_OscConfig+0x534>
 8002af0:	f7fe fad6 	bl	80010a0 <HAL_GetTick>
 8002af4:	4680      	mov	r8, r0
 8002af6:	e006      	b.n	8002b06 <HAL_RCC_OscConfig+0xe6>
 8002af8:	f7fe fad2 	bl	80010a0 <HAL_GetTick>
 8002afc:	eba0 0008 	sub.w	r0, r0, r8
 8002b00:	2864      	cmp	r0, #100	; 0x64
 8002b02:	f200 81d5 	bhi.w	8002eb0 <HAL_RCC_OscConfig+0x490>
 8002b06:	683b      	ldr	r3, [r7, #0]
 8002b08:	0398      	lsls	r0, r3, #14
 8002b0a:	d4f5      	bmi.n	8002af8 <HAL_RCC_OscConfig+0xd8>
 8002b0c:	6823      	ldr	r3, [r4, #0]
 8002b0e:	0799      	lsls	r1, r3, #30
 8002b10:	f100 8132 	bmi.w	8002d78 <HAL_RCC_OscConfig+0x358>
 8002b14:	0718      	lsls	r0, r3, #28
 8002b16:	d541      	bpl.n	8002b9c <HAL_RCC_OscConfig+0x17c>
 8002b18:	4b65      	ldr	r3, [pc, #404]	; (8002cb0 <HAL_RCC_OscConfig+0x290>)
 8002b1a:	f8d3 2094 	ldr.w	r2, [r3, #148]	; 0x94
 8002b1e:	0751      	lsls	r1, r2, #29
 8002b20:	f140 8189 	bpl.w	8002e36 <HAL_RCC_OscConfig+0x416>
 8002b24:	2500      	movs	r5, #0
 8002b26:	4e63      	ldr	r6, [pc, #396]	; (8002cb4 <HAL_RCC_OscConfig+0x294>)
 8002b28:	6ab3      	ldr	r3, [r6, #40]	; 0x28
 8002b2a:	07da      	lsls	r2, r3, #31
 8002b2c:	f140 81b0 	bpl.w	8002e90 <HAL_RCC_OscConfig+0x470>
 8002b30:	6963      	ldr	r3, [r4, #20]
 8002b32:	2b00      	cmp	r3, #0
 8002b34:	f000 8274 	beq.w	8003020 <HAL_RCC_OscConfig+0x600>
 8002b38:	4e5d      	ldr	r6, [pc, #372]	; (8002cb0 <HAL_RCC_OscConfig+0x290>)
 8002b3a:	69a2      	ldr	r2, [r4, #24]
 8002b3c:	f8d6 30f0 	ldr.w	r3, [r6, #240]	; 0xf0
 8002b40:	f003 5180 	and.w	r1, r3, #268435456	; 0x10000000
 8002b44:	428a      	cmp	r2, r1
 8002b46:	d010      	beq.n	8002b6a <HAL_RCC_OscConfig+0x14a>
 8002b48:	f003 6140 	and.w	r1, r3, #201326592	; 0xc000000
 8002b4c:	f1b1 6f00 	cmp.w	r1, #134217728	; 0x8000000
 8002b50:	f000 816d 	beq.w	8002e2e <HAL_RCC_OscConfig+0x40e>
 8002b54:	0158      	lsls	r0, r3, #5
 8002b56:	f100 834a 	bmi.w	80031ee <HAL_RCC_OscConfig+0x7ce>
 8002b5a:	4955      	ldr	r1, [pc, #340]	; (8002cb0 <HAL_RCC_OscConfig+0x290>)
 8002b5c:	f8d1 30f0 	ldr.w	r3, [r1, #240]	; 0xf0
 8002b60:	f023 5380 	bic.w	r3, r3, #268435456	; 0x10000000
 8002b64:	4313      	orrs	r3, r2
 8002b66:	f8c1 30f0 	str.w	r3, [r1, #240]	; 0xf0
 8002b6a:	4e51      	ldr	r6, [pc, #324]	; (8002cb0 <HAL_RCC_OscConfig+0x290>)
 8002b6c:	f8d6 30f0 	ldr.w	r3, [r6, #240]	; 0xf0
 8002b70:	f043 6380 	orr.w	r3, r3, #67108864	; 0x4000000
 8002b74:	f8c6 30f0 	str.w	r3, [r6, #240]	; 0xf0
 8002b78:	f7fe fa92 	bl	80010a0 <HAL_GetTick>
 8002b7c:	4607      	mov	r7, r0
 8002b7e:	e005      	b.n	8002b8c <HAL_RCC_OscConfig+0x16c>
 8002b80:	f7fe fa8e 	bl	80010a0 <HAL_GetTick>
 8002b84:	1bc0      	subs	r0, r0, r7
 8002b86:	2802      	cmp	r0, #2
 8002b88:	f200 8192 	bhi.w	8002eb0 <HAL_RCC_OscConfig+0x490>
 8002b8c:	f8d6 30f0 	ldr.w	r3, [r6, #240]	; 0xf0
 8002b90:	011a      	lsls	r2, r3, #4
 8002b92:	d5f5      	bpl.n	8002b80 <HAL_RCC_OscConfig+0x160>
 8002b94:	2d00      	cmp	r5, #0
 8002b96:	f040 8322 	bne.w	80031de <HAL_RCC_OscConfig+0x7be>
 8002b9a:	6823      	ldr	r3, [r4, #0]
 8002b9c:	075d      	lsls	r5, r3, #29
 8002b9e:	d55e      	bpl.n	8002c5e <HAL_RCC_OscConfig+0x23e>
 8002ba0:	4b43      	ldr	r3, [pc, #268]	; (8002cb0 <HAL_RCC_OscConfig+0x290>)
 8002ba2:	f8d3 2094 	ldr.w	r2, [r3, #148]	; 0x94
 8002ba6:	0750      	lsls	r0, r2, #29
 8002ba8:	f100 81fe 	bmi.w	8002fa8 <HAL_RCC_OscConfig+0x588>
 8002bac:	2501      	movs	r5, #1
 8002bae:	f8d3 2094 	ldr.w	r2, [r3, #148]	; 0x94
 8002bb2:	f042 0204 	orr.w	r2, r2, #4
 8002bb6:	f8c3 2094 	str.w	r2, [r3, #148]	; 0x94
 8002bba:	f8d3 3094 	ldr.w	r3, [r3, #148]	; 0x94
 8002bbe:	f003 0304 	and.w	r3, r3, #4
 8002bc2:	9302      	str	r3, [sp, #8]
 8002bc4:	9b02      	ldr	r3, [sp, #8]
 8002bc6:	4e3b      	ldr	r6, [pc, #236]	; (8002cb4 <HAL_RCC_OscConfig+0x294>)
 8002bc8:	6ab3      	ldr	r3, [r6, #40]	; 0x28
 8002bca:	07d9      	lsls	r1, r3, #31
 8002bcc:	f140 8338 	bpl.w	8003240 <HAL_RCC_OscConfig+0x820>
 8002bd0:	68a3      	ldr	r3, [r4, #8]
 8002bd2:	07da      	lsls	r2, r3, #31
 8002bd4:	f140 81ea 	bpl.w	8002fac <HAL_RCC_OscConfig+0x58c>
 8002bd8:	075e      	lsls	r6, r3, #29
 8002bda:	f140 82f8 	bpl.w	80031ce <HAL_RCC_OscConfig+0x7ae>
 8002bde:	4b34      	ldr	r3, [pc, #208]	; (8002cb0 <HAL_RCC_OscConfig+0x290>)
 8002be0:	f8d3 20f0 	ldr.w	r2, [r3, #240]	; 0xf0
 8002be4:	f042 0204 	orr.w	r2, r2, #4
 8002be8:	f8c3 20f0 	str.w	r2, [r3, #240]	; 0xf0
 8002bec:	f8d3 20f0 	ldr.w	r2, [r3, #240]	; 0xf0
 8002bf0:	f042 0201 	orr.w	r2, r2, #1
 8002bf4:	f8c3 20f0 	str.w	r2, [r3, #240]	; 0xf0
 8002bf8:	f7fe fa52 	bl	80010a0 <HAL_GetTick>
 8002bfc:	f241 3888 	movw	r8, #5000	; 0x1388
 8002c00:	4606      	mov	r6, r0
 8002c02:	4f2b      	ldr	r7, [pc, #172]	; (8002cb0 <HAL_RCC_OscConfig+0x290>)
 8002c04:	e005      	b.n	8002c12 <HAL_RCC_OscConfig+0x1f2>
 8002c06:	f7fe fa4b 	bl	80010a0 <HAL_GetTick>
 8002c0a:	1b80      	subs	r0, r0, r6
 8002c0c:	4540      	cmp	r0, r8
 8002c0e:	f200 814f 	bhi.w	8002eb0 <HAL_RCC_OscConfig+0x490>
 8002c12:	f8d7 30f0 	ldr.w	r3, [r7, #240]	; 0xf0
 8002c16:	0798      	lsls	r0, r3, #30
 8002c18:	d5f5      	bpl.n	8002c06 <HAL_RCC_OscConfig+0x1e6>
 8002c1a:	68a3      	ldr	r3, [r4, #8]
 8002c1c:	f013 0f80 	tst.w	r3, #128	; 0x80
 8002c20:	f8d7 30f0 	ldr.w	r3, [r7, #240]	; 0xf0
 8002c24:	f000 837c 	beq.w	8003320 <HAL_RCC_OscConfig+0x900>
 8002c28:	f043 0380 	orr.w	r3, r3, #128	; 0x80
 8002c2c:	f8c7 30f0 	str.w	r3, [r7, #240]	; 0xf0
 8002c30:	f241 3888 	movw	r8, #5000	; 0x1388
 8002c34:	4f1e      	ldr	r7, [pc, #120]	; (8002cb0 <HAL_RCC_OscConfig+0x290>)
 8002c36:	e005      	b.n	8002c44 <HAL_RCC_OscConfig+0x224>
 8002c38:	f7fe fa32 	bl	80010a0 <HAL_GetTick>
 8002c3c:	1b80      	subs	r0, r0, r6
 8002c3e:	4540      	cmp	r0, r8
 8002c40:	f200 8136 	bhi.w	8002eb0 <HAL_RCC_OscConfig+0x490>
 8002c44:	f8d7 30f0 	ldr.w	r3, [r7, #240]	; 0xf0
 8002c48:	0519      	lsls	r1, r3, #20
 8002c4a:	d5f5      	bpl.n	8002c38 <HAL_RCC_OscConfig+0x218>
 8002c4c:	b135      	cbz	r5, 8002c5c <HAL_RCC_OscConfig+0x23c>
 8002c4e:	4a18      	ldr	r2, [pc, #96]	; (8002cb0 <HAL_RCC_OscConfig+0x290>)
 8002c50:	f8d2 3094 	ldr.w	r3, [r2, #148]	; 0x94
 8002c54:	f023 0304 	bic.w	r3, r3, #4
 8002c58:	f8c2 3094 	str.w	r3, [r2, #148]	; 0x94
 8002c5c:	6823      	ldr	r3, [r4, #0]
 8002c5e:	069a      	lsls	r2, r3, #26
 8002c60:	d516      	bpl.n	8002c90 <HAL_RCC_OscConfig+0x270>
 8002c62:	6ae3      	ldr	r3, [r4, #44]	; 0x2c
 8002c64:	4d12      	ldr	r5, [pc, #72]	; (8002cb0 <HAL_RCC_OscConfig+0x290>)
 8002c66:	2b00      	cmp	r3, #0
 8002c68:	f000 81fb 	beq.w	8003062 <HAL_RCC_OscConfig+0x642>
 8002c6c:	682b      	ldr	r3, [r5, #0]
 8002c6e:	f443 5380 	orr.w	r3, r3, #4096	; 0x1000
 8002c72:	602b      	str	r3, [r5, #0]
 8002c74:	f7fe fa14 	bl	80010a0 <HAL_GetTick>
 8002c78:	4606      	mov	r6, r0
 8002c7a:	e005      	b.n	8002c88 <HAL_RCC_OscConfig+0x268>
 8002c7c:	f7fe fa10 	bl	80010a0 <HAL_GetTick>
 8002c80:	1b80      	subs	r0, r0, r6
 8002c82:	2802      	cmp	r0, #2
 8002c84:	f200 8114 	bhi.w	8002eb0 <HAL_RCC_OscConfig+0x490>
 8002c88:	682b      	ldr	r3, [r5, #0]
 8002c8a:	049b      	lsls	r3, r3, #18
 8002c8c:	d5f6      	bpl.n	8002c7c <HAL_RCC_OscConfig+0x25c>
 8002c8e:	6823      	ldr	r3, [r4, #0]
 8002c90:	0618      	lsls	r0, r3, #24
 8002c92:	d51b      	bpl.n	8002ccc <HAL_RCC_OscConfig+0x2ac>
 8002c94:	6b23      	ldr	r3, [r4, #48]	; 0x30
 8002c96:	4d06      	ldr	r5, [pc, #24]	; (8002cb0 <HAL_RCC_OscConfig+0x290>)
 8002c98:	2b00      	cmp	r3, #0
 8002c9a:	f000 8286 	beq.w	80031aa <HAL_RCC_OscConfig+0x78a>
 8002c9e:	682b      	ldr	r3, [r5, #0]
 8002ca0:	f443 4380 	orr.w	r3, r3, #16384	; 0x4000
 8002ca4:	602b      	str	r3, [r5, #0]
 8002ca6:	f7fe f9fb 	bl	80010a0 <HAL_GetTick>
 8002caa:	4606      	mov	r6, r0
 8002cac:	e00a      	b.n	8002cc4 <HAL_RCC_OscConfig+0x2a4>
 8002cae:	bf00      	nop
 8002cb0:	46020c00 	.word	0x46020c00
 8002cb4:	46020800 	.word	0x46020800
 8002cb8:	f7fe f9f2 	bl	80010a0 <HAL_GetTick>
 8002cbc:	1b80      	subs	r0, r0, r6
 8002cbe:	2802      	cmp	r0, #2
 8002cc0:	f200 80f6 	bhi.w	8002eb0 <HAL_RCC_OscConfig+0x490>
 8002cc4:	682b      	ldr	r3, [r5, #0]
 8002cc6:	0419      	lsls	r1, r3, #16
 8002cc8:	d5f6      	bpl.n	8002cb8 <HAL_RCC_OscConfig+0x298>
 8002cca:	6823      	ldr	r3, [r4, #0]
 8002ccc:	065b      	lsls	r3, r3, #25
 8002cce:	d52b      	bpl.n	8002d28 <HAL_RCC_OscConfig+0x308>
 8002cd0:	6b63      	ldr	r3, [r4, #52]	; 0x34
 8002cd2:	2b00      	cmp	r3, #0
 8002cd4:	f000 82a1 	beq.w	800321a <HAL_RCC_OscConfig+0x7fa>
 8002cd8:	4ba6      	ldr	r3, [pc, #664]	; (8002f74 <HAL_RCC_OscConfig+0x554>)
 8002cda:	689a      	ldr	r2, [r3, #8]
 8002cdc:	f442 0200 	orr.w	r2, r2, #8388608	; 0x800000
 8002ce0:	609a      	str	r2, [r3, #8]
 8002ce2:	689a      	ldr	r2, [r3, #8]
 8002ce4:	6aa1      	ldr	r1, [r4, #40]	; 0x28
 8002ce6:	f022 6270 	bic.w	r2, r2, #251658240	; 0xf000000
 8002cea:	430a      	orrs	r2, r1
 8002cec:	609a      	str	r2, [r3, #8]
 8002cee:	6a62      	ldr	r2, [r4, #36]	; 0x24
 8002cf0:	f1b2 4f40 	cmp.w	r2, #3221225472	; 0xc0000000
 8002cf4:	f0c0 8303 	bcc.w	80032fe <HAL_RCC_OscConfig+0x8de>
 8002cf8:	68da      	ldr	r2, [r3, #12]
 8002cfa:	6a21      	ldr	r1, [r4, #32]
 8002cfc:	f022 021f 	bic.w	r2, r2, #31
 8002d00:	430a      	orrs	r2, r1
 8002d02:	60da      	str	r2, [r3, #12]
 8002d04:	4d9b      	ldr	r5, [pc, #620]	; (8002f74 <HAL_RCC_OscConfig+0x554>)
 8002d06:	682b      	ldr	r3, [r5, #0]
 8002d08:	f043 0310 	orr.w	r3, r3, #16
 8002d0c:	602b      	str	r3, [r5, #0]
 8002d0e:	f7fe f9c7 	bl	80010a0 <HAL_GetTick>
 8002d12:	4606      	mov	r6, r0
 8002d14:	e005      	b.n	8002d22 <HAL_RCC_OscConfig+0x302>
 8002d16:	f7fe f9c3 	bl	80010a0 <HAL_GetTick>
 8002d1a:	1b80      	subs	r0, r0, r6
 8002d1c:	2802      	cmp	r0, #2
 8002d1e:	f200 80c7 	bhi.w	8002eb0 <HAL_RCC_OscConfig+0x490>
 8002d22:	682b      	ldr	r3, [r5, #0]
 8002d24:	069f      	lsls	r7, r3, #26
 8002d26:	d5f6      	bpl.n	8002d16 <HAL_RCC_OscConfig+0x2f6>
 8002d28:	6ba0      	ldr	r0, [r4, #56]	; 0x38
 8002d2a:	2800      	cmp	r0, #0
 8002d2c:	f000 823b 	beq.w	80031a6 <HAL_RCC_OscConfig+0x786>
 8002d30:	4d90      	ldr	r5, [pc, #576]	; (8002f74 <HAL_RCC_OscConfig+0x554>)
 8002d32:	69eb      	ldr	r3, [r5, #28]
 8002d34:	f003 030c 	and.w	r3, r3, #12
 8002d38:	2b0c      	cmp	r3, #12
 8002d3a:	f000 830b 	beq.w	8003354 <HAL_RCC_OscConfig+0x934>
 8002d3e:	682b      	ldr	r3, [r5, #0]
 8002d40:	2802      	cmp	r0, #2
 8002d42:	f023 7380 	bic.w	r3, r3, #16777216	; 0x1000000
 8002d46:	602b      	str	r3, [r5, #0]
 8002d48:	f000 81a3 	beq.w	8003092 <HAL_RCC_OscConfig+0x672>
 8002d4c:	f7fe f9a8 	bl	80010a0 <HAL_GetTick>
 8002d50:	4604      	mov	r4, r0
 8002d52:	e005      	b.n	8002d60 <HAL_RCC_OscConfig+0x340>
 8002d54:	f7fe f9a4 	bl	80010a0 <HAL_GetTick>
 8002d58:	1b00      	subs	r0, r0, r4
 8002d5a:	2802      	cmp	r0, #2
 8002d5c:	f200 80a8 	bhi.w	8002eb0 <HAL_RCC_OscConfig+0x490>
 8002d60:	682b      	ldr	r3, [r5, #0]
 8002d62:	f013 7300 	ands.w	r3, r3, #33554432	; 0x2000000
 8002d66:	d1f5      	bne.n	8002d54 <HAL_RCC_OscConfig+0x334>
 8002d68:	6aaa      	ldr	r2, [r5, #40]	; 0x28
 8002d6a:	4618      	mov	r0, r3
 8002d6c:	f422 22e0 	bic.w	r2, r2, #458752	; 0x70000
 8002d70:	f022 0203 	bic.w	r2, r2, #3
 8002d74:	62aa      	str	r2, [r5, #40]	; 0x28
 8002d76:	e05b      	b.n	8002e30 <HAL_RCC_OscConfig+0x410>
 8002d78:	2d04      	cmp	r5, #4
 8002d7a:	d06c      	beq.n	8002e56 <HAL_RCC_OscConfig+0x436>
 8002d7c:	2d0c      	cmp	r5, #12
 8002d7e:	d068      	beq.n	8002e52 <HAL_RCC_OscConfig+0x432>
 8002d80:	68e3      	ldr	r3, [r4, #12]
 8002d82:	4d7c      	ldr	r5, [pc, #496]	; (8002f74 <HAL_RCC_OscConfig+0x554>)
 8002d84:	2b00      	cmp	r3, #0
 8002d86:	f000 80fd 	beq.w	8002f84 <HAL_RCC_OscConfig+0x564>
 8002d8a:	682b      	ldr	r3, [r5, #0]
 8002d8c:	f443 7380 	orr.w	r3, r3, #256	; 0x100
 8002d90:	602b      	str	r3, [r5, #0]
 8002d92:	f7fe f985 	bl	80010a0 <HAL_GetTick>
 8002d96:	4606      	mov	r6, r0
 8002d98:	e005      	b.n	8002da6 <HAL_RCC_OscConfig+0x386>
 8002d9a:	f7fe f981 	bl	80010a0 <HAL_GetTick>
 8002d9e:	1b80      	subs	r0, r0, r6
 8002da0:	2802      	cmp	r0, #2
 8002da2:	f200 8085 	bhi.w	8002eb0 <HAL_RCC_OscConfig+0x490>
 8002da6:	682b      	ldr	r3, [r5, #0]
 8002da8:	055b      	lsls	r3, r3, #21
 8002daa:	d5f6      	bpl.n	8002d9a <HAL_RCC_OscConfig+0x37a>
 8002dac:	692b      	ldr	r3, [r5, #16]
 8002dae:	6922      	ldr	r2, [r4, #16]
 8002db0:	f423 13f8 	bic.w	r3, r3, #2031616	; 0x1f0000
 8002db4:	ea43 4302 	orr.w	r3, r3, r2, lsl #16
 8002db8:	612b      	str	r3, [r5, #16]
 8002dba:	6823      	ldr	r3, [r4, #0]
 8002dbc:	e6aa      	b.n	8002b14 <HAL_RCC_OscConfig+0xf4>
 8002dbe:	2e01      	cmp	r6, #1
 8002dc0:	f47f ae45 	bne.w	8002a4e <HAL_RCC_OscConfig+0x2e>
 8002dc4:	4b6b      	ldr	r3, [pc, #428]	; (8002f74 <HAL_RCC_OscConfig+0x554>)
 8002dc6:	681b      	ldr	r3, [r3, #0]
 8002dc8:	0759      	lsls	r1, r3, #29
 8002dca:	d42d      	bmi.n	8002e28 <HAL_RCC_OscConfig+0x408>
 8002dcc:	4b69      	ldr	r3, [pc, #420]	; (8002f74 <HAL_RCC_OscConfig+0x554>)
 8002dce:	6a60      	ldr	r0, [r4, #36]	; 0x24
 8002dd0:	689a      	ldr	r2, [r3, #8]
 8002dd2:	0212      	lsls	r2, r2, #8
 8002dd4:	bf56      	itet	pl
 8002dd6:	f8d3 30f4 	ldrpl.w	r3, [r3, #244]	; 0xf4
 8002dda:	689b      	ldrmi	r3, [r3, #8]
 8002ddc:	041b      	lslpl	r3, r3, #16
 8002dde:	f003 4370 	and.w	r3, r3, #4026531840	; 0xf0000000
 8002de2:	4298      	cmp	r0, r3
 8002de4:	d968      	bls.n	8002eb8 <HAL_RCC_OscConfig+0x498>
 8002de6:	2d00      	cmp	r5, #0
 8002de8:	f000 8256 	beq.w	8003298 <HAL_RCC_OscConfig+0x878>
 8002dec:	4b61      	ldr	r3, [pc, #388]	; (8002f74 <HAL_RCC_OscConfig+0x554>)
 8002dee:	f1b0 4f40 	cmp.w	r0, #3221225472	; 0xc0000000
 8002df2:	689a      	ldr	r2, [r3, #8]
 8002df4:	f442 0200 	orr.w	r2, r2, #8388608	; 0x800000
 8002df8:	609a      	str	r2, [r3, #8]
 8002dfa:	689a      	ldr	r2, [r3, #8]
 8002dfc:	f022 4270 	bic.w	r2, r2, #4026531840	; 0xf0000000
 8002e00:	ea42 0200 	orr.w	r2, r2, r0
 8002e04:	609a      	str	r2, [r3, #8]
 8002e06:	68da      	ldr	r2, [r3, #12]
 8002e08:	f080 813d 	bcs.w	8003086 <HAL_RCC_OscConfig+0x666>
 8002e0c:	2800      	cmp	r0, #0
 8002e0e:	f2c0 826f 	blt.w	80032f0 <HAL_RCC_OscConfig+0x8d0>
 8002e12:	f1b0 4f80 	cmp.w	r0, #1073741824	; 0x40000000
 8002e16:	f0c0 82d2 	bcc.w	80033be <HAL_RCC_OscConfig+0x99e>
 8002e1a:	6a21      	ldr	r1, [r4, #32]
 8002e1c:	f422 42f8 	bic.w	r2, r2, #31744	; 0x7c00
 8002e20:	ea42 2281 	orr.w	r2, r2, r1, lsl #10
 8002e24:	60da      	str	r2, [r3, #12]
 8002e26:	e067      	b.n	8002ef8 <HAL_RCC_OscConfig+0x4d8>
 8002e28:	69e3      	ldr	r3, [r4, #28]
 8002e2a:	2b00      	cmp	r3, #0
 8002e2c:	d1ce      	bne.n	8002dcc <HAL_RCC_OscConfig+0x3ac>
 8002e2e:	2001      	movs	r0, #1
 8002e30:	b004      	add	sp, #16
 8002e32:	e8bd 81f0 	ldmia.w	sp!, {r4, r5, r6, r7, r8, pc}
 8002e36:	f8d3 2094 	ldr.w	r2, [r3, #148]	; 0x94
 8002e3a:	2501      	movs	r5, #1
 8002e3c:	f042 0204 	orr.w	r2, r2, #4
 8002e40:	f8c3 2094 	str.w	r2, [r3, #148]	; 0x94
 8002e44:	f8d3 3094 	ldr.w	r3, [r3, #148]	; 0x94
 8002e48:	f003 0304 	and.w	r3, r3, #4
 8002e4c:	9301      	str	r3, [sp, #4]
 8002e4e:	9b01      	ldr	r3, [sp, #4]
 8002e50:	e669      	b.n	8002b26 <HAL_RCC_OscConfig+0x106>
 8002e52:	2e02      	cmp	r6, #2
 8002e54:	d194      	bne.n	8002d80 <HAL_RCC_OscConfig+0x360>
 8002e56:	4a47      	ldr	r2, [pc, #284]	; (8002f74 <HAL_RCC_OscConfig+0x554>)
 8002e58:	6812      	ldr	r2, [r2, #0]
 8002e5a:	0552      	lsls	r2, r2, #21
 8002e5c:	d502      	bpl.n	8002e64 <HAL_RCC_OscConfig+0x444>
 8002e5e:	68e2      	ldr	r2, [r4, #12]
 8002e60:	2a00      	cmp	r2, #0
 8002e62:	d0e4      	beq.n	8002e2e <HAL_RCC_OscConfig+0x40e>
 8002e64:	4943      	ldr	r1, [pc, #268]	; (8002f74 <HAL_RCC_OscConfig+0x554>)
 8002e66:	6920      	ldr	r0, [r4, #16]
 8002e68:	690a      	ldr	r2, [r1, #16]
 8002e6a:	f422 12f8 	bic.w	r2, r2, #2031616	; 0x1f0000
 8002e6e:	ea42 4200 	orr.w	r2, r2, r0, lsl #16
 8002e72:	610a      	str	r2, [r1, #16]
 8002e74:	e64e      	b.n	8002b14 <HAL_RCC_OscConfig+0xf4>
 8002e76:	2e03      	cmp	r6, #3
 8002e78:	f47f ae1d 	bne.w	8002ab6 <HAL_RCC_OscConfig+0x96>
 8002e7c:	4a3d      	ldr	r2, [pc, #244]	; (8002f74 <HAL_RCC_OscConfig+0x554>)
 8002e7e:	6812      	ldr	r2, [r2, #0]
 8002e80:	0392      	lsls	r2, r2, #14
 8002e82:	f57f ae44 	bpl.w	8002b0e <HAL_RCC_OscConfig+0xee>
 8002e86:	6862      	ldr	r2, [r4, #4]
 8002e88:	2a00      	cmp	r2, #0
 8002e8a:	f47f ae40 	bne.w	8002b0e <HAL_RCC_OscConfig+0xee>
 8002e8e:	e7ce      	b.n	8002e2e <HAL_RCC_OscConfig+0x40e>
 8002e90:	6ab3      	ldr	r3, [r6, #40]	; 0x28
 8002e92:	f043 0301 	orr.w	r3, r3, #1
 8002e96:	62b3      	str	r3, [r6, #40]	; 0x28
 8002e98:	f7fe f902 	bl	80010a0 <HAL_GetTick>
 8002e9c:	4607      	mov	r7, r0
 8002e9e:	6ab3      	ldr	r3, [r6, #40]	; 0x28
 8002ea0:	07db      	lsls	r3, r3, #31
 8002ea2:	f53f ae45 	bmi.w	8002b30 <HAL_RCC_OscConfig+0x110>
 8002ea6:	f7fe f8fb 	bl	80010a0 <HAL_GetTick>
 8002eaa:	1bc0      	subs	r0, r0, r7
 8002eac:	2802      	cmp	r0, #2
 8002eae:	d9f6      	bls.n	8002e9e <HAL_RCC_OscConfig+0x47e>
 8002eb0:	2003      	movs	r0, #3
 8002eb2:	b004      	add	sp, #16
 8002eb4:	e8bd 81f0 	ldmia.w	sp!, {r4, r5, r6, r7, r8, pc}
 8002eb8:	4b2e      	ldr	r3, [pc, #184]	; (8002f74 <HAL_RCC_OscConfig+0x554>)
 8002eba:	f1b0 4f40 	cmp.w	r0, #3221225472	; 0xc0000000
 8002ebe:	689a      	ldr	r2, [r3, #8]
 8002ec0:	f442 0200 	orr.w	r2, r2, #8388608	; 0x800000
 8002ec4:	609a      	str	r2, [r3, #8]
 8002ec6:	689a      	ldr	r2, [r3, #8]
 8002ec8:	f022 4270 	bic.w	r2, r2, #4026531840	; 0xf0000000
 8002ecc:	ea42 0200 	orr.w	r2, r2, r0
 8002ed0:	609a      	str	r2, [r3, #8]
 8002ed2:	68da      	ldr	r2, [r3, #12]
 8002ed4:	f080 80bf 	bcs.w	8003056 <HAL_RCC_OscConfig+0x636>
 8002ed8:	2800      	cmp	r0, #0
 8002eda:	f2c0 8202 	blt.w	80032e2 <HAL_RCC_OscConfig+0x8c2>
 8002ede:	f1b0 4f80 	cmp.w	r0, #1073741824	; 0x40000000
 8002ee2:	f0c0 8230 	bcc.w	8003346 <HAL_RCC_OscConfig+0x926>
 8002ee6:	6a21      	ldr	r1, [r4, #32]
 8002ee8:	f422 42f8 	bic.w	r2, r2, #31744	; 0x7c00
 8002eec:	ea42 2281 	orr.w	r2, r2, r1, lsl #10
 8002ef0:	60da      	str	r2, [r3, #12]
 8002ef2:	2d00      	cmp	r5, #0
 8002ef4:	f000 81ca 	beq.w	800328c <HAL_RCC_OscConfig+0x86c>
 8002ef8:	f7ff fb9e 	bl	8002638 <HAL_RCC_GetSysClockFreq>
 8002efc:	4603      	mov	r3, r0
 8002efe:	4a1d      	ldr	r2, [pc, #116]	; (8002f74 <HAL_RCC_OscConfig+0x554>)
 8002f00:	491d      	ldr	r1, [pc, #116]	; (8002f78 <HAL_RCC_OscConfig+0x558>)
 8002f02:	6a12      	ldr	r2, [r2, #32]
 8002f04:	f002 020f 	and.w	r2, r2, #15
 8002f08:	5c89      	ldrb	r1, [r1, r2]
 8002f0a:	4a1c      	ldr	r2, [pc, #112]	; (8002f7c <HAL_RCC_OscConfig+0x55c>)
 8002f0c:	40cb      	lsrs	r3, r1
 8002f0e:	6810      	ldr	r0, [r2, #0]
 8002f10:	4a1b      	ldr	r2, [pc, #108]	; (8002f80 <HAL_RCC_OscConfig+0x560>)
 8002f12:	6013      	str	r3, [r2, #0]
 8002f14:	f7fe f868 	bl	8000fe8 <HAL_InitTick>
 8002f18:	2800      	cmp	r0, #0
 8002f1a:	d189      	bne.n	8002e30 <HAL_RCC_OscConfig+0x410>
 8002f1c:	6823      	ldr	r3, [r4, #0]
 8002f1e:	07d9      	lsls	r1, r3, #31
 8002f20:	f57f adf5 	bpl.w	8002b0e <HAL_RCC_OscConfig+0xee>
 8002f24:	e5c1      	b.n	8002aaa <HAL_RCC_OscConfig+0x8a>
 8002f26:	683b      	ldr	r3, [r7, #0]
 8002f28:	f023 0301 	bic.w	r3, r3, #1
 8002f2c:	603b      	str	r3, [r7, #0]
 8002f2e:	f7fe f8b7 	bl	80010a0 <HAL_GetTick>
 8002f32:	4680      	mov	r8, r0
 8002f34:	e005      	b.n	8002f42 <HAL_RCC_OscConfig+0x522>
 8002f36:	f7fe f8b3 	bl	80010a0 <HAL_GetTick>
 8002f3a:	eba0 0008 	sub.w	r0, r0, r8
 8002f3e:	2802      	cmp	r0, #2
 8002f40:	d8b6      	bhi.n	8002eb0 <HAL_RCC_OscConfig+0x490>
 8002f42:	683b      	ldr	r3, [r7, #0]
 8002f44:	0758      	lsls	r0, r3, #29
 8002f46:	d4f6      	bmi.n	8002f36 <HAL_RCC_OscConfig+0x516>
 8002f48:	e7e8      	b.n	8002f1c <HAL_RCC_OscConfig+0x4fc>
 8002f4a:	4a0a      	ldr	r2, [pc, #40]	; (8002f74 <HAL_RCC_OscConfig+0x554>)
 8002f4c:	6813      	ldr	r3, [r2, #0]
 8002f4e:	f443 3380 	orr.w	r3, r3, #65536	; 0x10000
 8002f52:	6013      	str	r3, [r2, #0]
 8002f54:	f7fe f8a4 	bl	80010a0 <HAL_GetTick>
 8002f58:	f8df 8018 	ldr.w	r8, [pc, #24]	; 8002f74 <HAL_RCC_OscConfig+0x554>
 8002f5c:	4607      	mov	r7, r0
 8002f5e:	e004      	b.n	8002f6a <HAL_RCC_OscConfig+0x54a>
 8002f60:	f7fe f89e 	bl	80010a0 <HAL_GetTick>
 8002f64:	1bc0      	subs	r0, r0, r7
 8002f66:	2864      	cmp	r0, #100	; 0x64
 8002f68:	d8a2      	bhi.n	8002eb0 <HAL_RCC_OscConfig+0x490>
 8002f6a:	f8d8 3000 	ldr.w	r3, [r8]
 8002f6e:	039b      	lsls	r3, r3, #14
 8002f70:	d5f6      	bpl.n	8002f60 <HAL_RCC_OscConfig+0x540>
 8002f72:	e5cb      	b.n	8002b0c <HAL_RCC_OscConfig+0xec>
 8002f74:	46020c00 	.word	0x46020c00
 8002f78:	080060f4 	.word	0x080060f4
 8002f7c:	20025808 	.word	0x20025808
 8002f80:	20025800 	.word	0x20025800
 8002f84:	682b      	ldr	r3, [r5, #0]
 8002f86:	f423 7380 	bic.w	r3, r3, #256	; 0x100
 8002f8a:	602b      	str	r3, [r5, #0]
 8002f8c:	f7fe f888 	bl	80010a0 <HAL_GetTick>
 8002f90:	4606      	mov	r6, r0
 8002f92:	e004      	b.n	8002f9e <HAL_RCC_OscConfig+0x57e>
 8002f94:	f7fe f884 	bl	80010a0 <HAL_GetTick>
 8002f98:	1b80      	subs	r0, r0, r6
 8002f9a:	2802      	cmp	r0, #2
 8002f9c:	d888      	bhi.n	8002eb0 <HAL_RCC_OscConfig+0x490>
 8002f9e:	682b      	ldr	r3, [r5, #0]
 8002fa0:	055f      	lsls	r7, r3, #21
 8002fa2:	d4f7      	bmi.n	8002f94 <HAL_RCC_OscConfig+0x574>
 8002fa4:	6823      	ldr	r3, [r4, #0]
 8002fa6:	e5b5      	b.n	8002b14 <HAL_RCC_OscConfig+0xf4>
 8002fa8:	2500      	movs	r5, #0
 8002faa:	e60c      	b.n	8002bc6 <HAL_RCC_OscConfig+0x1a6>
 8002fac:	4eb4      	ldr	r6, [pc, #720]	; (8003280 <HAL_RCC_OscConfig+0x860>)
 8002fae:	f8d6 20f0 	ldr.w	r2, [r6, #240]	; 0xf0
 8002fb2:	f022 0201 	bic.w	r2, r2, #1
 8002fb6:	f8c6 20f0 	str.w	r2, [r6, #240]	; 0xf0
 8002fba:	f8d6 20f0 	ldr.w	r2, [r6, #240]	; 0xf0
 8002fbe:	f022 0204 	bic.w	r2, r2, #4
 8002fc2:	f8c6 20f0 	str.w	r2, [r6, #240]	; 0xf0
 8002fc6:	2b00      	cmp	r3, #0
 8002fc8:	f47f ae16 	bne.w	8002bf8 <HAL_RCC_OscConfig+0x1d8>
 8002fcc:	f7fe f868 	bl	80010a0 <HAL_GetTick>
 8002fd0:	f241 3888 	movw	r8, #5000	; 0x1388
 8002fd4:	4607      	mov	r7, r0
 8002fd6:	e005      	b.n	8002fe4 <HAL_RCC_OscConfig+0x5c4>
 8002fd8:	f7fe f862 	bl	80010a0 <HAL_GetTick>
 8002fdc:	1bc0      	subs	r0, r0, r7
 8002fde:	4540      	cmp	r0, r8
 8002fe0:	f63f af66 	bhi.w	8002eb0 <HAL_RCC_OscConfig+0x490>
 8002fe4:	f8d6 30f0 	ldr.w	r3, [r6, #240]	; 0xf0
 8002fe8:	079b      	lsls	r3, r3, #30
 8002fea:	d4f5      	bmi.n	8002fd8 <HAL_RCC_OscConfig+0x5b8>
 8002fec:	f8d6 30f0 	ldr.w	r3, [r6, #240]	; 0xf0
 8002ff0:	0618      	lsls	r0, r3, #24
 8002ff2:	f57f ae2b 	bpl.w	8002c4c <HAL_RCC_OscConfig+0x22c>
 8002ff6:	f8d6 30f0 	ldr.w	r3, [r6, #240]	; 0xf0
 8002ffa:	f241 3888 	movw	r8, #5000	; 0x1388
 8002ffe:	f023 0380 	bic.w	r3, r3, #128	; 0x80
 8003002:	f8c6 30f0 	str.w	r3, [r6, #240]	; 0xf0
 8003006:	4e9e      	ldr	r6, [pc, #632]	; (8003280 <HAL_RCC_OscConfig+0x860>)
 8003008:	e005      	b.n	8003016 <HAL_RCC_OscConfig+0x5f6>
 800300a:	f7fe f849 	bl	80010a0 <HAL_GetTick>
 800300e:	1bc0      	subs	r0, r0, r7
 8003010:	4540      	cmp	r0, r8
 8003012:	f63f af4d 	bhi.w	8002eb0 <HAL_RCC_OscConfig+0x490>
 8003016:	f8d6 30f0 	ldr.w	r3, [r6, #240]	; 0xf0
 800301a:	0519      	lsls	r1, r3, #20
 800301c:	d4f5      	bmi.n	800300a <HAL_RCC_OscConfig+0x5ea>
 800301e:	e615      	b.n	8002c4c <HAL_RCC_OscConfig+0x22c>
 8003020:	4e97      	ldr	r6, [pc, #604]	; (8003280 <HAL_RCC_OscConfig+0x860>)
 8003022:	f8d6 30f0 	ldr.w	r3, [r6, #240]	; 0xf0
 8003026:	f023 53a0 	bic.w	r3, r3, #335544320	; 0x14000000
 800302a:	f8c6 30f0 	str.w	r3, [r6, #240]	; 0xf0
 800302e:	f7fe f837 	bl	80010a0 <HAL_GetTick>
 8003032:	4607      	mov	r7, r0
 8003034:	e005      	b.n	8003042 <HAL_RCC_OscConfig+0x622>
 8003036:	f7fe f833 	bl	80010a0 <HAL_GetTick>
 800303a:	1bc0      	subs	r0, r0, r7
 800303c:	2802      	cmp	r0, #2
 800303e:	f63f af37 	bhi.w	8002eb0 <HAL_RCC_OscConfig+0x490>
 8003042:	f8d6 30f0 	ldr.w	r3, [r6, #240]	; 0xf0
 8003046:	011b      	lsls	r3, r3, #4
 8003048:	d4f5      	bmi.n	8003036 <HAL_RCC_OscConfig+0x616>
 800304a:	2d00      	cmp	r5, #0
 800304c:	f43f ada5 	beq.w	8002b9a <HAL_RCC_OscConfig+0x17a>
 8003050:	e0c5      	b.n	80031de <HAL_RCC_OscConfig+0x7be>
 8003052:	2001      	movs	r0, #1
 8003054:	4770      	bx	lr
 8003056:	6a21      	ldr	r1, [r4, #32]
 8003058:	f022 021f 	bic.w	r2, r2, #31
 800305c:	430a      	orrs	r2, r1
 800305e:	60da      	str	r2, [r3, #12]
 8003060:	e747      	b.n	8002ef2 <HAL_RCC_OscConfig+0x4d2>
 8003062:	682b      	ldr	r3, [r5, #0]
 8003064:	f423 5380 	bic.w	r3, r3, #4096	; 0x1000
 8003068:	602b      	str	r3, [r5, #0]
 800306a:	f7fe f819 	bl	80010a0 <HAL_GetTick>
 800306e:	4606      	mov	r6, r0
 8003070:	e005      	b.n	800307e <HAL_RCC_OscConfig+0x65e>
 8003072:	f7fe f815 	bl	80010a0 <HAL_GetTick>
 8003076:	1b80      	subs	r0, r0, r6
 8003078:	2802      	cmp	r0, #2
 800307a:	f63f af19 	bhi.w	8002eb0 <HAL_RCC_OscConfig+0x490>
 800307e:	682b      	ldr	r3, [r5, #0]
 8003080:	049f      	lsls	r7, r3, #18
 8003082:	d4f6      	bmi.n	8003072 <HAL_RCC_OscConfig+0x652>
 8003084:	e603      	b.n	8002c8e <HAL_RCC_OscConfig+0x26e>
 8003086:	6a21      	ldr	r1, [r4, #32]
 8003088:	f022 021f 	bic.w	r2, r2, #31
 800308c:	430a      	orrs	r2, r1
 800308e:	60da      	str	r2, [r3, #12]
 8003090:	e732      	b.n	8002ef8 <HAL_RCC_OscConfig+0x4d8>
 8003092:	f7fe f805 	bl	80010a0 <HAL_GetTick>
 8003096:	4606      	mov	r6, r0
 8003098:	e005      	b.n	80030a6 <HAL_RCC_OscConfig+0x686>
 800309a:	f7fe f801 	bl	80010a0 <HAL_GetTick>
 800309e:	1b80      	subs	r0, r0, r6
 80030a0:	2802      	cmp	r0, #2
 80030a2:	f63f af05 	bhi.w	8002eb0 <HAL_RCC_OscConfig+0x490>
 80030a6:	682b      	ldr	r3, [r5, #0]
 80030a8:	f013 7300 	ands.w	r3, r3, #33554432	; 0x2000000
 80030ac:	d1f5      	bne.n	800309a <HAL_RCC_OscConfig+0x67a>
 80030ae:	f8d5 2094 	ldr.w	r2, [r5, #148]	; 0x94
 80030b2:	0751      	lsls	r1, r2, #29
 80030b4:	d40c      	bmi.n	80030d0 <HAL_RCC_OscConfig+0x6b0>
 80030b6:	2301      	movs	r3, #1
 80030b8:	f8d5 2094 	ldr.w	r2, [r5, #148]	; 0x94
 80030bc:	f042 0204 	orr.w	r2, r2, #4
 80030c0:	f8c5 2094 	str.w	r2, [r5, #148]	; 0x94
 80030c4:	f8d5 2094 	ldr.w	r2, [r5, #148]	; 0x94
 80030c8:	f002 0204 	and.w	r2, r2, #4
 80030cc:	9203      	str	r2, [sp, #12]
 80030ce:	9a03      	ldr	r2, [sp, #12]
 80030d0:	4d6c      	ldr	r5, [pc, #432]	; (8003284 <HAL_RCC_OscConfig+0x864>)
 80030d2:	496b      	ldr	r1, [pc, #428]	; (8003280 <HAL_RCC_OscConfig+0x860>)
 80030d4:	68ee      	ldr	r6, [r5, #12]
 80030d6:	68ea      	ldr	r2, [r5, #12]
 80030d8:	f8df c1ac 	ldr.w	ip, [pc, #428]	; 8003288 <HAL_RCC_OscConfig+0x868>
 80030dc:	f422 2280 	bic.w	r2, r2, #262144	; 0x40000
 80030e0:	60ea      	str	r2, [r5, #12]
 80030e2:	6a88      	ldr	r0, [r1, #40]	; 0x28
 80030e4:	6c67      	ldr	r7, [r4, #68]	; 0x44
 80030e6:	6be2      	ldr	r2, [r4, #60]	; 0x3c
 80030e8:	f420 407f 	bic.w	r0, r0, #65280	; 0xff00
 80030ec:	f020 0003 	bic.w	r0, r0, #3
 80030f0:	433a      	orrs	r2, r7
 80030f2:	4302      	orrs	r2, r0
 80030f4:	6c20      	ldr	r0, [r4, #64]	; 0x40
 80030f6:	3801      	subs	r0, #1
 80030f8:	ea42 2200 	orr.w	r2, r2, r0, lsl #8
 80030fc:	628a      	str	r2, [r1, #40]	; 0x28
 80030fe:	6ce0      	ldr	r0, [r4, #76]	; 0x4c
 8003100:	6ca2      	ldr	r2, [r4, #72]	; 0x48
 8003102:	f8d1 e034 	ldr.w	lr, [r1, #52]	; 0x34
 8003106:	1e47      	subs	r7, r0, #1
 8003108:	6d20      	ldr	r0, [r4, #80]	; 0x50
 800310a:	3a01      	subs	r2, #1
 800310c:	f3c2 0208 	ubfx	r2, r2, #0, #9
 8003110:	027f      	lsls	r7, r7, #9
 8003112:	3801      	subs	r0, #1
 8003114:	ea0e 0c0c 	and.w	ip, lr, ip
 8003118:	b2bf      	uxth	r7, r7
 800311a:	0400      	lsls	r0, r0, #16
 800311c:	ea42 020c 	orr.w	r2, r2, ip
 8003120:	f400 00fe 	and.w	r0, r0, #8323072	; 0x7f0000
 8003124:	433a      	orrs	r2, r7
 8003126:	4302      	orrs	r2, r0
 8003128:	6d60      	ldr	r0, [r4, #84]	; 0x54
 800312a:	3801      	subs	r0, #1
 800312c:	0600      	lsls	r0, r0, #24
 800312e:	f000 40fe 	and.w	r0, r0, #2130706432	; 0x7f000000
 8003132:	4302      	orrs	r2, r0
 8003134:	634a      	str	r2, [r1, #52]	; 0x34
 8003136:	6a8a      	ldr	r2, [r1, #40]	; 0x28
 8003138:	f022 0210 	bic.w	r2, r2, #16
 800313c:	628a      	str	r2, [r1, #40]	; 0x28
 800313e:	6b8a      	ldr	r2, [r1, #56]	; 0x38
 8003140:	6de0      	ldr	r0, [r4, #92]	; 0x5c
 8003142:	f422 427f 	bic.w	r2, r2, #65280	; 0xff00
 8003146:	f022 02f8 	bic.w	r2, r2, #248	; 0xf8
 800314a:	ea42 02c0 	orr.w	r2, r2, r0, lsl #3
 800314e:	638a      	str	r2, [r1, #56]	; 0x38
 8003150:	6a8a      	ldr	r2, [r1, #40]	; 0x28
 8003152:	f042 0210 	orr.w	r2, r2, #16
 8003156:	628a      	str	r2, [r1, #40]	; 0x28
 8003158:	6a8a      	ldr	r2, [r1, #40]	; 0x28
 800315a:	6da0      	ldr	r0, [r4, #88]	; 0x58
 800315c:	f022 020c 	bic.w	r2, r2, #12
 8003160:	4302      	orrs	r2, r0
 8003162:	628a      	str	r2, [r1, #40]	; 0x28
 8003164:	0372      	lsls	r2, r6, #13
 8003166:	f100 813a 	bmi.w	80033de <HAL_RCC_OscConfig+0x9be>
 800316a:	b133      	cbz	r3, 800317a <HAL_RCC_OscConfig+0x75a>
 800316c:	4a44      	ldr	r2, [pc, #272]	; (8003280 <HAL_RCC_OscConfig+0x860>)
 800316e:	f8d2 3094 	ldr.w	r3, [r2, #148]	; 0x94
 8003172:	f023 0304 	bic.w	r3, r3, #4
 8003176:	f8c2 3094 	str.w	r3, [r2, #148]	; 0x94
 800317a:	4c41      	ldr	r4, [pc, #260]	; (8003280 <HAL_RCC_OscConfig+0x860>)
 800317c:	6aa3      	ldr	r3, [r4, #40]	; 0x28
 800317e:	f443 2380 	orr.w	r3, r3, #262144	; 0x40000
 8003182:	62a3      	str	r3, [r4, #40]	; 0x28
 8003184:	6823      	ldr	r3, [r4, #0]
 8003186:	f043 7380 	orr.w	r3, r3, #16777216	; 0x1000000
 800318a:	6023      	str	r3, [r4, #0]
 800318c:	f7fd ff88 	bl	80010a0 <HAL_GetTick>
 8003190:	4605      	mov	r5, r0
 8003192:	e005      	b.n	80031a0 <HAL_RCC_OscConfig+0x780>
 8003194:	f7fd ff84 	bl	80010a0 <HAL_GetTick>
 8003198:	1b40      	subs	r0, r0, r5
 800319a:	2802      	cmp	r0, #2
 800319c:	f63f ae88 	bhi.w	8002eb0 <HAL_RCC_OscConfig+0x490>
 80031a0:	6823      	ldr	r3, [r4, #0]
 80031a2:	019b      	lsls	r3, r3, #6
 80031a4:	d5f6      	bpl.n	8003194 <HAL_RCC_OscConfig+0x774>
 80031a6:	2000      	movs	r0, #0
 80031a8:	e642      	b.n	8002e30 <HAL_RCC_OscConfig+0x410>
 80031aa:	682b      	ldr	r3, [r5, #0]
 80031ac:	f423 4380 	bic.w	r3, r3, #16384	; 0x4000
 80031b0:	602b      	str	r3, [r5, #0]
 80031b2:	f7fd ff75 	bl	80010a0 <HAL_GetTick>
 80031b6:	4606      	mov	r6, r0
 80031b8:	e005      	b.n	80031c6 <HAL_RCC_OscConfig+0x7a6>
 80031ba:	f7fd ff71 	bl	80010a0 <HAL_GetTick>
 80031be:	1b80      	subs	r0, r0, r6
 80031c0:	2802      	cmp	r0, #2
 80031c2:	f63f ae75 	bhi.w	8002eb0 <HAL_RCC_OscConfig+0x490>
 80031c6:	682b      	ldr	r3, [r5, #0]
 80031c8:	041a      	lsls	r2, r3, #16
 80031ca:	d4f6      	bmi.n	80031ba <HAL_RCC_OscConfig+0x79a>
 80031cc:	e57d      	b.n	8002cca <HAL_RCC_OscConfig+0x2aa>
 80031ce:	4a2c      	ldr	r2, [pc, #176]	; (8003280 <HAL_RCC_OscConfig+0x860>)
 80031d0:	f8d2 30f0 	ldr.w	r3, [r2, #240]	; 0xf0
 80031d4:	f043 0301 	orr.w	r3, r3, #1
 80031d8:	f8c2 30f0 	str.w	r3, [r2, #240]	; 0xf0
 80031dc:	e50c      	b.n	8002bf8 <HAL_RCC_OscConfig+0x1d8>
 80031de:	4a28      	ldr	r2, [pc, #160]	; (8003280 <HAL_RCC_OscConfig+0x860>)
 80031e0:	f8d2 3094 	ldr.w	r3, [r2, #148]	; 0x94
 80031e4:	f023 0304 	bic.w	r3, r3, #4
 80031e8:	f8c2 3094 	str.w	r3, [r2, #148]	; 0x94
 80031ec:	e4d5      	b.n	8002b9a <HAL_RCC_OscConfig+0x17a>
 80031ee:	f8d6 30f0 	ldr.w	r3, [r6, #240]	; 0xf0
 80031f2:	f023 53a0 	bic.w	r3, r3, #335544320	; 0x14000000
 80031f6:	f8c6 30f0 	str.w	r3, [r6, #240]	; 0xf0
 80031fa:	f7fd ff51 	bl	80010a0 <HAL_GetTick>
 80031fe:	4607      	mov	r7, r0
 8003200:	e005      	b.n	800320e <HAL_RCC_OscConfig+0x7ee>
 8003202:	f7fd ff4d 	bl	80010a0 <HAL_GetTick>
 8003206:	1bc0      	subs	r0, r0, r7
 8003208:	2802      	cmp	r0, #2
 800320a:	f63f ae51 	bhi.w	8002eb0 <HAL_RCC_OscConfig+0x490>
 800320e:	f8d6 30f0 	ldr.w	r3, [r6, #240]	; 0xf0
 8003212:	0119      	lsls	r1, r3, #4
 8003214:	d4f5      	bmi.n	8003202 <HAL_RCC_OscConfig+0x7e2>
 8003216:	69a2      	ldr	r2, [r4, #24]
 8003218:	e49f      	b.n	8002b5a <HAL_RCC_OscConfig+0x13a>
 800321a:	4d19      	ldr	r5, [pc, #100]	; (8003280 <HAL_RCC_OscConfig+0x860>)
 800321c:	682b      	ldr	r3, [r5, #0]
 800321e:	f023 0310 	bic.w	r3, r3, #16
 8003222:	602b      	str	r3, [r5, #0]
 8003224:	f7fd ff3c 	bl	80010a0 <HAL_GetTick>
 8003228:	4606      	mov	r6, r0
 800322a:	e005      	b.n	8003238 <HAL_RCC_OscConfig+0x818>
 800322c:	f7fd ff38 	bl	80010a0 <HAL_GetTick>
 8003230:	1b80      	subs	r0, r0, r6
 8003232:	2802      	cmp	r0, #2
 8003234:	f63f ae3c 	bhi.w	8002eb0 <HAL_RCC_OscConfig+0x490>
 8003238:	682b      	ldr	r3, [r5, #0]
 800323a:	0698      	lsls	r0, r3, #26
 800323c:	d4f6      	bmi.n	800322c <HAL_RCC_OscConfig+0x80c>
 800323e:	e573      	b.n	8002d28 <HAL_RCC_OscConfig+0x308>
 8003240:	6ab3      	ldr	r3, [r6, #40]	; 0x28
 8003242:	f043 0301 	orr.w	r3, r3, #1
 8003246:	62b3      	str	r3, [r6, #40]	; 0x28
 8003248:	f7fd ff2a 	bl	80010a0 <HAL_GetTick>
 800324c:	4607      	mov	r7, r0
 800324e:	6ab3      	ldr	r3, [r6, #40]	; 0x28
 8003250:	07db      	lsls	r3, r3, #31
 8003252:	f53f acbd 	bmi.w	8002bd0 <HAL_RCC_OscConfig+0x1b0>
 8003256:	f7fd ff23 	bl	80010a0 <HAL_GetTick>
 800325a:	1bc0      	subs	r0, r0, r7
 800325c:	2802      	cmp	r0, #2
 800325e:	d9f6      	bls.n	800324e <HAL_RCC_OscConfig+0x82e>
 8003260:	e626      	b.n	8002eb0 <HAL_RCC_OscConfig+0x490>
 8003262:	4b07      	ldr	r3, [pc, #28]	; (8003280 <HAL_RCC_OscConfig+0x860>)
 8003264:	681a      	ldr	r2, [r3, #0]
 8003266:	f442 2280 	orr.w	r2, r2, #262144	; 0x40000
 800326a:	601a      	str	r2, [r3, #0]
 800326c:	681a      	ldr	r2, [r3, #0]
 800326e:	f422 1280 	bic.w	r2, r2, #1048576	; 0x100000
 8003272:	601a      	str	r2, [r3, #0]
 8003274:	681a      	ldr	r2, [r3, #0]
 8003276:	f442 3280 	orr.w	r2, r2, #65536	; 0x10000
 800327a:	601a      	str	r2, [r3, #0]
 800327c:	e66a      	b.n	8002f54 <HAL_RCC_OscConfig+0x534>
 800327e:	bf00      	nop
 8003280:	46020c00 	.word	0x46020c00
 8003284:	46020800 	.word	0x46020800
 8003288:	80800000 	.word	0x80800000
 800328c:	f7ff f976 	bl	800257c <RCC_SetFlashLatencyFromMSIRange>
 8003290:	2800      	cmp	r0, #0
 8003292:	f43f ae31 	beq.w	8002ef8 <HAL_RCC_OscConfig+0x4d8>
 8003296:	e5ca      	b.n	8002e2e <HAL_RCC_OscConfig+0x40e>
 8003298:	f7ff f970 	bl	800257c <RCC_SetFlashLatencyFromMSIRange>
 800329c:	2800      	cmp	r0, #0
 800329e:	f47f adc6 	bne.w	8002e2e <HAL_RCC_OscConfig+0x40e>
 80032a2:	6a60      	ldr	r0, [r4, #36]	; 0x24
 80032a4:	e5a2      	b.n	8002dec <HAL_RCC_OscConfig+0x3cc>
 80032a6:	4b59      	ldr	r3, [pc, #356]	; (800340c <HAL_RCC_OscConfig+0x9ec>)
 80032a8:	681a      	ldr	r2, [r3, #0]
 80032aa:	f442 2280 	orr.w	r2, r2, #262144	; 0x40000
 80032ae:	601a      	str	r2, [r3, #0]
 80032b0:	681a      	ldr	r2, [r3, #0]
 80032b2:	f442 1280 	orr.w	r2, r2, #1048576	; 0x100000
 80032b6:	601a      	str	r2, [r3, #0]
 80032b8:	681a      	ldr	r2, [r3, #0]
 80032ba:	f442 3280 	orr.w	r2, r2, #65536	; 0x10000
 80032be:	601a      	str	r2, [r3, #0]
 80032c0:	e648      	b.n	8002f54 <HAL_RCC_OscConfig+0x534>
 80032c2:	2a00      	cmp	r2, #0
 80032c4:	f2c0 8082 	blt.w	80033cc <HAL_RCC_OscConfig+0x9ac>
 80032c8:	f1b2 4f80 	cmp.w	r2, #1073741824	; 0x40000000
 80032cc:	f0c0 8094 	bcc.w	80033f8 <HAL_RCC_OscConfig+0x9d8>
 80032d0:	6a22      	ldr	r2, [r4, #32]
 80032d2:	f423 43f8 	bic.w	r3, r3, #31744	; 0x7c00
 80032d6:	ea43 2382 	orr.w	r3, r3, r2, lsl #10
 80032da:	60fb      	str	r3, [r7, #12]
 80032dc:	6823      	ldr	r3, [r4, #0]
 80032de:	f7ff bbe2 	b.w	8002aa6 <HAL_RCC_OscConfig+0x86>
 80032e2:	6a21      	ldr	r1, [r4, #32]
 80032e4:	f422 7278 	bic.w	r2, r2, #992	; 0x3e0
 80032e8:	ea42 1241 	orr.w	r2, r2, r1, lsl #5
 80032ec:	60da      	str	r2, [r3, #12]
 80032ee:	e600      	b.n	8002ef2 <HAL_RCC_OscConfig+0x4d2>
 80032f0:	6a21      	ldr	r1, [r4, #32]
 80032f2:	f422 7278 	bic.w	r2, r2, #992	; 0x3e0
 80032f6:	ea42 1241 	orr.w	r2, r2, r1, lsl #5
 80032fa:	60da      	str	r2, [r3, #12]
 80032fc:	e5fc      	b.n	8002ef8 <HAL_RCC_OscConfig+0x4d8>
 80032fe:	2a00      	cmp	r2, #0
 8003300:	db72      	blt.n	80033e8 <HAL_RCC_OscConfig+0x9c8>
 8003302:	f1b2 4f80 	cmp.w	r2, #1073741824	; 0x40000000
 8003306:	68da      	ldr	r2, [r3, #12]
 8003308:	6a21      	ldr	r1, [r4, #32]
 800330a:	bf2b      	itete	cs
 800330c:	f422 42f8 	biccs.w	r2, r2, #31744	; 0x7c00
 8003310:	f422 2278 	biccc.w	r2, r2, #1015808	; 0xf8000
 8003314:	ea42 2281 	orrcs.w	r2, r2, r1, lsl #10
 8003318:	ea42 32c1 	orrcc.w	r2, r2, r1, lsl #15
 800331c:	60da      	str	r2, [r3, #12]
 800331e:	e4f1      	b.n	8002d04 <HAL_RCC_OscConfig+0x2e4>
 8003320:	f023 0380 	bic.w	r3, r3, #128	; 0x80
 8003324:	f8c7 30f0 	str.w	r3, [r7, #240]	; 0xf0
 8003328:	f241 3888 	movw	r8, #5000	; 0x1388
 800332c:	4f37      	ldr	r7, [pc, #220]	; (800340c <HAL_RCC_OscConfig+0x9ec>)
 800332e:	e005      	b.n	800333c <HAL_RCC_OscConfig+0x91c>
 8003330:	f7fd feb6 	bl	80010a0 <HAL_GetTick>
 8003334:	1b80      	subs	r0, r0, r6
 8003336:	4540      	cmp	r0, r8
 8003338:	f63f adba 	bhi.w	8002eb0 <HAL_RCC_OscConfig+0x490>
 800333c:	f8d7 30f0 	ldr.w	r3, [r7, #240]	; 0xf0
 8003340:	051a      	lsls	r2, r3, #20
 8003342:	d4f5      	bmi.n	8003330 <HAL_RCC_OscConfig+0x910>
 8003344:	e482      	b.n	8002c4c <HAL_RCC_OscConfig+0x22c>
 8003346:	6a21      	ldr	r1, [r4, #32]
 8003348:	f422 2278 	bic.w	r2, r2, #1015808	; 0xf8000
 800334c:	ea42 32c1 	orr.w	r2, r2, r1, lsl #15
 8003350:	60da      	str	r2, [r3, #12]
 8003352:	e5ce      	b.n	8002ef2 <HAL_RCC_OscConfig+0x4d2>
 8003354:	2801      	cmp	r0, #1
 8003356:	6aab      	ldr	r3, [r5, #40]	; 0x28
 8003358:	6b6d      	ldr	r5, [r5, #52]	; 0x34
 800335a:	f43f ad69 	beq.w	8002e30 <HAL_RCC_OscConfig+0x410>
 800335e:	6be2      	ldr	r2, [r4, #60]	; 0x3c
 8003360:	f003 0103 	and.w	r1, r3, #3
 8003364:	4291      	cmp	r1, r2
 8003366:	f47f ad62 	bne.w	8002e2e <HAL_RCC_OscConfig+0x40e>
 800336a:	6c22      	ldr	r2, [r4, #64]	; 0x40
 800336c:	f3c3 2103 	ubfx	r1, r3, #8, #4
 8003370:	3a01      	subs	r2, #1
 8003372:	4291      	cmp	r1, r2
 8003374:	f47f ad5b 	bne.w	8002e2e <HAL_RCC_OscConfig+0x40e>
 8003378:	6c62      	ldr	r2, [r4, #68]	; 0x44
 800337a:	f3c3 3303 	ubfx	r3, r3, #12, #4
 800337e:	4293      	cmp	r3, r2
 8003380:	f47f ad55 	bne.w	8002e2e <HAL_RCC_OscConfig+0x40e>
 8003384:	6ca3      	ldr	r3, [r4, #72]	; 0x48
 8003386:	f3c5 0208 	ubfx	r2, r5, #0, #9
 800338a:	3b01      	subs	r3, #1
 800338c:	429a      	cmp	r2, r3
 800338e:	f47f ad4e 	bne.w	8002e2e <HAL_RCC_OscConfig+0x40e>
 8003392:	6ce3      	ldr	r3, [r4, #76]	; 0x4c
 8003394:	f3c5 2246 	ubfx	r2, r5, #9, #7
 8003398:	3b01      	subs	r3, #1
 800339a:	429a      	cmp	r2, r3
 800339c:	f47f ad47 	bne.w	8002e2e <HAL_RCC_OscConfig+0x40e>
 80033a0:	6d23      	ldr	r3, [r4, #80]	; 0x50
 80033a2:	f3c5 4206 	ubfx	r2, r5, #16, #7
 80033a6:	3b01      	subs	r3, #1
 80033a8:	429a      	cmp	r2, r3
 80033aa:	f47f ad40 	bne.w	8002e2e <HAL_RCC_OscConfig+0x40e>
 80033ae:	6d60      	ldr	r0, [r4, #84]	; 0x54
 80033b0:	f3c5 6506 	ubfx	r5, r5, #24, #7
 80033b4:	3801      	subs	r0, #1
 80033b6:	1a28      	subs	r0, r5, r0
 80033b8:	bf18      	it	ne
 80033ba:	2001      	movne	r0, #1
 80033bc:	e538      	b.n	8002e30 <HAL_RCC_OscConfig+0x410>
 80033be:	6a21      	ldr	r1, [r4, #32]
 80033c0:	f422 2278 	bic.w	r2, r2, #1015808	; 0xf8000
 80033c4:	ea42 32c1 	orr.w	r2, r2, r1, lsl #15
 80033c8:	60da      	str	r2, [r3, #12]
 80033ca:	e595      	b.n	8002ef8 <HAL_RCC_OscConfig+0x4d8>
 80033cc:	6a22      	ldr	r2, [r4, #32]
 80033ce:	f423 7378 	bic.w	r3, r3, #992	; 0x3e0
 80033d2:	ea43 1342 	orr.w	r3, r3, r2, lsl #5
 80033d6:	60fb      	str	r3, [r7, #12]
 80033d8:	6823      	ldr	r3, [r4, #0]
 80033da:	f7ff bb64 	b.w	8002aa6 <HAL_RCC_OscConfig+0x86>
 80033de:	68ea      	ldr	r2, [r5, #12]
 80033e0:	f442 2280 	orr.w	r2, r2, #262144	; 0x40000
 80033e4:	60ea      	str	r2, [r5, #12]
 80033e6:	e6c0      	b.n	800316a <HAL_RCC_OscConfig+0x74a>
 80033e8:	68da      	ldr	r2, [r3, #12]
 80033ea:	6a21      	ldr	r1, [r4, #32]
 80033ec:	f422 7278 	bic.w	r2, r2, #992	; 0x3e0
 80033f0:	ea42 1241 	orr.w	r2, r2, r1, lsl #5
 80033f4:	60da      	str	r2, [r3, #12]
 80033f6:	e485      	b.n	8002d04 <HAL_RCC_OscConfig+0x2e4>
 80033f8:	6a22      	ldr	r2, [r4, #32]
 80033fa:	f423 2378 	bic.w	r3, r3, #1015808	; 0xf8000
 80033fe:	ea43 33c2 	orr.w	r3, r3, r2, lsl #15
 8003402:	60fb      	str	r3, [r7, #12]
 8003404:	6823      	ldr	r3, [r4, #0]
 8003406:	f7ff bb4e 	b.w	8002aa6 <HAL_RCC_OscConfig+0x86>
 800340a:	bf00      	nop
 800340c:	46020c00 	.word	0x46020c00

08003410 <HAL_RCC_GetHCLKFreq>:
 8003410:	4a47      	ldr	r2, [pc, #284]	; (8003530 <HAL_RCC_GetHCLKFreq+0x120>)
 8003412:	b410      	push	{r4}
 8003414:	69d3      	ldr	r3, [r2, #28]
 8003416:	6a91      	ldr	r1, [r2, #40]	; 0x28
 8003418:	f013 030c 	ands.w	r3, r3, #12
 800341c:	d05a      	beq.n	80034d4 <HAL_RCC_GetHCLKFreq+0xc4>
 800341e:	2b0c      	cmp	r3, #12
 8003420:	d06b      	beq.n	80034fa <HAL_RCC_GetHCLKFreq+0xea>
 8003422:	69d2      	ldr	r2, [r2, #28]
 8003424:	f002 020c 	and.w	r2, r2, #12
 8003428:	2a04      	cmp	r2, #4
 800342a:	d064      	beq.n	80034f6 <HAL_RCC_GetHCLKFreq+0xe6>
 800342c:	2b08      	cmp	r3, #8
 800342e:	d062      	beq.n	80034f6 <HAL_RCC_GetHCLKFreq+0xe6>
 8003430:	2000      	movs	r0, #0
 8003432:	2b0c      	cmp	r3, #12
 8003434:	d17a      	bne.n	800352c <HAL_RCC_GetHCLKFreq+0x11c>
 8003436:	493e      	ldr	r1, [pc, #248]	; (8003530 <HAL_RCC_GetHCLKFreq+0x120>)
 8003438:	6a8c      	ldr	r4, [r1, #40]	; 0x28
 800343a:	6a8a      	ldr	r2, [r1, #40]	; 0x28
 800343c:	f004 0c03 	and.w	ip, r4, #3
 8003440:	6a8b      	ldr	r3, [r1, #40]	; 0x28
 8003442:	6b8c      	ldr	r4, [r1, #56]	; 0x38
 8003444:	f3c3 1300 	ubfx	r3, r3, #4, #1
 8003448:	f3c4 04cc 	ubfx	r4, r4, #3, #13
 800344c:	fb04 f303 	mul.w	r3, r4, r3
 8003450:	ee07 3a90 	vmov	s15, r3
 8003454:	f3c2 2203 	ubfx	r2, r2, #8, #4
 8003458:	f1bc 0f02 	cmp.w	ip, #2
 800345c:	eef8 7ae7 	vcvt.f32.s32	s15, s15
 8003460:	f102 0201 	add.w	r2, r2, #1
 8003464:	d002      	beq.n	800346c <HAL_RCC_GetHCLKFreq+0x5c>
 8003466:	f1bc 0f03 	cmp.w	ip, #3
 800346a:	d14d      	bne.n	8003508 <HAL_RCC_GetHCLKFreq+0xf8>
 800346c:	6b4b      	ldr	r3, [r1, #52]	; 0x34
 800346e:	ee07 2a10 	vmov	s14, r2
 8003472:	f3c3 0308 	ubfx	r3, r3, #0, #9
 8003476:	ee06 3a90 	vmov	s13, r3
 800347a:	ed9f 5a2e 	vldr	s10, [pc, #184]	; 8003534 <HAL_RCC_GetHCLKFreq+0x124>
 800347e:	eef8 6ae6 	vcvt.f32.s32	s13, s13
 8003482:	eeb8 7ac7 	vcvt.f32.s32	s14, s14
 8003486:	eddf 5a2c 	vldr	s11, [pc, #176]	; 8003538 <HAL_RCC_GetHCLKFreq+0x128>
 800348a:	eee7 6a85 	vfma.f32	s13, s15, s10
 800348e:	eeb7 6a00 	vmov.f32	s12, #112	; 0x3f800000  1.0
 8003492:	eec5 7a87 	vdiv.f32	s15, s11, s14
 8003496:	ee36 7a86 	vadd.f32	s14, s13, s12
 800349a:	4b25      	ldr	r3, [pc, #148]	; (8003530 <HAL_RCC_GetHCLKFreq+0x120>)
 800349c:	ee27 7a27 	vmul.f32	s14, s14, s15
 80034a0:	6b5b      	ldr	r3, [r3, #52]	; 0x34
 80034a2:	f3c3 6306 	ubfx	r3, r3, #24, #7
 80034a6:	3301      	adds	r3, #1
 80034a8:	ee07 3a90 	vmov	s15, r3
 80034ac:	eef8 7ae7 	vcvt.f32.s32	s15, s15
 80034b0:	eec7 6a27 	vdiv.f32	s13, s14, s15
 80034b4:	eefc 7ae6 	vcvt.u32.f32	s15, s13
 80034b8:	ee17 0a90 	vmov	r0, s15
 80034bc:	4b1c      	ldr	r3, [pc, #112]	; (8003530 <HAL_RCC_GetHCLKFreq+0x120>)
 80034be:	491f      	ldr	r1, [pc, #124]	; (800353c <HAL_RCC_GetHCLKFreq+0x12c>)
 80034c0:	6a1b      	ldr	r3, [r3, #32]
 80034c2:	4a1f      	ldr	r2, [pc, #124]	; (8003540 <HAL_RCC_GetHCLKFreq+0x130>)
 80034c4:	f003 030f 	and.w	r3, r3, #15
 80034c8:	5ccb      	ldrb	r3, [r1, r3]
 80034ca:	f85d 4b04 	ldr.w	r4, [sp], #4
 80034ce:	40d8      	lsrs	r0, r3
 80034d0:	6010      	str	r0, [r2, #0]
 80034d2:	4770      	bx	lr
 80034d4:	4a16      	ldr	r2, [pc, #88]	; (8003530 <HAL_RCC_GetHCLKFreq+0x120>)
 80034d6:	6891      	ldr	r1, [r2, #8]
 80034d8:	0209      	lsls	r1, r1, #8
 80034da:	bf54      	ite	pl
 80034dc:	f8d2 20f4 	ldrpl.w	r2, [r2, #244]	; 0xf4
 80034e0:	6892      	ldrmi	r2, [r2, #8]
 80034e2:	4918      	ldr	r1, [pc, #96]	; (8003544 <HAL_RCC_GetHCLKFreq+0x134>)
 80034e4:	bf54      	ite	pl
 80034e6:	f3c2 3203 	ubfxpl	r2, r2, #12, #4
 80034ea:	0f12      	lsrmi	r2, r2, #28
 80034ec:	f851 0022 	ldr.w	r0, [r1, r2, lsl #2]
 80034f0:	2b00      	cmp	r3, #0
 80034f2:	d0e3      	beq.n	80034bc <HAL_RCC_GetHCLKFreq+0xac>
 80034f4:	e79d      	b.n	8003432 <HAL_RCC_GetHCLKFreq+0x22>
 80034f6:	4814      	ldr	r0, [pc, #80]	; (8003548 <HAL_RCC_GetHCLKFreq+0x138>)
 80034f8:	e7e0      	b.n	80034bc <HAL_RCC_GetHCLKFreq+0xac>
 80034fa:	f001 0103 	and.w	r1, r1, #3
 80034fe:	2901      	cmp	r1, #1
 8003500:	d0e8      	beq.n	80034d4 <HAL_RCC_GetHCLKFreq+0xc4>
 8003502:	2000      	movs	r0, #0
 8003504:	69d3      	ldr	r3, [r2, #28]
 8003506:	e796      	b.n	8003436 <HAL_RCC_GetHCLKFreq+0x26>
 8003508:	ee07 0a10 	vmov	s14, r0
 800350c:	6b4b      	ldr	r3, [r1, #52]	; 0x34
 800350e:	eef8 5a47 	vcvt.f32.u32	s11, s14
 8003512:	f3c3 0308 	ubfx	r3, r3, #0, #9
 8003516:	ee06 3a90 	vmov	s13, r3
 800351a:	ee07 2a10 	vmov	s14, r2
 800351e:	ed9f 5a05 	vldr	s10, [pc, #20]	; 8003534 <HAL_RCC_GetHCLKFreq+0x124>
 8003522:	eef8 6ae6 	vcvt.f32.s32	s13, s13
 8003526:	eeb8 7ac7 	vcvt.f32.s32	s14, s14
 800352a:	e7ae      	b.n	800348a <HAL_RCC_GetHCLKFreq+0x7a>
 800352c:	2000      	movs	r0, #0
 800352e:	e7c5      	b.n	80034bc <HAL_RCC_GetHCLKFreq+0xac>
 8003530:	46020c00 	.word	0x46020c00
 8003534:	39000000 	.word	0x39000000
 8003538:	4b742400 	.word	0x4b742400
 800353c:	080060f4 	.word	0x080060f4
 8003540:	20025800 	.word	0x20025800
 8003544:	0800610c 	.word	0x0800610c
 8003548:	00f42400 	.word	0x00f42400

0800354c <HAL_RCC_GetPCLK1Freq>:
 800354c:	4949      	ldr	r1, [pc, #292]	; (8003674 <HAL_RCC_GetPCLK1Freq+0x128>)
 800354e:	b430      	push	{r4, r5}
 8003550:	69cb      	ldr	r3, [r1, #28]
 8003552:	6a8a      	ldr	r2, [r1, #40]	; 0x28
 8003554:	f013 030c 	ands.w	r3, r3, #12
 8003558:	d05e      	beq.n	8003618 <HAL_RCC_GetPCLK1Freq+0xcc>
 800355a:	2b0c      	cmp	r3, #12
 800355c:	d06f      	beq.n	800363e <HAL_RCC_GetPCLK1Freq+0xf2>
 800355e:	69ca      	ldr	r2, [r1, #28]
 8003560:	f002 020c 	and.w	r2, r2, #12
 8003564:	2a04      	cmp	r2, #4
 8003566:	d068      	beq.n	800363a <HAL_RCC_GetPCLK1Freq+0xee>
 8003568:	2b08      	cmp	r3, #8
 800356a:	d066      	beq.n	800363a <HAL_RCC_GetPCLK1Freq+0xee>
 800356c:	2200      	movs	r2, #0
 800356e:	2b0c      	cmp	r3, #12
 8003570:	d17e      	bne.n	8003670 <HAL_RCC_GetPCLK1Freq+0x124>
 8003572:	4840      	ldr	r0, [pc, #256]	; (8003674 <HAL_RCC_GetPCLK1Freq+0x128>)
 8003574:	6a84      	ldr	r4, [r0, #40]	; 0x28
 8003576:	6a81      	ldr	r1, [r0, #40]	; 0x28
 8003578:	6a83      	ldr	r3, [r0, #40]	; 0x28
 800357a:	6b85      	ldr	r5, [r0, #56]	; 0x38
 800357c:	f3c3 1300 	ubfx	r3, r3, #4, #1
 8003580:	f3c5 0ccc 	ubfx	ip, r5, #3, #13
 8003584:	fb0c f303 	mul.w	r3, ip, r3
 8003588:	ee07 3a90 	vmov	s15, r3
 800358c:	f004 0403 	and.w	r4, r4, #3
 8003590:	f3c1 2103 	ubfx	r1, r1, #8, #4
 8003594:	2c02      	cmp	r4, #2
 8003596:	eef8 7ae7 	vcvt.f32.s32	s15, s15
 800359a:	f101 0101 	add.w	r1, r1, #1
 800359e:	d001      	beq.n	80035a4 <HAL_RCC_GetPCLK1Freq+0x58>
 80035a0:	2c03      	cmp	r4, #3
 80035a2:	d153      	bne.n	800364c <HAL_RCC_GetPCLK1Freq+0x100>
 80035a4:	6b43      	ldr	r3, [r0, #52]	; 0x34
 80035a6:	ee07 1a10 	vmov	s14, r1
 80035aa:	f3c3 0308 	ubfx	r3, r3, #0, #9
 80035ae:	ee06 3a90 	vmov	s13, r3
 80035b2:	ed9f 5a31 	vldr	s10, [pc, #196]	; 8003678 <HAL_RCC_GetPCLK1Freq+0x12c>
 80035b6:	eef8 6ae6 	vcvt.f32.s32	s13, s13
 80035ba:	eeb8 7ac7 	vcvt.f32.s32	s14, s14
 80035be:	eddf 5a2f 	vldr	s11, [pc, #188]	; 800367c <HAL_RCC_GetPCLK1Freq+0x130>
 80035c2:	eee7 6a85 	vfma.f32	s13, s15, s10
 80035c6:	eeb7 6a00 	vmov.f32	s12, #112	; 0x3f800000  1.0
 80035ca:	eec5 7a87 	vdiv.f32	s15, s11, s14
 80035ce:	ee36 7a86 	vadd.f32	s14, s13, s12
 80035d2:	4b28      	ldr	r3, [pc, #160]	; (8003674 <HAL_RCC_GetPCLK1Freq+0x128>)
 80035d4:	ee27 7a27 	vmul.f32	s14, s14, s15
 80035d8:	6b5b      	ldr	r3, [r3, #52]	; 0x34
 80035da:	f3c3 6306 	ubfx	r3, r3, #24, #7
 80035de:	3301      	adds	r3, #1
 80035e0:	ee07 3a90 	vmov	s15, r3
 80035e4:	eef8 7ae7 	vcvt.f32.s32	s15, s15
 80035e8:	eec7 6a27 	vdiv.f32	s13, s14, s15
 80035ec:	eefc 7ae6 	vcvt.u32.f32	s15, s13
 80035f0:	ee17 2a90 	vmov	r2, s15
 80035f4:	491f      	ldr	r1, [pc, #124]	; (8003674 <HAL_RCC_GetPCLK1Freq+0x128>)
 80035f6:	4822      	ldr	r0, [pc, #136]	; (8003680 <HAL_RCC_GetPCLK1Freq+0x134>)
 80035f8:	6a0b      	ldr	r3, [r1, #32]
 80035fa:	4c22      	ldr	r4, [pc, #136]	; (8003684 <HAL_RCC_GetPCLK1Freq+0x138>)
 80035fc:	f003 030f 	and.w	r3, r3, #15
 8003600:	5cc0      	ldrb	r0, [r0, r3]
 8003602:	fa22 f000 	lsr.w	r0, r2, r0
 8003606:	6020      	str	r0, [r4, #0]
 8003608:	6a0b      	ldr	r3, [r1, #32]
 800360a:	4a1f      	ldr	r2, [pc, #124]	; (8003688 <HAL_RCC_GetPCLK1Freq+0x13c>)
 800360c:	f3c3 1302 	ubfx	r3, r3, #4, #3
 8003610:	5cd3      	ldrb	r3, [r2, r3]
 8003612:	bc30      	pop	{r4, r5}
 8003614:	40d8      	lsrs	r0, r3
 8003616:	4770      	bx	lr
 8003618:	4a16      	ldr	r2, [pc, #88]	; (8003674 <HAL_RCC_GetPCLK1Freq+0x128>)
 800361a:	6891      	ldr	r1, [r2, #8]
 800361c:	0209      	lsls	r1, r1, #8
 800361e:	bf54      	ite	pl
 8003620:	f8d2 20f4 	ldrpl.w	r2, [r2, #244]	; 0xf4
 8003624:	6892      	ldrmi	r2, [r2, #8]
 8003626:	4919      	ldr	r1, [pc, #100]	; (800368c <HAL_RCC_GetPCLK1Freq+0x140>)
 8003628:	bf54      	ite	pl
 800362a:	f3c2 3203 	ubfxpl	r2, r2, #12, #4
 800362e:	0f12      	lsrmi	r2, r2, #28
 8003630:	f851 2022 	ldr.w	r2, [r1, r2, lsl #2]
 8003634:	2b00      	cmp	r3, #0
 8003636:	d0dd      	beq.n	80035f4 <HAL_RCC_GetPCLK1Freq+0xa8>
 8003638:	e799      	b.n	800356e <HAL_RCC_GetPCLK1Freq+0x22>
 800363a:	4a15      	ldr	r2, [pc, #84]	; (8003690 <HAL_RCC_GetPCLK1Freq+0x144>)
 800363c:	e7da      	b.n	80035f4 <HAL_RCC_GetPCLK1Freq+0xa8>
 800363e:	f002 0203 	and.w	r2, r2, #3
 8003642:	2a01      	cmp	r2, #1
 8003644:	d0e8      	beq.n	8003618 <HAL_RCC_GetPCLK1Freq+0xcc>
 8003646:	2200      	movs	r2, #0
 8003648:	69cb      	ldr	r3, [r1, #28]
 800364a:	e792      	b.n	8003572 <HAL_RCC_GetPCLK1Freq+0x26>
 800364c:	ee07 2a10 	vmov	s14, r2
 8003650:	6b43      	ldr	r3, [r0, #52]	; 0x34
 8003652:	eef8 5a47 	vcvt.f32.u32	s11, s14
 8003656:	f3c3 0308 	ubfx	r3, r3, #0, #9
 800365a:	ee06 3a90 	vmov	s13, r3
 800365e:	ee07 1a10 	vmov	s14, r1
 8003662:	ed9f 5a05 	vldr	s10, [pc, #20]	; 8003678 <HAL_RCC_GetPCLK1Freq+0x12c>
 8003666:	eef8 6ae6 	vcvt.f32.s32	s13, s13
 800366a:	eeb8 7ac7 	vcvt.f32.s32	s14, s14
 800366e:	e7a8      	b.n	80035c2 <HAL_RCC_GetPCLK1Freq+0x76>
 8003670:	2200      	movs	r2, #0
 8003672:	e7bf      	b.n	80035f4 <HAL_RCC_GetPCLK1Freq+0xa8>
 8003674:	46020c00 	.word	0x46020c00
 8003678:	39000000 	.word	0x39000000
 800367c:	4b742400 	.word	0x4b742400
 8003680:	080060f4 	.word	0x080060f4
 8003684:	20025800 	.word	0x20025800
 8003688:	08006104 	.word	0x08006104
 800368c:	0800610c 	.word	0x0800610c
 8003690:	00f42400 	.word	0x00f42400

08003694 <HAL_RCC_GetPCLK2Freq>:
 8003694:	4949      	ldr	r1, [pc, #292]	; (80037bc <HAL_RCC_GetPCLK2Freq+0x128>)
 8003696:	b430      	push	{r4, r5}
 8003698:	69cb      	ldr	r3, [r1, #28]
 800369a:	6a8a      	ldr	r2, [r1, #40]	; 0x28
 800369c:	f013 030c 	ands.w	r3, r3, #12
 80036a0:	d05e      	beq.n	8003760 <HAL_RCC_GetPCLK2Freq+0xcc>
 80036a2:	2b0c      	cmp	r3, #12
 80036a4:	d06f      	beq.n	8003786 <HAL_RCC_GetPCLK2Freq+0xf2>
 80036a6:	69ca      	ldr	r2, [r1, #28]
 80036a8:	f002 020c 	and.w	r2, r2, #12
 80036ac:	2a04      	cmp	r2, #4
 80036ae:	d068      	beq.n	8003782 <HAL_RCC_GetPCLK2Freq+0xee>
 80036b0:	2b08      	cmp	r3, #8
 80036b2:	d066      	beq.n	8003782 <HAL_RCC_GetPCLK2Freq+0xee>
 80036b4:	2200      	movs	r2, #0
 80036b6:	2b0c      	cmp	r3, #12
 80036b8:	d17e      	bne.n	80037b8 <HAL_RCC_GetPCLK2Freq+0x124>
 80036ba:	4840      	ldr	r0, [pc, #256]	; (80037bc <HAL_RCC_GetPCLK2Freq+0x128>)
 80036bc:	6a84      	ldr	r4, [r0, #40]	; 0x28
 80036be:	6a81      	ldr	r1, [r0, #40]	; 0x28
 80036c0:	6a83      	ldr	r3, [r0, #40]	; 0x28
 80036c2:	6b85      	ldr	r5, [r0, #56]	; 0x38
 80036c4:	f3c3 1300 	ubfx	r3, r3, #4, #1
 80036c8:	f3c5 0ccc 	ubfx	ip, r5, #3, #13
 80036cc:	fb0c f303 	mul.w	r3, ip, r3
 80036d0:	ee07 3a90 	vmov	s15, r3
 80036d4:	f004 0403 	and.w	r4, r4, #3
 80036d8:	f3c1 2103 	ubfx	r1, r1, #8, #4
 80036dc:	2c02      	cmp	r4, #2
 80036de:	eef8 7ae7 	vcvt.f32.s32	s15, s15
 80036e2:	f101 0101 	add.w	r1, r1, #1
 80036e6:	d001      	beq.n	80036ec <HAL_RCC_GetPCLK2Freq+0x58>
 80036e8:	2c03      	cmp	r4, #3
 80036ea:	d153      	bne.n	8003794 <HAL_RCC_GetPCLK2Freq+0x100>
 80036ec:	6b43      	ldr	r3, [r0, #52]	; 0x34
 80036ee:	ee07 1a10 	vmov	s14, r1
 80036f2:	f3c3 0308 	ubfx	r3, r3, #0, #9
 80036f6:	ee06 3a90 	vmov	s13, r3
 80036fa:	ed9f 5a31 	vldr	s10, [pc, #196]	; 80037c0 <HAL_RCC_GetPCLK2Freq+0x12c>
 80036fe:	eef8 6ae6 	vcvt.f32.s32	s13, s13
 8003702:	eeb8 7ac7 	vcvt.f32.s32	s14, s14
 8003706:	eddf 5a2f 	vldr	s11, [pc, #188]	; 80037c4 <HAL_RCC_GetPCLK2Freq+0x130>
 800370a:	eee7 6a85 	vfma.f32	s13, s15, s10
 800370e:	eeb7 6a00 	vmov.f32	s12, #112	; 0x3f800000  1.0
 8003712:	eec5 7a87 	vdiv.f32	s15, s11, s14
 8003716:	ee36 7a86 	vadd.f32	s14, s13, s12
 800371a:	4b28      	ldr	r3, [pc, #160]	; (80037bc <HAL_RCC_GetPCLK2Freq+0x128>)
 800371c:	ee27 7a27 	vmul.f32	s14, s14, s15
 8003720:	6b5b      	ldr	r3, [r3, #52]	; 0x34
 8003722:	f3c3 6306 	ubfx	r3, r3, #24, #7
 8003726:	3301      	adds	r3, #1
 8003728:	ee07 3a90 	vmov	s15, r3
 800372c:	eef8 7ae7 	vcvt.f32.s32	s15, s15
 8003730:	eec7 6a27 	vdiv.f32	s13, s14, s15
 8003734:	eefc 7ae6 	vcvt.u32.f32	s15, s13
 8003738:	ee17 2a90 	vmov	r2, s15
 800373c:	491f      	ldr	r1, [pc, #124]	; (80037bc <HAL_RCC_GetPCLK2Freq+0x128>)
 800373e:	4822      	ldr	r0, [pc, #136]	; (80037c8 <HAL_RCC_GetPCLK2Freq+0x134>)
 8003740:	6a0b      	ldr	r3, [r1, #32]
 8003742:	4c22      	ldr	r4, [pc, #136]	; (80037cc <HAL_RCC_GetPCLK2Freq+0x138>)
 8003744:	f003 030f 	and.w	r3, r3, #15
 8003748:	5cc0      	ldrb	r0, [r0, r3]
 800374a:	fa22 f000 	lsr.w	r0, r2, r0
 800374e:	6020      	str	r0, [r4, #0]
 8003750:	6a0b      	ldr	r3, [r1, #32]
 8003752:	4a1f      	ldr	r2, [pc, #124]	; (80037d0 <HAL_RCC_GetPCLK2Freq+0x13c>)
 8003754:	f3c3 2302 	ubfx	r3, r3, #8, #3
 8003758:	5cd3      	ldrb	r3, [r2, r3]
 800375a:	bc30      	pop	{r4, r5}
 800375c:	40d8      	lsrs	r0, r3
 800375e:	4770      	bx	lr
 8003760:	4a16      	ldr	r2, [pc, #88]	; (80037bc <HAL_RCC_GetPCLK2Freq+0x128>)
 8003762:	6891      	ldr	r1, [r2, #8]
 8003764:	0209      	lsls	r1, r1, #8
 8003766:	bf54      	ite	pl
 8003768:	f8d2 20f4 	ldrpl.w	r2, [r2, #244]	; 0xf4
 800376c:	6892      	ldrmi	r2, [r2, #8]
 800376e:	4919      	ldr	r1, [pc, #100]	; (80037d4 <HAL_RCC_GetPCLK2Freq+0x140>)
 8003770:	bf54      	ite	pl
 8003772:	f3c2 3203 	ubfxpl	r2, r2, #12, #4
 8003776:	0f12      	lsrmi	r2, r2, #28
 8003778:	f851 2022 	ldr.w	r2, [r1, r2, lsl #2]
 800377c:	2b00      	cmp	r3, #0
 800377e:	d0dd      	beq.n	800373c <HAL_RCC_GetPCLK2Freq+0xa8>
 8003780:	e799      	b.n	80036b6 <HAL_RCC_GetPCLK2Freq+0x22>
 8003782:	4a15      	ldr	r2, [pc, #84]	; (80037d8 <HAL_RCC_GetPCLK2Freq+0x144>)
 8003784:	e7da      	b.n	800373c <HAL_RCC_GetPCLK2Freq+0xa8>
 8003786:	f002 0203 	and.w	r2, r2, #3
 800378a:	2a01      	cmp	r2, #1
 800378c:	d0e8      	beq.n	8003760 <HAL_RCC_GetPCLK2Freq+0xcc>
 800378e:	2200      	movs	r2, #0
 8003790:	69cb      	ldr	r3, [r1, #28]
 8003792:	e792      	b.n	80036ba <HAL_RCC_GetPCLK2Freq+0x26>
 8003794:	ee07 2a10 	vmov	s14, r2
 8003798:	6b43      	ldr	r3, [r0, #52]	; 0x34
 800379a:	eef8 5a47 	vcvt.f32.u32	s11, s14
 800379e:	f3c3 0308 	ubfx	r3, r3, #0, #9
 80037a2:	ee06 3a90 	vmov	s13, r3
 80037a6:	ee07 1a10 	vmov	s14, r1
 80037aa:	ed9f 5a05 	vldr	s10, [pc, #20]	; 80037c0 <HAL_RCC_GetPCLK2Freq+0x12c>
 80037ae:	eef8 6ae6 	vcvt.f32.s32	s13, s13
 80037b2:	eeb8 7ac7 	vcvt.f32.s32	s14, s14
 80037b6:	e7a8      	b.n	800370a <HAL_RCC_GetPCLK2Freq+0x76>
 80037b8:	2200      	movs	r2, #0
 80037ba:	e7bf      	b.n	800373c <HAL_RCC_GetPCLK2Freq+0xa8>
 80037bc:	46020c00 	.word	0x46020c00
 80037c0:	39000000 	.word	0x39000000
 80037c4:	4b742400 	.word	0x4b742400
 80037c8:	080060f4 	.word	0x080060f4
 80037cc:	20025800 	.word	0x20025800
 80037d0:	08006104 	.word	0x08006104
 80037d4:	0800610c 	.word	0x0800610c
 80037d8:	00f42400 	.word	0x00f42400

080037dc <HAL_RCC_GetPCLK3Freq>:
 80037dc:	4949      	ldr	r1, [pc, #292]	; (8003904 <HAL_RCC_GetPCLK3Freq+0x128>)
 80037de:	b430      	push	{r4, r5}
 80037e0:	69cb      	ldr	r3, [r1, #28]
 80037e2:	6a8a      	ldr	r2, [r1, #40]	; 0x28
 80037e4:	f013 030c 	ands.w	r3, r3, #12
 80037e8:	d05e      	beq.n	80038a8 <HAL_RCC_GetPCLK3Freq+0xcc>
 80037ea:	2b0c      	cmp	r3, #12
 80037ec:	d06f      	beq.n	80038ce <HAL_RCC_GetPCLK3Freq+0xf2>
 80037ee:	69ca      	ldr	r2, [r1, #28]
 80037f0:	f002 020c 	and.w	r2, r2, #12
 80037f4:	2a04      	cmp	r2, #4
 80037f6:	d068      	beq.n	80038ca <HAL_RCC_GetPCLK3Freq+0xee>
 80037f8:	2b08      	cmp	r3, #8
 80037fa:	d066      	beq.n	80038ca <HAL_RCC_GetPCLK3Freq+0xee>
 80037fc:	2200      	movs	r2, #0
 80037fe:	2b0c      	cmp	r3, #12
 8003800:	d17e      	bne.n	8003900 <HAL_RCC_GetPCLK3Freq+0x124>
 8003802:	4840      	ldr	r0, [pc, #256]	; (8003904 <HAL_RCC_GetPCLK3Freq+0x128>)
 8003804:	6a84      	ldr	r4, [r0, #40]	; 0x28
 8003806:	6a81      	ldr	r1, [r0, #40]	; 0x28
 8003808:	6a83      	ldr	r3, [r0, #40]	; 0x28
 800380a:	6b85      	ldr	r5, [r0, #56]	; 0x38
 800380c:	f3c3 1300 	ubfx	r3, r3, #4, #1
 8003810:	f3c5 0ccc 	ubfx	ip, r5, #3, #13
 8003814:	fb0c f303 	mul.w	r3, ip, r3
 8003818:	ee07 3a90 	vmov	s15, r3
 800381c:	f004 0403 	and.w	r4, r4, #3
 8003820:	f3c1 2103 	ubfx	r1, r1, #8, #4
 8003824:	2c02      	cmp	r4, #2
 8003826:	eef8 7ae7 	vcvt.f32.s32	s15, s15
 800382a:	f101 0101 	add.w	r1, r1, #1
 800382e:	d001      	beq.n	8003834 <HAL_RCC_GetPCLK3Freq+0x58>
 8003830:	2c03      	cmp	r4, #3
 8003832:	d153      	bne.n	80038dc <HAL_RCC_GetPCLK3Freq+0x100>
 8003834:	6b43      	ldr	r3, [r0, #52]	; 0x34
 8003836:	ee07 1a10 	vmov	s14, r1
 800383a:	f3c3 0308 	ubfx	r3, r3, #0, #9
 800383e:	ee06 3a90 	vmov	s13, r3
 8003842:	ed9f 5a31 	vldr	s10, [pc, #196]	; 8003908 <HAL_RCC_GetPCLK3Freq+0x12c>
 8003846:	eef8 6ae6 	vcvt.f32.s32	s13, s13
 800384a:	eeb8 7ac7 	vcvt.f32.s32	s14, s14
 800384e:	eddf 5a2f 	vldr	s11, [pc, #188]	; 800390c <HAL_RCC_GetPCLK3Freq+0x130>
 8003852:	eee7 6a85 	vfma.f32	s13, s15, s10
 8003856:	eeb7 6a00 	vmov.f32	s12, #112	; 0x3f800000  1.0
 800385a:	eec5 7a87 	vdiv.f32	s15, s11, s14
 800385e:	ee36 7a86 	vadd.f32	s14, s13, s12
 8003862:	4b28      	ldr	r3, [pc, #160]	; (8003904 <HAL_RCC_GetPCLK3Freq+0x128>)
 8003864:	ee27 7a27 	vmul.f32	s14, s14, s15
 8003868:	6b5b      	ldr	r3, [r3, #52]	; 0x34
 800386a:	f3c3 6306 	ubfx	r3, r3, #24, #7
 800386e:	3301      	adds	r3, #1
 8003870:	ee07 3a90 	vmov	s15, r3
 8003874:	eef8 7ae7 	vcvt.f32.s32	s15, s15
 8003878:	eec7 6a27 	vdiv.f32	s13, s14, s15
 800387c:	eefc 7ae6 	vcvt.u32.f32	s15, s13
 8003880:	ee17 2a90 	vmov	r2, s15
 8003884:	491f      	ldr	r1, [pc, #124]	; (8003904 <HAL_RCC_GetPCLK3Freq+0x128>)
 8003886:	4822      	ldr	r0, [pc, #136]	; (8003910 <HAL_RCC_GetPCLK3Freq+0x134>)
 8003888:	6a0b      	ldr	r3, [r1, #32]
 800388a:	4c22      	ldr	r4, [pc, #136]	; (8003914 <HAL_RCC_GetPCLK3Freq+0x138>)
 800388c:	f003 030f 	and.w	r3, r3, #15
 8003890:	5cc0      	ldrb	r0, [r0, r3]
 8003892:	fa22 f000 	lsr.w	r0, r2, r0
 8003896:	6020      	str	r0, [r4, #0]
 8003898:	6a4b      	ldr	r3, [r1, #36]	; 0x24
 800389a:	4a1f      	ldr	r2, [pc, #124]	; (8003918 <HAL_RCC_GetPCLK3Freq+0x13c>)
 800389c:	f3c3 1302 	ubfx	r3, r3, #4, #3
 80038a0:	5cd3      	ldrb	r3, [r2, r3]
 80038a2:	bc30      	pop	{r4, r5}
 80038a4:	40d8      	lsrs	r0, r3
 80038a6:	4770      	bx	lr
 80038a8:	4a16      	ldr	r2, [pc, #88]	; (8003904 <HAL_RCC_GetPCLK3Freq+0x128>)
 80038aa:	6891      	ldr	r1, [r2, #8]
 80038ac:	0209      	lsls	r1, r1, #8
 80038ae:	bf54      	ite	pl
 80038b0:	f8d2 20f4 	ldrpl.w	r2, [r2, #244]	; 0xf4
 80038b4:	6892      	ldrmi	r2, [r2, #8]
 80038b6:	4919      	ldr	r1, [pc, #100]	; (800391c <HAL_RCC_GetPCLK3Freq+0x140>)
 80038b8:	bf54      	ite	pl
 80038ba:	f3c2 3203 	ubfxpl	r2, r2, #12, #4
 80038be:	0f12      	lsrmi	r2, r2, #28
 80038c0:	f851 2022 	ldr.w	r2, [r1, r2, lsl #2]
 80038c4:	2b00      	cmp	r3, #0
 80038c6:	d0dd      	beq.n	8003884 <HAL_RCC_GetPCLK3Freq+0xa8>
 80038c8:	e799      	b.n	80037fe <HAL_RCC_GetPCLK3Freq+0x22>
 80038ca:	4a15      	ldr	r2, [pc, #84]	; (8003920 <HAL_RCC_GetPCLK3Freq+0x144>)
 80038cc:	e7da      	b.n	8003884 <HAL_RCC_GetPCLK3Freq+0xa8>
 80038ce:	f002 0203 	and.w	r2, r2, #3
 80038d2:	2a01      	cmp	r2, #1
 80038d4:	d0e8      	beq.n	80038a8 <HAL_RCC_GetPCLK3Freq+0xcc>
 80038d6:	2200      	movs	r2, #0
 80038d8:	69cb      	ldr	r3, [r1, #28]
 80038da:	e792      	b.n	8003802 <HAL_RCC_GetPCLK3Freq+0x26>
 80038dc:	ee07 2a10 	vmov	s14, r2
 80038e0:	6b43      	ldr	r3, [r0, #52]	; 0x34
 80038e2:	eef8 5a47 	vcvt.f32.u32	s11, s14
 80038e6:	f3c3 0308 	ubfx	r3, r3, #0, #9
 80038ea:	ee06 3a90 	vmov	s13, r3
 80038ee:	ee07 1a10 	vmov	s14, r1
 80038f2:	ed9f 5a05 	vldr	s10, [pc, #20]	; 8003908 <HAL_RCC_GetPCLK3Freq+0x12c>
 80038f6:	eef8 6ae6 	vcvt.f32.s32	s13, s13
 80038fa:	eeb8 7ac7 	vcvt.f32.s32	s14, s14
 80038fe:	e7a8      	b.n	8003852 <HAL_RCC_GetPCLK3Freq+0x76>
 8003900:	2200      	movs	r2, #0
 8003902:	e7bf      	b.n	8003884 <HAL_RCC_GetPCLK3Freq+0xa8>
 8003904:	46020c00 	.word	0x46020c00
 8003908:	39000000 	.word	0x39000000
 800390c:	4b742400 	.word	0x4b742400
 8003910:	080060f4 	.word	0x080060f4
 8003914:	20025800 	.word	0x20025800
 8003918:	08006104 	.word	0x08006104
 800391c:	0800610c 	.word	0x0800610c
 8003920:	00f42400 	.word	0x00f42400

08003924 <RCCEx_PLL3_Config>:
 8003924:	b570      	push	{r4, r5, r6, lr}
 8003926:	4c34      	ldr	r4, [pc, #208]	; (80039f8 <RCCEx_PLL3_Config+0xd4>)
 8003928:	4606      	mov	r6, r0
 800392a:	6823      	ldr	r3, [r4, #0]
 800392c:	f023 5380 	bic.w	r3, r3, #268435456	; 0x10000000
 8003930:	6023      	str	r3, [r4, #0]
 8003932:	f7fd fbb5 	bl	80010a0 <HAL_GetTick>
 8003936:	4605      	mov	r5, r0
 8003938:	e004      	b.n	8003944 <RCCEx_PLL3_Config+0x20>
 800393a:	f7fd fbb1 	bl	80010a0 <HAL_GetTick>
 800393e:	1b43      	subs	r3, r0, r5
 8003940:	2b02      	cmp	r3, #2
 8003942:	d856      	bhi.n	80039f2 <RCCEx_PLL3_Config+0xce>
 8003944:	6823      	ldr	r3, [r4, #0]
 8003946:	009a      	lsls	r2, r3, #2
 8003948:	d4f7      	bmi.n	800393a <RCCEx_PLL3_Config+0x16>
 800394a:	6b23      	ldr	r3, [r4, #48]	; 0x30
 800394c:	e9d6 1200 	ldrd	r1, r2, [r6]
 8003950:	f423 6370 	bic.w	r3, r3, #3840	; 0xf00
 8003954:	f023 0303 	bic.w	r3, r3, #3
 8003958:	430b      	orrs	r3, r1
 800395a:	3a01      	subs	r2, #1
 800395c:	ea43 2302 	orr.w	r3, r3, r2, lsl #8
 8003960:	6323      	str	r3, [r4, #48]	; 0x30
 8003962:	6c60      	ldr	r0, [r4, #68]	; 0x44
 8003964:	e9d6 3202 	ldrd	r3, r2, [r6, #8]
 8003968:	4d24      	ldr	r5, [pc, #144]	; (80039fc <RCCEx_PLL3_Config+0xd8>)
 800396a:	1e51      	subs	r1, r2, #1
 800396c:	6932      	ldr	r2, [r6, #16]
 800396e:	3b01      	subs	r3, #1
 8003970:	4005      	ands	r5, r0
 8003972:	f3c3 0308 	ubfx	r3, r3, #0, #9
 8003976:	0249      	lsls	r1, r1, #9
 8003978:	3a01      	subs	r2, #1
 800397a:	b289      	uxth	r1, r1
 800397c:	432b      	orrs	r3, r5
 800397e:	0412      	lsls	r2, r2, #16
 8003980:	f402 02fe 	and.w	r2, r2, #8323072	; 0x7f0000
 8003984:	430b      	orrs	r3, r1
 8003986:	4313      	orrs	r3, r2
 8003988:	6972      	ldr	r2, [r6, #20]
 800398a:	4d1b      	ldr	r5, [pc, #108]	; (80039f8 <RCCEx_PLL3_Config+0xd4>)
 800398c:	3a01      	subs	r2, #1
 800398e:	0612      	lsls	r2, r2, #24
 8003990:	f002 42fe 	and.w	r2, r2, #2130706432	; 0x7f000000
 8003994:	4313      	orrs	r3, r2
 8003996:	6463      	str	r3, [r4, #68]	; 0x44
 8003998:	6b23      	ldr	r3, [r4, #48]	; 0x30
 800399a:	69b2      	ldr	r2, [r6, #24]
 800399c:	f023 030c 	bic.w	r3, r3, #12
 80039a0:	4313      	orrs	r3, r2
 80039a2:	6323      	str	r3, [r4, #48]	; 0x30
 80039a4:	6b23      	ldr	r3, [r4, #48]	; 0x30
 80039a6:	6a32      	ldr	r2, [r6, #32]
 80039a8:	4313      	orrs	r3, r2
 80039aa:	6323      	str	r3, [r4, #48]	; 0x30
 80039ac:	6b23      	ldr	r3, [r4, #48]	; 0x30
 80039ae:	f023 0310 	bic.w	r3, r3, #16
 80039b2:	6323      	str	r3, [r4, #48]	; 0x30
 80039b4:	6ca3      	ldr	r3, [r4, #72]	; 0x48
 80039b6:	69f2      	ldr	r2, [r6, #28]
 80039b8:	f423 437f 	bic.w	r3, r3, #65280	; 0xff00
 80039bc:	f023 03f8 	bic.w	r3, r3, #248	; 0xf8
 80039c0:	ea43 03c2 	orr.w	r3, r3, r2, lsl #3
 80039c4:	64a3      	str	r3, [r4, #72]	; 0x48
 80039c6:	6b23      	ldr	r3, [r4, #48]	; 0x30
 80039c8:	f043 0310 	orr.w	r3, r3, #16
 80039cc:	6323      	str	r3, [r4, #48]	; 0x30
 80039ce:	6823      	ldr	r3, [r4, #0]
 80039d0:	f043 5380 	orr.w	r3, r3, #268435456	; 0x10000000
 80039d4:	6023      	str	r3, [r4, #0]
 80039d6:	f7fd fb63 	bl	80010a0 <HAL_GetTick>
 80039da:	4604      	mov	r4, r0
 80039dc:	e004      	b.n	80039e8 <RCCEx_PLL3_Config+0xc4>
 80039de:	f7fd fb5f 	bl	80010a0 <HAL_GetTick>
 80039e2:	1b00      	subs	r0, r0, r4
 80039e4:	2802      	cmp	r0, #2
 80039e6:	d804      	bhi.n	80039f2 <RCCEx_PLL3_Config+0xce>
 80039e8:	682b      	ldr	r3, [r5, #0]
 80039ea:	009b      	lsls	r3, r3, #2
 80039ec:	d5f7      	bpl.n	80039de <RCCEx_PLL3_Config+0xba>
 80039ee:	2000      	movs	r0, #0
 80039f0:	bd70      	pop	{r4, r5, r6, pc}
 80039f2:	2003      	movs	r0, #3
 80039f4:	bd70      	pop	{r4, r5, r6, pc}
 80039f6:	bf00      	nop
 80039f8:	46020c00 	.word	0x46020c00
 80039fc:	80800000 	.word	0x80800000

08003a00 <RCCEx_PLL2_Config>:
 8003a00:	b570      	push	{r4, r5, r6, lr}
 8003a02:	4c34      	ldr	r4, [pc, #208]	; (8003ad4 <RCCEx_PLL2_Config+0xd4>)
 8003a04:	4606      	mov	r6, r0
 8003a06:	6823      	ldr	r3, [r4, #0]
 8003a08:	f023 6380 	bic.w	r3, r3, #67108864	; 0x4000000
 8003a0c:	6023      	str	r3, [r4, #0]
 8003a0e:	f7fd fb47 	bl	80010a0 <HAL_GetTick>
 8003a12:	4605      	mov	r5, r0
 8003a14:	e004      	b.n	8003a20 <RCCEx_PLL2_Config+0x20>
 8003a16:	f7fd fb43 	bl	80010a0 <HAL_GetTick>
 8003a1a:	1b43      	subs	r3, r0, r5
 8003a1c:	2b02      	cmp	r3, #2
 8003a1e:	d856      	bhi.n	8003ace <RCCEx_PLL2_Config+0xce>
 8003a20:	6823      	ldr	r3, [r4, #0]
 8003a22:	011a      	lsls	r2, r3, #4
 8003a24:	d4f7      	bmi.n	8003a16 <RCCEx_PLL2_Config+0x16>
 8003a26:	6ae3      	ldr	r3, [r4, #44]	; 0x2c
 8003a28:	e9d6 1200 	ldrd	r1, r2, [r6]
 8003a2c:	f423 6370 	bic.w	r3, r3, #3840	; 0xf00
 8003a30:	f023 0303 	bic.w	r3, r3, #3
 8003a34:	430b      	orrs	r3, r1
 8003a36:	3a01      	subs	r2, #1
 8003a38:	ea43 2302 	orr.w	r3, r3, r2, lsl #8
 8003a3c:	62e3      	str	r3, [r4, #44]	; 0x2c
 8003a3e:	6be0      	ldr	r0, [r4, #60]	; 0x3c
 8003a40:	e9d6 3202 	ldrd	r3, r2, [r6, #8]
 8003a44:	4d24      	ldr	r5, [pc, #144]	; (8003ad8 <RCCEx_PLL2_Config+0xd8>)
 8003a46:	1e51      	subs	r1, r2, #1
 8003a48:	6932      	ldr	r2, [r6, #16]
 8003a4a:	3b01      	subs	r3, #1
 8003a4c:	4005      	ands	r5, r0
 8003a4e:	f3c3 0308 	ubfx	r3, r3, #0, #9
 8003a52:	0249      	lsls	r1, r1, #9
 8003a54:	3a01      	subs	r2, #1
 8003a56:	b289      	uxth	r1, r1
 8003a58:	432b      	orrs	r3, r5
 8003a5a:	0412      	lsls	r2, r2, #16
 8003a5c:	f402 02fe 	and.w	r2, r2, #8323072	; 0x7f0000
 8003a60:	430b      	orrs	r3, r1
 8003a62:	4313      	orrs	r3, r2
 8003a64:	6972      	ldr	r2, [r6, #20]
 8003a66:	4d1b      	ldr	r5, [pc, #108]	; (8003ad4 <RCCEx_PLL2_Config+0xd4>)
 8003a68:	3a01      	subs	r2, #1
 8003a6a:	0612      	lsls	r2, r2, #24
 8003a6c:	f002 42fe 	and.w	r2, r2, #2130706432	; 0x7f000000
 8003a70:	4313      	orrs	r3, r2
 8003a72:	63e3      	str	r3, [r4, #60]	; 0x3c
 8003a74:	6ae3      	ldr	r3, [r4, #44]	; 0x2c
 8003a76:	69b2      	ldr	r2, [r6, #24]
 8003a78:	f023 030c 	bic.w	r3, r3, #12
 8003a7c:	4313      	orrs	r3, r2
 8003a7e:	62e3      	str	r3, [r4, #44]	; 0x2c
 8003a80:	6ae3      	ldr	r3, [r4, #44]	; 0x2c
 8003a82:	6a32      	ldr	r2, [r6, #32]
 8003a84:	4313      	orrs	r3, r2
 8003a86:	62e3      	str	r3, [r4, #44]	; 0x2c
 8003a88:	6ae3      	ldr	r3, [r4, #44]	; 0x2c
 8003a8a:	f023 0310 	bic.w	r3, r3, #16
 8003a8e:	62e3      	str	r3, [r4, #44]	; 0x2c
 8003a90:	6c23      	ldr	r3, [r4, #64]	; 0x40
 8003a92:	69f2      	ldr	r2, [r6, #28]
 8003a94:	f423 437f 	bic.w	r3, r3, #65280	; 0xff00
 8003a98:	f023 03f8 	bic.w	r3, r3, #248	; 0xf8
 8003a9c:	ea43 03c2 	orr.w	r3, r3, r2, lsl #3
 8003aa0:	6423      	str	r3, [r4, #64]	; 0x40
 8003aa2:	6ae3      	ldr	r3, [r4, #44]	; 0x2c
 8003aa4:	f043 0310 	orr.w	r3, r3, #16
 8003aa8:	62e3      	str	r3, [r4, #44]	; 0x2c
 8003aaa:	6823      	ldr	r3, [r4, #0]
 8003aac:	f043 6380 	orr.w	r3, r3, #67108864	; 0x4000000
 8003ab0:	6023      	str	r3, [r4, #0]
 8003ab2:	f7fd faf5 	bl	80010a0 <HAL_GetTick>
 8003ab6:	4604      	mov	r4, r0
 8003ab8:	e004      	b.n	8003ac4 <RCCEx_PLL2_Config+0xc4>
 8003aba:	f7fd faf1 	bl	80010a0 <HAL_GetTick>
 8003abe:	1b00      	subs	r0, r0, r4
 8003ac0:	2802      	cmp	r0, #2
 8003ac2:	d804      	bhi.n	8003ace <RCCEx_PLL2_Config+0xce>
 8003ac4:	682b      	ldr	r3, [r5, #0]
 8003ac6:	011b      	lsls	r3, r3, #4
 8003ac8:	d5f7      	bpl.n	8003aba <RCCEx_PLL2_Config+0xba>
 8003aca:	2000      	movs	r0, #0
 8003acc:	bd70      	pop	{r4, r5, r6, pc}
 8003ace:	2003      	movs	r0, #3
 8003ad0:	bd70      	pop	{r4, r5, r6, pc}
 8003ad2:	bf00      	nop
 8003ad4:	46020c00 	.word	0x46020c00
 8003ad8:	80800000 	.word	0x80800000

08003adc <HAL_RCCEx_PeriphCLKConfig>:
 8003adc:	e92d 47f0 	stmdb	sp!, {r4, r5, r6, r7, r8, r9, sl, lr}
 8003ae0:	6803      	ldr	r3, [r0, #0]
 8003ae2:	4604      	mov	r4, r0
 8003ae4:	07dd      	lsls	r5, r3, #31
 8003ae6:	b082      	sub	sp, #8
 8003ae8:	d508      	bpl.n	8003afc <HAL_RCCEx_PeriphCLKConfig+0x20>
 8003aea:	49a7      	ldr	r1, [pc, #668]	; (8003d88 <HAL_RCCEx_PeriphCLKConfig+0x2ac>)
 8003aec:	6d00      	ldr	r0, [r0, #80]	; 0x50
 8003aee:	f8d1 20e0 	ldr.w	r2, [r1, #224]	; 0xe0
 8003af2:	f022 0203 	bic.w	r2, r2, #3
 8003af6:	4302      	orrs	r2, r0
 8003af8:	f8c1 20e0 	str.w	r2, [r1, #224]	; 0xe0
 8003afc:	0798      	lsls	r0, r3, #30
 8003afe:	d508      	bpl.n	8003b12 <HAL_RCCEx_PeriphCLKConfig+0x36>
 8003b00:	49a1      	ldr	r1, [pc, #644]	; (8003d88 <HAL_RCCEx_PeriphCLKConfig+0x2ac>)
 8003b02:	6d60      	ldr	r0, [r4, #84]	; 0x54
 8003b04:	f8d1 20e0 	ldr.w	r2, [r1, #224]	; 0xe0
 8003b08:	f022 020c 	bic.w	r2, r2, #12
 8003b0c:	4302      	orrs	r2, r0
 8003b0e:	f8c1 20e0 	str.w	r2, [r1, #224]	; 0xe0
 8003b12:	0759      	lsls	r1, r3, #29
 8003b14:	d508      	bpl.n	8003b28 <HAL_RCCEx_PeriphCLKConfig+0x4c>
 8003b16:	499c      	ldr	r1, [pc, #624]	; (8003d88 <HAL_RCCEx_PeriphCLKConfig+0x2ac>)
 8003b18:	6da0      	ldr	r0, [r4, #88]	; 0x58
 8003b1a:	f8d1 20e0 	ldr.w	r2, [r1, #224]	; 0xe0
 8003b1e:	f022 0230 	bic.w	r2, r2, #48	; 0x30
 8003b22:	4302      	orrs	r2, r0
 8003b24:	f8c1 20e0 	str.w	r2, [r1, #224]	; 0xe0
 8003b28:	071a      	lsls	r2, r3, #28
 8003b2a:	d508      	bpl.n	8003b3e <HAL_RCCEx_PeriphCLKConfig+0x62>
 8003b2c:	4996      	ldr	r1, [pc, #600]	; (8003d88 <HAL_RCCEx_PeriphCLKConfig+0x2ac>)
 8003b2e:	6de0      	ldr	r0, [r4, #92]	; 0x5c
 8003b30:	f8d1 20e0 	ldr.w	r2, [r1, #224]	; 0xe0
 8003b34:	f022 02c0 	bic.w	r2, r2, #192	; 0xc0
 8003b38:	4302      	orrs	r2, r0
 8003b3a:	f8c1 20e0 	str.w	r2, [r1, #224]	; 0xe0
 8003b3e:	06df      	lsls	r7, r3, #27
 8003b40:	d508      	bpl.n	8003b54 <HAL_RCCEx_PeriphCLKConfig+0x78>
 8003b42:	4991      	ldr	r1, [pc, #580]	; (8003d88 <HAL_RCCEx_PeriphCLKConfig+0x2ac>)
 8003b44:	6e20      	ldr	r0, [r4, #96]	; 0x60
 8003b46:	f8d1 20e0 	ldr.w	r2, [r1, #224]	; 0xe0
 8003b4a:	f422 7240 	bic.w	r2, r2, #768	; 0x300
 8003b4e:	4302      	orrs	r2, r0
 8003b50:	f8c1 20e0 	str.w	r2, [r1, #224]	; 0xe0
 8003b54:	069e      	lsls	r6, r3, #26
 8003b56:	d508      	bpl.n	8003b6a <HAL_RCCEx_PeriphCLKConfig+0x8e>
 8003b58:	498b      	ldr	r1, [pc, #556]	; (8003d88 <HAL_RCCEx_PeriphCLKConfig+0x2ac>)
 8003b5a:	6e60      	ldr	r0, [r4, #100]	; 0x64
 8003b5c:	f8d1 20e8 	ldr.w	r2, [r1, #232]	; 0xe8
 8003b60:	f022 0207 	bic.w	r2, r2, #7
 8003b64:	4302      	orrs	r2, r0
 8003b66:	f8c1 20e8 	str.w	r2, [r1, #232]	; 0xe8
 8003b6a:	065d      	lsls	r5, r3, #25
 8003b6c:	d508      	bpl.n	8003b80 <HAL_RCCEx_PeriphCLKConfig+0xa4>
 8003b6e:	4986      	ldr	r1, [pc, #536]	; (8003d88 <HAL_RCCEx_PeriphCLKConfig+0x2ac>)
 8003b70:	6ea0      	ldr	r0, [r4, #104]	; 0x68
 8003b72:	f8d1 20e0 	ldr.w	r2, [r1, #224]	; 0xe0
 8003b76:	f422 6240 	bic.w	r2, r2, #3072	; 0xc00
 8003b7a:	4302      	orrs	r2, r0
 8003b7c:	f8c1 20e0 	str.w	r2, [r1, #224]	; 0xe0
 8003b80:	0618      	lsls	r0, r3, #24
 8003b82:	d508      	bpl.n	8003b96 <HAL_RCCEx_PeriphCLKConfig+0xba>
 8003b84:	4980      	ldr	r1, [pc, #512]	; (8003d88 <HAL_RCCEx_PeriphCLKConfig+0x2ac>)
 8003b86:	6ee0      	ldr	r0, [r4, #108]	; 0x6c
 8003b88:	f8d1 20e0 	ldr.w	r2, [r1, #224]	; 0xe0
 8003b8c:	f422 5240 	bic.w	r2, r2, #12288	; 0x3000
 8003b90:	4302      	orrs	r2, r0
 8003b92:	f8c1 20e0 	str.w	r2, [r1, #224]	; 0xe0
 8003b96:	05d9      	lsls	r1, r3, #23
 8003b98:	d508      	bpl.n	8003bac <HAL_RCCEx_PeriphCLKConfig+0xd0>
 8003b9a:	497b      	ldr	r1, [pc, #492]	; (8003d88 <HAL_RCCEx_PeriphCLKConfig+0x2ac>)
 8003b9c:	6f20      	ldr	r0, [r4, #112]	; 0x70
 8003b9e:	f8d1 20e8 	ldr.w	r2, [r1, #232]	; 0xe8
 8003ba2:	f022 02c0 	bic.w	r2, r2, #192	; 0xc0
 8003ba6:	4302      	orrs	r2, r0
 8003ba8:	f8c1 20e8 	str.w	r2, [r1, #232]	; 0xe8
 8003bac:	025a      	lsls	r2, r3, #9
 8003bae:	d508      	bpl.n	8003bc2 <HAL_RCCEx_PeriphCLKConfig+0xe6>
 8003bb0:	4975      	ldr	r1, [pc, #468]	; (8003d88 <HAL_RCCEx_PeriphCLKConfig+0x2ac>)
 8003bb2:	6f60      	ldr	r0, [r4, #116]	; 0x74
 8003bb4:	f8d1 20e0 	ldr.w	r2, [r1, #224]	; 0xe0
 8003bb8:	f422 4240 	bic.w	r2, r2, #49152	; 0xc000
 8003bbc:	4302      	orrs	r2, r0
 8003bbe:	f8c1 20e0 	str.w	r2, [r1, #224]	; 0xe0
 8003bc2:	059f      	lsls	r7, r3, #22
 8003bc4:	d508      	bpl.n	8003bd8 <HAL_RCCEx_PeriphCLKConfig+0xfc>
 8003bc6:	4970      	ldr	r1, [pc, #448]	; (8003d88 <HAL_RCCEx_PeriphCLKConfig+0x2ac>)
 8003bc8:	6fa0      	ldr	r0, [r4, #120]	; 0x78
 8003bca:	f8d1 20e8 	ldr.w	r2, [r1, #232]	; 0xe8
 8003bce:	f422 6240 	bic.w	r2, r2, #3072	; 0xc00
 8003bd2:	4302      	orrs	r2, r0
 8003bd4:	f8c1 20e8 	str.w	r2, [r1, #232]	; 0xe8
 8003bd8:	055e      	lsls	r6, r3, #21
 8003bda:	d508      	bpl.n	8003bee <HAL_RCCEx_PeriphCLKConfig+0x112>
 8003bdc:	496a      	ldr	r1, [pc, #424]	; (8003d88 <HAL_RCCEx_PeriphCLKConfig+0x2ac>)
 8003bde:	6fe0      	ldr	r0, [r4, #124]	; 0x7c
 8003be0:	f8d1 20e0 	ldr.w	r2, [r1, #224]	; 0xe0
 8003be4:	f422 2240 	bic.w	r2, r2, #786432	; 0xc0000
 8003be8:	4302      	orrs	r2, r0
 8003bea:	f8c1 20e0 	str.w	r2, [r1, #224]	; 0xe0
 8003bee:	051d      	lsls	r5, r3, #20
 8003bf0:	d509      	bpl.n	8003c06 <HAL_RCCEx_PeriphCLKConfig+0x12a>
 8003bf2:	4965      	ldr	r1, [pc, #404]	; (8003d88 <HAL_RCCEx_PeriphCLKConfig+0x2ac>)
 8003bf4:	f8d4 0080 	ldr.w	r0, [r4, #128]	; 0x80
 8003bf8:	f8d1 20e8 	ldr.w	r2, [r1, #232]	; 0xe8
 8003bfc:	f422 7240 	bic.w	r2, r2, #768	; 0x300
 8003c00:	4302      	orrs	r2, r0
 8003c02:	f8c1 20e8 	str.w	r2, [r1, #232]	; 0xe8
 8003c06:	0498      	lsls	r0, r3, #18
 8003c08:	f403 5500 	and.w	r5, r3, #8192	; 0x2000
 8003c0c:	d525      	bpl.n	8003c5a <HAL_RCCEx_PeriphCLKConfig+0x17e>
 8003c0e:	f8d4 2090 	ldr.w	r2, [r4, #144]	; 0x90
 8003c12:	2a40      	cmp	r2, #64	; 0x40
 8003c14:	f000 8265 	beq.w	80040e2 <HAL_RCCEx_PeriphCLKConfig+0x606>
 8003c18:	d811      	bhi.n	8003c3e <HAL_RCCEx_PeriphCLKConfig+0x162>
 8003c1a:	2a00      	cmp	r2, #0
 8003c1c:	f000 8206 	beq.w	800402c <HAL_RCCEx_PeriphCLKConfig+0x550>
 8003c20:	2a20      	cmp	r2, #32
 8003c22:	f040 8275 	bne.w	8004110 <HAL_RCCEx_PeriphCLKConfig+0x634>
 8003c26:	f104 002c 	add.w	r0, r4, #44	; 0x2c
 8003c2a:	f7ff fe7b 	bl	8003924 <RCCEx_PLL3_Config>
 8003c2e:	4605      	mov	r5, r0
 8003c30:	2d00      	cmp	r5, #0
 8003c32:	f040 8254 	bne.w	80040de <HAL_RCCEx_PeriphCLKConfig+0x602>
 8003c36:	f8d4 2090 	ldr.w	r2, [r4, #144]	; 0x90
 8003c3a:	6823      	ldr	r3, [r4, #0]
 8003c3c:	e004      	b.n	8003c48 <HAL_RCCEx_PeriphCLKConfig+0x16c>
 8003c3e:	2a60      	cmp	r2, #96	; 0x60
 8003c40:	d002      	beq.n	8003c48 <HAL_RCCEx_PeriphCLKConfig+0x16c>
 8003c42:	2a80      	cmp	r2, #128	; 0x80
 8003c44:	f040 8264 	bne.w	8004110 <HAL_RCCEx_PeriphCLKConfig+0x634>
 8003c48:	2500      	movs	r5, #0
 8003c4a:	484f      	ldr	r0, [pc, #316]	; (8003d88 <HAL_RCCEx_PeriphCLKConfig+0x2ac>)
 8003c4c:	f8d0 10e4 	ldr.w	r1, [r0, #228]	; 0xe4
 8003c50:	f021 01e0 	bic.w	r1, r1, #224	; 0xe0
 8003c54:	430a      	orrs	r2, r1
 8003c56:	f8c0 20e4 	str.w	r2, [r0, #228]	; 0xe4
 8003c5a:	0459      	lsls	r1, r3, #17
 8003c5c:	d52b      	bpl.n	8003cb6 <HAL_RCCEx_PeriphCLKConfig+0x1da>
 8003c5e:	f8d4 2094 	ldr.w	r2, [r4, #148]	; 0x94
 8003c62:	f5b2 7f00 	cmp.w	r2, #512	; 0x200
 8003c66:	f000 8245 	beq.w	80040f4 <HAL_RCCEx_PeriphCLKConfig+0x618>
 8003c6a:	d818      	bhi.n	8003c9e <HAL_RCCEx_PeriphCLKConfig+0x1c2>
 8003c6c:	2a00      	cmp	r2, #0
 8003c6e:	f000 81e6 	beq.w	800403e <HAL_RCCEx_PeriphCLKConfig+0x562>
 8003c72:	f5b2 7f80 	cmp.w	r2, #256	; 0x100
 8003c76:	f040 8248 	bne.w	800410a <HAL_RCCEx_PeriphCLKConfig+0x62e>
 8003c7a:	f104 002c 	add.w	r0, r4, #44	; 0x2c
 8003c7e:	f7ff fe51 	bl	8003924 <RCCEx_PLL3_Config>
 8003c82:	4606      	mov	r6, r0
 8003c84:	6823      	ldr	r3, [r4, #0]
 8003c86:	b9a6      	cbnz	r6, 8003cb2 <HAL_RCCEx_PeriphCLKConfig+0x1d6>
 8003c88:	493f      	ldr	r1, [pc, #252]	; (8003d88 <HAL_RCCEx_PeriphCLKConfig+0x2ac>)
 8003c8a:	f8d4 0094 	ldr.w	r0, [r4, #148]	; 0x94
 8003c8e:	f8d1 20e4 	ldr.w	r2, [r1, #228]	; 0xe4
 8003c92:	f422 62e0 	bic.w	r2, r2, #1792	; 0x700
 8003c96:	4302      	orrs	r2, r0
 8003c98:	f8c1 20e4 	str.w	r2, [r1, #228]	; 0xe4
 8003c9c:	e00c      	b.n	8003cb8 <HAL_RCCEx_PeriphCLKConfig+0x1dc>
 8003c9e:	f5b2 7f40 	cmp.w	r2, #768	; 0x300
 8003ca2:	d003      	beq.n	8003cac <HAL_RCCEx_PeriphCLKConfig+0x1d0>
 8003ca4:	f5b2 6f80 	cmp.w	r2, #1024	; 0x400
 8003ca8:	f040 822f 	bne.w	800410a <HAL_RCCEx_PeriphCLKConfig+0x62e>
 8003cac:	462e      	mov	r6, r5
 8003cae:	2e00      	cmp	r6, #0
 8003cb0:	d0ea      	beq.n	8003c88 <HAL_RCCEx_PeriphCLKConfig+0x1ac>
 8003cb2:	4635      	mov	r5, r6
 8003cb4:	e000      	b.n	8003cb8 <HAL_RCCEx_PeriphCLKConfig+0x1dc>
 8003cb6:	462e      	mov	r6, r5
 8003cb8:	041a      	lsls	r2, r3, #16
 8003cba:	d510      	bpl.n	8003cde <HAL_RCCEx_PeriphCLKConfig+0x202>
 8003cbc:	f8d4 20a8 	ldr.w	r2, [r4, #168]	; 0xa8
 8003cc0:	f5b2 5f00 	cmp.w	r2, #8192	; 0x2000
 8003cc4:	f000 81d6 	beq.w	8004074 <HAL_RCCEx_PeriphCLKConfig+0x598>
 8003cc8:	d917      	bls.n	8003cfa <HAL_RCCEx_PeriphCLKConfig+0x21e>
 8003cca:	f422 5180 	bic.w	r1, r2, #4096	; 0x1000
 8003cce:	f5b1 4f80 	cmp.w	r1, #16384	; 0x4000
 8003cd2:	d015      	beq.n	8003d00 <HAL_RCCEx_PeriphCLKConfig+0x224>
 8003cd4:	f5b2 5f40 	cmp.w	r2, #12288	; 0x3000
 8003cd8:	d012      	beq.n	8003d00 <HAL_RCCEx_PeriphCLKConfig+0x224>
 8003cda:	2501      	movs	r5, #1
 8003cdc:	462e      	mov	r6, r5
 8003cde:	03df      	lsls	r7, r3, #15
 8003ce0:	d51e      	bpl.n	8003d20 <HAL_RCCEx_PeriphCLKConfig+0x244>
 8003ce2:	f8d4 2088 	ldr.w	r2, [r4, #136]	; 0x88
 8003ce6:	2a04      	cmp	r2, #4
 8003ce8:	f200 8214 	bhi.w	8004114 <HAL_RCCEx_PeriphCLKConfig+0x638>
 8003cec:	e8df f012 	tbh	[pc, r2, lsl #1]
 8003cf0:	01ef0160 	.word	0x01ef0160
 8003cf4:	0160015a 	.word	0x0160015a
 8003cf8:	0160      	.short	0x0160
 8003cfa:	f432 5280 	bics.w	r2, r2, #4096	; 0x1000
 8003cfe:	d1ec      	bne.n	8003cda <HAL_RCCEx_PeriphCLKConfig+0x1fe>
 8003d00:	2e00      	cmp	r6, #0
 8003d02:	f040 81c0 	bne.w	8004086 <HAL_RCCEx_PeriphCLKConfig+0x5aa>
 8003d06:	4920      	ldr	r1, [pc, #128]	; (8003d88 <HAL_RCCEx_PeriphCLKConfig+0x2ac>)
 8003d08:	f8d4 00a8 	ldr.w	r0, [r4, #168]	; 0xa8
 8003d0c:	f8d1 20e8 	ldr.w	r2, [r1, #232]	; 0xe8
 8003d10:	03df      	lsls	r7, r3, #15
 8003d12:	f422 42e0 	bic.w	r2, r2, #28672	; 0x7000
 8003d16:	ea42 0200 	orr.w	r2, r2, r0
 8003d1a:	f8c1 20e8 	str.w	r2, [r1, #232]	; 0xe8
 8003d1e:	d4e0      	bmi.n	8003ce2 <HAL_RCCEx_PeriphCLKConfig+0x206>
 8003d20:	0398      	lsls	r0, r3, #14
 8003d22:	d51e      	bpl.n	8003d62 <HAL_RCCEx_PeriphCLKConfig+0x286>
 8003d24:	f8d4 208c 	ldr.w	r2, [r4, #140]	; 0x8c
 8003d28:	f5b2 3f00 	cmp.w	r2, #131072	; 0x20000
 8003d2c:	f000 81b5 	beq.w	800409a <HAL_RCCEx_PeriphCLKConfig+0x5be>
 8003d30:	f200 8126 	bhi.w	8003f80 <HAL_RCCEx_PeriphCLKConfig+0x4a4>
 8003d34:	b142      	cbz	r2, 8003d48 <HAL_RCCEx_PeriphCLKConfig+0x26c>
 8003d36:	f5b2 3f80 	cmp.w	r2, #65536	; 0x10000
 8003d3a:	f040 8129 	bne.w	8003f90 <HAL_RCCEx_PeriphCLKConfig+0x4b4>
 8003d3e:	4912      	ldr	r1, [pc, #72]	; (8003d88 <HAL_RCCEx_PeriphCLKConfig+0x2ac>)
 8003d40:	6a8a      	ldr	r2, [r1, #40]	; 0x28
 8003d42:	f442 3280 	orr.w	r2, r2, #65536	; 0x10000
 8003d46:	628a      	str	r2, [r1, #40]	; 0x28
 8003d48:	2e00      	cmp	r6, #0
 8003d4a:	f040 817f 	bne.w	800404c <HAL_RCCEx_PeriphCLKConfig+0x570>
 8003d4e:	490e      	ldr	r1, [pc, #56]	; (8003d88 <HAL_RCCEx_PeriphCLKConfig+0x2ac>)
 8003d50:	f8d4 008c 	ldr.w	r0, [r4, #140]	; 0x8c
 8003d54:	f8d1 20e8 	ldr.w	r2, [r1, #232]	; 0xe8
 8003d58:	f422 22e0 	bic.w	r2, r2, #458752	; 0x70000
 8003d5c:	4302      	orrs	r2, r0
 8003d5e:	f8c1 20e8 	str.w	r2, [r1, #232]	; 0xe8
 8003d62:	0359      	lsls	r1, r3, #13
 8003d64:	d566      	bpl.n	8003e34 <HAL_RCCEx_PeriphCLKConfig+0x358>
 8003d66:	4b08      	ldr	r3, [pc, #32]	; (8003d88 <HAL_RCCEx_PeriphCLKConfig+0x2ac>)
 8003d68:	f8d3 2094 	ldr.w	r2, [r3, #148]	; 0x94
 8003d6c:	0752      	lsls	r2, r2, #29
 8003d6e:	f140 812c 	bpl.w	8003fca <HAL_RCCEx_PeriphCLKConfig+0x4ee>
 8003d72:	f04f 0900 	mov.w	r9, #0
 8003d76:	4f05      	ldr	r7, [pc, #20]	; (8003d8c <HAL_RCCEx_PeriphCLKConfig+0x2b0>)
 8003d78:	6abb      	ldr	r3, [r7, #40]	; 0x28
 8003d7a:	f043 0301 	orr.w	r3, r3, #1
 8003d7e:	62bb      	str	r3, [r7, #40]	; 0x28
 8003d80:	f7fd f98e 	bl	80010a0 <HAL_GetTick>
 8003d84:	4680      	mov	r8, r0
 8003d86:	e00a      	b.n	8003d9e <HAL_RCCEx_PeriphCLKConfig+0x2c2>
 8003d88:	46020c00 	.word	0x46020c00
 8003d8c:	46020800 	.word	0x46020800
 8003d90:	f7fd f986 	bl	80010a0 <HAL_GetTick>
 8003d94:	eba0 0308 	sub.w	r3, r0, r8
 8003d98:	2b02      	cmp	r3, #2
 8003d9a:	f200 8142 	bhi.w	8004022 <HAL_RCCEx_PeriphCLKConfig+0x546>
 8003d9e:	6abb      	ldr	r3, [r7, #40]	; 0x28
 8003da0:	07db      	lsls	r3, r3, #31
 8003da2:	d5f5      	bpl.n	8003d90 <HAL_RCCEx_PeriphCLKConfig+0x2b4>
 8003da4:	2e00      	cmp	r6, #0
 8003da6:	f040 81ac 	bne.w	8004102 <HAL_RCCEx_PeriphCLKConfig+0x626>
 8003daa:	f8df a344 	ldr.w	sl, [pc, #836]	; 80040f0 <HAL_RCCEx_PeriphCLKConfig+0x614>
 8003dae:	f8da 30f0 	ldr.w	r3, [sl, #240]	; 0xf0
 8003db2:	f413 7340 	ands.w	r3, r3, #768	; 0x300
 8003db6:	d028      	beq.n	8003e0a <HAL_RCCEx_PeriphCLKConfig+0x32e>
 8003db8:	f8d4 20c0 	ldr.w	r2, [r4, #192]	; 0xc0
 8003dbc:	429a      	cmp	r2, r3
 8003dbe:	d026      	beq.n	8003e0e <HAL_RCCEx_PeriphCLKConfig+0x332>
 8003dc0:	f8da 10f0 	ldr.w	r1, [sl, #240]	; 0xf0
 8003dc4:	f8da 30f0 	ldr.w	r3, [sl, #240]	; 0xf0
 8003dc8:	07c8      	lsls	r0, r1, #31
 8003dca:	f443 3380 	orr.w	r3, r3, #65536	; 0x10000
 8003dce:	f8ca 30f0 	str.w	r3, [sl, #240]	; 0xf0
 8003dd2:	f8da 30f0 	ldr.w	r3, [sl, #240]	; 0xf0
 8003dd6:	f423 3380 	bic.w	r3, r3, #65536	; 0x10000
 8003dda:	f8ca 30f0 	str.w	r3, [sl, #240]	; 0xf0
 8003dde:	f421 7340 	bic.w	r3, r1, #768	; 0x300
 8003de2:	f8ca 30f0 	str.w	r3, [sl, #240]	; 0xf0
 8003de6:	f140 818e 	bpl.w	8004106 <HAL_RCCEx_PeriphCLKConfig+0x62a>
 8003dea:	f7fd f959 	bl	80010a0 <HAL_GetTick>
 8003dee:	f241 3888 	movw	r8, #5000	; 0x1388
 8003df2:	4607      	mov	r7, r0
 8003df4:	e005      	b.n	8003e02 <HAL_RCCEx_PeriphCLKConfig+0x326>
 8003df6:	f7fd f953 	bl	80010a0 <HAL_GetTick>
 8003dfa:	1bc0      	subs	r0, r0, r7
 8003dfc:	4540      	cmp	r0, r8
 8003dfe:	f200 8110 	bhi.w	8004022 <HAL_RCCEx_PeriphCLKConfig+0x546>
 8003e02:	f8da 30f0 	ldr.w	r3, [sl, #240]	; 0xf0
 8003e06:	0799      	lsls	r1, r3, #30
 8003e08:	d5f5      	bpl.n	8003df6 <HAL_RCCEx_PeriphCLKConfig+0x31a>
 8003e0a:	f8d4 30c0 	ldr.w	r3, [r4, #192]	; 0xc0
 8003e0e:	49b8      	ldr	r1, [pc, #736]	; (80040f0 <HAL_RCCEx_PeriphCLKConfig+0x614>)
 8003e10:	f8d1 20f0 	ldr.w	r2, [r1, #240]	; 0xf0
 8003e14:	f422 7240 	bic.w	r2, r2, #768	; 0x300
 8003e18:	4313      	orrs	r3, r2
 8003e1a:	f8c1 30f0 	str.w	r3, [r1, #240]	; 0xf0
 8003e1e:	f1b9 0f00 	cmp.w	r9, #0
 8003e22:	d006      	beq.n	8003e32 <HAL_RCCEx_PeriphCLKConfig+0x356>
 8003e24:	4ab2      	ldr	r2, [pc, #712]	; (80040f0 <HAL_RCCEx_PeriphCLKConfig+0x614>)
 8003e26:	f8d2 3094 	ldr.w	r3, [r2, #148]	; 0x94
 8003e2a:	f023 0304 	bic.w	r3, r3, #4
 8003e2e:	f8c2 3094 	str.w	r3, [r2, #148]	; 0x94
 8003e32:	6823      	ldr	r3, [r4, #0]
 8003e34:	02da      	lsls	r2, r3, #11
 8003e36:	d51f      	bpl.n	8003e78 <HAL_RCCEx_PeriphCLKConfig+0x39c>
 8003e38:	f8d4 20a0 	ldr.w	r2, [r4, #160]	; 0xa0
 8003e3c:	f1b2 6f00 	cmp.w	r2, #134217728	; 0x8000000
 8003e40:	f000 8134 	beq.w	80040ac <HAL_RCCEx_PeriphCLKConfig+0x5d0>
 8003e44:	f200 80a7 	bhi.w	8003f96 <HAL_RCCEx_PeriphCLKConfig+0x4ba>
 8003e48:	b14a      	cbz	r2, 8003e5e <HAL_RCCEx_PeriphCLKConfig+0x382>
 8003e4a:	f1b2 6f80 	cmp.w	r2, #67108864	; 0x4000000
 8003e4e:	f040 80a6 	bne.w	8003f9e <HAL_RCCEx_PeriphCLKConfig+0x4c2>
 8003e52:	f104 0008 	add.w	r0, r4, #8
 8003e56:	f7ff fdd3 	bl	8003a00 <RCCEx_PLL2_Config>
 8003e5a:	4606      	mov	r6, r0
 8003e5c:	6823      	ldr	r3, [r4, #0]
 8003e5e:	2e00      	cmp	r6, #0
 8003e60:	f040 80f6 	bne.w	8004050 <HAL_RCCEx_PeriphCLKConfig+0x574>
 8003e64:	49a2      	ldr	r1, [pc, #648]	; (80040f0 <HAL_RCCEx_PeriphCLKConfig+0x614>)
 8003e66:	f8d4 00a0 	ldr.w	r0, [r4, #160]	; 0xa0
 8003e6a:	f8d1 20e0 	ldr.w	r2, [r1, #224]	; 0xe0
 8003e6e:	f022 6240 	bic.w	r2, r2, #201326592	; 0xc000000
 8003e72:	4302      	orrs	r2, r0
 8003e74:	f8c1 20e0 	str.w	r2, [r1, #224]	; 0xe0
 8003e78:	031f      	lsls	r7, r3, #12
 8003e7a:	d50b      	bpl.n	8003e94 <HAL_RCCEx_PeriphCLKConfig+0x3b8>
 8003e7c:	f8d4 2098 	ldr.w	r2, [r4, #152]	; 0x98
 8003e80:	f5b2 5f00 	cmp.w	r2, #8192	; 0x2000
 8003e84:	f000 80c2 	beq.w	800400c <HAL_RCCEx_PeriphCLKConfig+0x530>
 8003e88:	f432 5180 	bics.w	r1, r2, #4096	; 0x1000
 8003e8c:	f000 80be 	beq.w	800400c <HAL_RCCEx_PeriphCLKConfig+0x530>
 8003e90:	2501      	movs	r5, #1
 8003e92:	462e      	mov	r6, r5
 8003e94:	04d8      	lsls	r0, r3, #19
 8003e96:	d509      	bpl.n	8003eac <HAL_RCCEx_PeriphCLKConfig+0x3d0>
 8003e98:	4995      	ldr	r1, [pc, #596]	; (80040f0 <HAL_RCCEx_PeriphCLKConfig+0x614>)
 8003e9a:	f8d4 009c 	ldr.w	r0, [r4, #156]	; 0x9c
 8003e9e:	f8d1 20e4 	ldr.w	r2, [r1, #228]	; 0xe4
 8003ea2:	f422 6200 	bic.w	r2, r2, #2048	; 0x800
 8003ea6:	4302      	orrs	r2, r0
 8003ea8:	f8c1 20e4 	str.w	r2, [r1, #228]	; 0xe4
 8003eac:	0299      	lsls	r1, r3, #10
 8003eae:	d50d      	bpl.n	8003ecc <HAL_RCCEx_PeriphCLKConfig+0x3f0>
 8003eb0:	f8d4 00a4 	ldr.w	r0, [r4, #164]	; 0xa4
 8003eb4:	f5b0 4f80 	cmp.w	r0, #16384	; 0x4000
 8003eb8:	f000 80d6 	beq.w	8004068 <HAL_RCCEx_PeriphCLKConfig+0x58c>
 8003ebc:	498c      	ldr	r1, [pc, #560]	; (80040f0 <HAL_RCCEx_PeriphCLKConfig+0x614>)
 8003ebe:	f8d1 20e4 	ldr.w	r2, [r1, #228]	; 0xe4
 8003ec2:	f422 4280 	bic.w	r2, r2, #16384	; 0x4000
 8003ec6:	4302      	orrs	r2, r0
 8003ec8:	f8c1 20e4 	str.w	r2, [r1, #228]	; 0xe4
 8003ecc:	021a      	lsls	r2, r3, #8
 8003ece:	d509      	bpl.n	8003ee4 <HAL_RCCEx_PeriphCLKConfig+0x408>
 8003ed0:	4987      	ldr	r1, [pc, #540]	; (80040f0 <HAL_RCCEx_PeriphCLKConfig+0x614>)
 8003ed2:	f8d4 00b4 	ldr.w	r0, [r4, #180]	; 0xb4
 8003ed6:	f8d1 20e0 	ldr.w	r2, [r1, #224]	; 0xe0
 8003eda:	f422 1240 	bic.w	r2, r2, #3145728	; 0x300000
 8003ede:	4302      	orrs	r2, r0
 8003ee0:	f8c1 20e0 	str.w	r2, [r1, #224]	; 0xe0
 8003ee4:	01df      	lsls	r7, r3, #7
 8003ee6:	d509      	bpl.n	8003efc <HAL_RCCEx_PeriphCLKConfig+0x420>
 8003ee8:	4981      	ldr	r1, [pc, #516]	; (80040f0 <HAL_RCCEx_PeriphCLKConfig+0x614>)
 8003eea:	f8d4 00b8 	ldr.w	r0, [r4, #184]	; 0xb8
 8003eee:	f8d1 20e0 	ldr.w	r2, [r1, #224]	; 0xe0
 8003ef2:	f422 3240 	bic.w	r2, r2, #196608	; 0x30000
 8003ef6:	4302      	orrs	r2, r0
 8003ef8:	f8c1 20e0 	str.w	r2, [r1, #224]	; 0xe0
 8003efc:	0198      	lsls	r0, r3, #6
 8003efe:	d509      	bpl.n	8003f14 <HAL_RCCEx_PeriphCLKConfig+0x438>
 8003f00:	497b      	ldr	r1, [pc, #492]	; (80040f0 <HAL_RCCEx_PeriphCLKConfig+0x614>)
 8003f02:	f8d4 00bc 	ldr.w	r0, [r4, #188]	; 0xbc
 8003f06:	f8d1 20e8 	ldr.w	r2, [r1, #232]	; 0xe8
 8003f0a:	f022 0218 	bic.w	r2, r2, #24
 8003f0e:	4302      	orrs	r2, r0
 8003f10:	f8c1 20e8 	str.w	r2, [r1, #232]	; 0xe8
 8003f14:	0159      	lsls	r1, r3, #5
 8003f16:	d515      	bpl.n	8003f44 <HAL_RCCEx_PeriphCLKConfig+0x468>
 8003f18:	f8d4 20b0 	ldr.w	r2, [r4, #176]	; 0xb0
 8003f1c:	f5b2 1f00 	cmp.w	r2, #2097152	; 0x200000
 8003f20:	f000 809c 	beq.w	800405c <HAL_RCCEx_PeriphCLKConfig+0x580>
 8003f24:	f5b2 1f40 	cmp.w	r2, #3145728	; 0x300000
 8003f28:	f000 80ca 	beq.w	80040c0 <HAL_RCCEx_PeriphCLKConfig+0x5e4>
 8003f2c:	2e00      	cmp	r6, #0
 8003f2e:	d17b      	bne.n	8004028 <HAL_RCCEx_PeriphCLKConfig+0x54c>
 8003f30:	496f      	ldr	r1, [pc, #444]	; (80040f0 <HAL_RCCEx_PeriphCLKConfig+0x614>)
 8003f32:	f8d4 00b0 	ldr.w	r0, [r4, #176]	; 0xb0
 8003f36:	f8d1 20e4 	ldr.w	r2, [r1, #228]	; 0xe4
 8003f3a:	f422 1240 	bic.w	r2, r2, #3145728	; 0x300000
 8003f3e:	4302      	orrs	r2, r0
 8003f40:	f8c1 20e4 	str.w	r2, [r1, #228]	; 0xe4
 8003f44:	011a      	lsls	r2, r3, #4
 8003f46:	d50b      	bpl.n	8003f60 <HAL_RCCEx_PeriphCLKConfig+0x484>
 8003f48:	f8d4 2084 	ldr.w	r2, [r4, #132]	; 0x84
 8003f4c:	f1b2 7f80 	cmp.w	r2, #16777216	; 0x1000000
 8003f50:	f000 809b 	beq.w	800408a <HAL_RCCEx_PeriphCLKConfig+0x5ae>
 8003f54:	f1b2 7f00 	cmp.w	r2, #33554432	; 0x2000000
 8003f58:	d046      	beq.n	8003fe8 <HAL_RCCEx_PeriphCLKConfig+0x50c>
 8003f5a:	2a00      	cmp	r2, #0
 8003f5c:	d04a      	beq.n	8003ff4 <HAL_RCCEx_PeriphCLKConfig+0x518>
 8003f5e:	2501      	movs	r5, #1
 8003f60:	00db      	lsls	r3, r3, #3
 8003f62:	d509      	bpl.n	8003f78 <HAL_RCCEx_PeriphCLKConfig+0x49c>
 8003f64:	4a62      	ldr	r2, [pc, #392]	; (80040f0 <HAL_RCCEx_PeriphCLKConfig+0x614>)
 8003f66:	f8d4 10ac 	ldr.w	r1, [r4, #172]	; 0xac
 8003f6a:	f8d2 30e8 	ldr.w	r3, [r2, #232]	; 0xe8
 8003f6e:	f423 4300 	bic.w	r3, r3, #32768	; 0x8000
 8003f72:	430b      	orrs	r3, r1
 8003f74:	f8c2 30e8 	str.w	r3, [r2, #232]	; 0xe8
 8003f78:	4628      	mov	r0, r5
 8003f7a:	b002      	add	sp, #8
 8003f7c:	e8bd 87f0 	ldmia.w	sp!, {r4, r5, r6, r7, r8, r9, sl, pc}
 8003f80:	f5b2 3f40 	cmp.w	r2, #196608	; 0x30000
 8003f84:	f43f aee0 	beq.w	8003d48 <HAL_RCCEx_PeriphCLKConfig+0x26c>
 8003f88:	f5b2 2f80 	cmp.w	r2, #262144	; 0x40000
 8003f8c:	f43f aedc 	beq.w	8003d48 <HAL_RCCEx_PeriphCLKConfig+0x26c>
 8003f90:	2501      	movs	r5, #1
 8003f92:	462e      	mov	r6, r5
 8003f94:	e6e5      	b.n	8003d62 <HAL_RCCEx_PeriphCLKConfig+0x286>
 8003f96:	f1b2 6f40 	cmp.w	r2, #201326592	; 0xc000000
 8003f9a:	f43f af60 	beq.w	8003e5e <HAL_RCCEx_PeriphCLKConfig+0x382>
 8003f9e:	2501      	movs	r5, #1
 8003fa0:	462e      	mov	r6, r5
 8003fa2:	e769      	b.n	8003e78 <HAL_RCCEx_PeriphCLKConfig+0x39c>
 8003fa4:	f104 002c 	add.w	r0, r4, #44	; 0x2c
 8003fa8:	f7ff fcbc 	bl	8003924 <RCCEx_PLL3_Config>
 8003fac:	4606      	mov	r6, r0
 8003fae:	6823      	ldr	r3, [r4, #0]
 8003fb0:	2e00      	cmp	r6, #0
 8003fb2:	d14f      	bne.n	8004054 <HAL_RCCEx_PeriphCLKConfig+0x578>
 8003fb4:	494e      	ldr	r1, [pc, #312]	; (80040f0 <HAL_RCCEx_PeriphCLKConfig+0x614>)
 8003fb6:	f8d4 0088 	ldr.w	r0, [r4, #136]	; 0x88
 8003fba:	f8d1 20e4 	ldr.w	r2, [r1, #228]	; 0xe4
 8003fbe:	f022 0207 	bic.w	r2, r2, #7
 8003fc2:	4302      	orrs	r2, r0
 8003fc4:	f8c1 20e4 	str.w	r2, [r1, #228]	; 0xe4
 8003fc8:	e6aa      	b.n	8003d20 <HAL_RCCEx_PeriphCLKConfig+0x244>
 8003fca:	f8d3 2094 	ldr.w	r2, [r3, #148]	; 0x94
 8003fce:	f04f 0901 	mov.w	r9, #1
 8003fd2:	f042 0204 	orr.w	r2, r2, #4
 8003fd6:	f8c3 2094 	str.w	r2, [r3, #148]	; 0x94
 8003fda:	f8d3 3094 	ldr.w	r3, [r3, #148]	; 0x94
 8003fde:	f003 0304 	and.w	r3, r3, #4
 8003fe2:	9301      	str	r3, [sp, #4]
 8003fe4:	9b01      	ldr	r3, [sp, #4]
 8003fe6:	e6c6      	b.n	8003d76 <HAL_RCCEx_PeriphCLKConfig+0x29a>
 8003fe8:	f104 0008 	add.w	r0, r4, #8
 8003fec:	f7ff fd08 	bl	8003a00 <RCCEx_PLL2_Config>
 8003ff0:	4606      	mov	r6, r0
 8003ff2:	6823      	ldr	r3, [r4, #0]
 8003ff4:	bb86      	cbnz	r6, 8004058 <HAL_RCCEx_PeriphCLKConfig+0x57c>
 8003ff6:	493e      	ldr	r1, [pc, #248]	; (80040f0 <HAL_RCCEx_PeriphCLKConfig+0x614>)
 8003ff8:	f8d4 0084 	ldr.w	r0, [r4, #132]	; 0x84
 8003ffc:	f8d1 20e0 	ldr.w	r2, [r1, #224]	; 0xe0
 8004000:	f022 7240 	bic.w	r2, r2, #50331648	; 0x3000000
 8004004:	4302      	orrs	r2, r0
 8004006:	f8c1 20e0 	str.w	r2, [r1, #224]	; 0xe0
 800400a:	e7a9      	b.n	8003f60 <HAL_RCCEx_PeriphCLKConfig+0x484>
 800400c:	2e00      	cmp	r6, #0
 800400e:	d155      	bne.n	80040bc <HAL_RCCEx_PeriphCLKConfig+0x5e0>
 8004010:	4837      	ldr	r0, [pc, #220]	; (80040f0 <HAL_RCCEx_PeriphCLKConfig+0x614>)
 8004012:	f8d0 10e4 	ldr.w	r1, [r0, #228]	; 0xe4
 8004016:	f421 5140 	bic.w	r1, r1, #12288	; 0x3000
 800401a:	430a      	orrs	r2, r1
 800401c:	f8c0 20e4 	str.w	r2, [r0, #228]	; 0xe4
 8004020:	e738      	b.n	8003e94 <HAL_RCCEx_PeriphCLKConfig+0x3b8>
 8004022:	2503      	movs	r5, #3
 8004024:	462e      	mov	r6, r5
 8004026:	e6fa      	b.n	8003e1e <HAL_RCCEx_PeriphCLKConfig+0x342>
 8004028:	4635      	mov	r5, r6
 800402a:	e78b      	b.n	8003f44 <HAL_RCCEx_PeriphCLKConfig+0x468>
 800402c:	f104 0008 	add.w	r0, r4, #8
 8004030:	f7ff fce6 	bl	8003a00 <RCCEx_PLL2_Config>
 8004034:	4605      	mov	r5, r0
 8004036:	2d00      	cmp	r5, #0
 8004038:	f43f adfd 	beq.w	8003c36 <HAL_RCCEx_PeriphCLKConfig+0x15a>
 800403c:	e04f      	b.n	80040de <HAL_RCCEx_PeriphCLKConfig+0x602>
 800403e:	f104 0008 	add.w	r0, r4, #8
 8004042:	f7ff fcdd 	bl	8003a00 <RCCEx_PLL2_Config>
 8004046:	6823      	ldr	r3, [r4, #0]
 8004048:	4606      	mov	r6, r0
 800404a:	e61c      	b.n	8003c86 <HAL_RCCEx_PeriphCLKConfig+0x1aa>
 800404c:	4635      	mov	r5, r6
 800404e:	e688      	b.n	8003d62 <HAL_RCCEx_PeriphCLKConfig+0x286>
 8004050:	4635      	mov	r5, r6
 8004052:	e711      	b.n	8003e78 <HAL_RCCEx_PeriphCLKConfig+0x39c>
 8004054:	4635      	mov	r5, r6
 8004056:	e663      	b.n	8003d20 <HAL_RCCEx_PeriphCLKConfig+0x244>
 8004058:	4635      	mov	r5, r6
 800405a:	e781      	b.n	8003f60 <HAL_RCCEx_PeriphCLKConfig+0x484>
 800405c:	4924      	ldr	r1, [pc, #144]	; (80040f0 <HAL_RCCEx_PeriphCLKConfig+0x614>)
 800405e:	6a8a      	ldr	r2, [r1, #40]	; 0x28
 8004060:	f442 3200 	orr.w	r2, r2, #131072	; 0x20000
 8004064:	628a      	str	r2, [r1, #40]	; 0x28
 8004066:	e761      	b.n	8003f2c <HAL_RCCEx_PeriphCLKConfig+0x450>
 8004068:	4921      	ldr	r1, [pc, #132]	; (80040f0 <HAL_RCCEx_PeriphCLKConfig+0x614>)
 800406a:	6a8a      	ldr	r2, [r1, #40]	; 0x28
 800406c:	f442 3280 	orr.w	r2, r2, #65536	; 0x10000
 8004070:	628a      	str	r2, [r1, #40]	; 0x28
 8004072:	e723      	b.n	8003ebc <HAL_RCCEx_PeriphCLKConfig+0x3e0>
 8004074:	f104 0008 	add.w	r0, r4, #8
 8004078:	f7ff fcc2 	bl	8003a00 <RCCEx_PLL2_Config>
 800407c:	4606      	mov	r6, r0
 800407e:	6823      	ldr	r3, [r4, #0]
 8004080:	2e00      	cmp	r6, #0
 8004082:	f43f ae40 	beq.w	8003d06 <HAL_RCCEx_PeriphCLKConfig+0x22a>
 8004086:	4635      	mov	r5, r6
 8004088:	e629      	b.n	8003cde <HAL_RCCEx_PeriphCLKConfig+0x202>
 800408a:	4919      	ldr	r1, [pc, #100]	; (80040f0 <HAL_RCCEx_PeriphCLKConfig+0x614>)
 800408c:	6a8a      	ldr	r2, [r1, #40]	; 0x28
 800408e:	f442 3200 	orr.w	r2, r2, #131072	; 0x20000
 8004092:	628a      	str	r2, [r1, #40]	; 0x28
 8004094:	2e00      	cmp	r6, #0
 8004096:	d1df      	bne.n	8004058 <HAL_RCCEx_PeriphCLKConfig+0x57c>
 8004098:	e7ad      	b.n	8003ff6 <HAL_RCCEx_PeriphCLKConfig+0x51a>
 800409a:	f104 002c 	add.w	r0, r4, #44	; 0x2c
 800409e:	f7ff fc41 	bl	8003924 <RCCEx_PLL3_Config>
 80040a2:	4606      	mov	r6, r0
 80040a4:	6823      	ldr	r3, [r4, #0]
 80040a6:	2e00      	cmp	r6, #0
 80040a8:	d1d0      	bne.n	800404c <HAL_RCCEx_PeriphCLKConfig+0x570>
 80040aa:	e650      	b.n	8003d4e <HAL_RCCEx_PeriphCLKConfig+0x272>
 80040ac:	4910      	ldr	r1, [pc, #64]	; (80040f0 <HAL_RCCEx_PeriphCLKConfig+0x614>)
 80040ae:	6a8a      	ldr	r2, [r1, #40]	; 0x28
 80040b0:	f442 3200 	orr.w	r2, r2, #131072	; 0x20000
 80040b4:	628a      	str	r2, [r1, #40]	; 0x28
 80040b6:	2e00      	cmp	r6, #0
 80040b8:	d1ca      	bne.n	8004050 <HAL_RCCEx_PeriphCLKConfig+0x574>
 80040ba:	e6d3      	b.n	8003e64 <HAL_RCCEx_PeriphCLKConfig+0x388>
 80040bc:	4635      	mov	r5, r6
 80040be:	e6e9      	b.n	8003e94 <HAL_RCCEx_PeriphCLKConfig+0x3b8>
 80040c0:	f104 0008 	add.w	r0, r4, #8
 80040c4:	f7ff fc9c 	bl	8003a00 <RCCEx_PLL2_Config>
 80040c8:	6823      	ldr	r3, [r4, #0]
 80040ca:	4606      	mov	r6, r0
 80040cc:	e72e      	b.n	8003f2c <HAL_RCCEx_PeriphCLKConfig+0x450>
 80040ce:	4908      	ldr	r1, [pc, #32]	; (80040f0 <HAL_RCCEx_PeriphCLKConfig+0x614>)
 80040d0:	6a8a      	ldr	r2, [r1, #40]	; 0x28
 80040d2:	f442 3280 	orr.w	r2, r2, #65536	; 0x10000
 80040d6:	628a      	str	r2, [r1, #40]	; 0x28
 80040d8:	2e00      	cmp	r6, #0
 80040da:	d1bb      	bne.n	8004054 <HAL_RCCEx_PeriphCLKConfig+0x578>
 80040dc:	e76a      	b.n	8003fb4 <HAL_RCCEx_PeriphCLKConfig+0x4d8>
 80040de:	6823      	ldr	r3, [r4, #0]
 80040e0:	e5bb      	b.n	8003c5a <HAL_RCCEx_PeriphCLKConfig+0x17e>
 80040e2:	4803      	ldr	r0, [pc, #12]	; (80040f0 <HAL_RCCEx_PeriphCLKConfig+0x614>)
 80040e4:	6a81      	ldr	r1, [r0, #40]	; 0x28
 80040e6:	f441 3180 	orr.w	r1, r1, #65536	; 0x10000
 80040ea:	6281      	str	r1, [r0, #40]	; 0x28
 80040ec:	e5ac      	b.n	8003c48 <HAL_RCCEx_PeriphCLKConfig+0x16c>
 80040ee:	bf00      	nop
 80040f0:	46020c00 	.word	0x46020c00
 80040f4:	4909      	ldr	r1, [pc, #36]	; (800411c <HAL_RCCEx_PeriphCLKConfig+0x640>)
 80040f6:	462e      	mov	r6, r5
 80040f8:	6a8a      	ldr	r2, [r1, #40]	; 0x28
 80040fa:	f442 3280 	orr.w	r2, r2, #65536	; 0x10000
 80040fe:	628a      	str	r2, [r1, #40]	; 0x28
 8004100:	e5c1      	b.n	8003c86 <HAL_RCCEx_PeriphCLKConfig+0x1aa>
 8004102:	4635      	mov	r5, r6
 8004104:	e68b      	b.n	8003e1e <HAL_RCCEx_PeriphCLKConfig+0x342>
 8004106:	4613      	mov	r3, r2
 8004108:	e681      	b.n	8003e0e <HAL_RCCEx_PeriphCLKConfig+0x332>
 800410a:	2501      	movs	r5, #1
 800410c:	462e      	mov	r6, r5
 800410e:	e5d3      	b.n	8003cb8 <HAL_RCCEx_PeriphCLKConfig+0x1dc>
 8004110:	2501      	movs	r5, #1
 8004112:	e5a2      	b.n	8003c5a <HAL_RCCEx_PeriphCLKConfig+0x17e>
 8004114:	2501      	movs	r5, #1
 8004116:	462e      	mov	r6, r5
 8004118:	e602      	b.n	8003d20 <HAL_RCCEx_PeriphCLKConfig+0x244>
 800411a:	bf00      	nop
 800411c:	46020c00 	.word	0x46020c00

08004120 <HAL_RCCEx_GetPLL1ClockFreq>:
 8004120:	b510      	push	{r4, lr}
 8004122:	4c51      	ldr	r4, [pc, #324]	; (8004268 <HAL_RCCEx_GetPLL1ClockFreq+0x148>)
 8004124:	6b63      	ldr	r3, [r4, #52]	; 0x34
 8004126:	6aa1      	ldr	r1, [r4, #40]	; 0x28
 8004128:	6aa2      	ldr	r2, [r4, #40]	; 0x28
 800412a:	f001 0c03 	and.w	ip, r1, #3
 800412e:	6aa1      	ldr	r1, [r4, #40]	; 0x28
 8004130:	f3c2 2203 	ubfx	r2, r2, #8, #4
 8004134:	f001 0e10 	and.w	lr, r1, #16
 8004138:	6ba1      	ldr	r1, [r4, #56]	; 0x38
 800413a:	f1bc 0f02 	cmp.w	ip, #2
 800413e:	f3c1 01cc 	ubfx	r1, r1, #3, #13
 8004142:	fb0e f101 	mul.w	r1, lr, r1
 8004146:	ee07 1a90 	vmov	s15, r1
 800414a:	f3c3 0308 	ubfx	r3, r3, #0, #9
 800414e:	eef8 6ae7 	vcvt.f32.s32	s13, s15
 8004152:	f102 0201 	add.w	r2, r2, #1
 8004156:	d06c      	beq.n	8004232 <HAL_RCCEx_GetPLL1ClockFreq+0x112>
 8004158:	f1bc 0f03 	cmp.w	ip, #3
 800415c:	d069      	beq.n	8004232 <HAL_RCCEx_GetPLL1ClockFreq+0x112>
 800415e:	ee07 3a90 	vmov	s15, r3
 8004162:	68a1      	ldr	r1, [r4, #8]
 8004164:	4b41      	ldr	r3, [pc, #260]	; (800426c <HAL_RCCEx_GetPLL1ClockFreq+0x14c>)
 8004166:	0209      	lsls	r1, r1, #8
 8004168:	bf4b      	itete	mi
 800416a:	68a1      	ldrmi	r1, [r4, #8]
 800416c:	f8d4 10f4 	ldrpl.w	r1, [r4, #244]	; 0xf4
 8004170:	0f09      	lsrmi	r1, r1, #28
 8004172:	f3c1 3103 	ubfxpl	r1, r1, #12, #4
 8004176:	eb03 0381 	add.w	r3, r3, r1, lsl #2
 800417a:	eef8 7ae7 	vcvt.f32.s32	s15, s15
 800417e:	ed9f 5a3c 	vldr	s10, [pc, #240]	; 8004270 <HAL_RCCEx_GetPLL1ClockFreq+0x150>
 8004182:	ee07 2a10 	vmov	s14, r2
 8004186:	ed93 6a00 	vldr	s12, [r3]
 800418a:	eee6 7a85 	vfma.f32	s15, s13, s10
 800418e:	eeb8 7ac7 	vcvt.f32.s32	s14, s14
 8004192:	eef7 5a00 	vmov.f32	s11, #112	; 0x3f800000  1.0
 8004196:	eeb8 6a46 	vcvt.f32.u32	s12, s12
 800419a:	ee77 7aa5 	vadd.f32	s15, s15, s11
 800419e:	eec6 6a07 	vdiv.f32	s13, s12, s14
 80041a2:	ee67 7aa6 	vmul.f32	s15, s15, s13
 80041a6:	4a30      	ldr	r2, [pc, #192]	; (8004268 <HAL_RCCEx_GetPLL1ClockFreq+0x148>)
 80041a8:	6a93      	ldr	r3, [r2, #40]	; 0x28
 80041aa:	f413 3380 	ands.w	r3, r3, #65536	; 0x10000
 80041ae:	d010      	beq.n	80041d2 <HAL_RCCEx_GetPLL1ClockFreq+0xb2>
 80041b0:	6b53      	ldr	r3, [r2, #52]	; 0x34
 80041b2:	eeb7 7a00 	vmov.f32	s14, #112	; 0x3f800000  1.0
 80041b6:	f3c3 2346 	ubfx	r3, r3, #9, #7
 80041ba:	ee06 3a90 	vmov	s13, r3
 80041be:	eef8 6ae6 	vcvt.f32.s32	s13, s13
 80041c2:	ee76 6a87 	vadd.f32	s13, s13, s14
 80041c6:	ee87 7aa6 	vdiv.f32	s14, s15, s13
 80041ca:	eebc 7ac7 	vcvt.u32.f32	s14, s14
 80041ce:	ee17 3a10 	vmov	r3, s14
 80041d2:	4a25      	ldr	r2, [pc, #148]	; (8004268 <HAL_RCCEx_GetPLL1ClockFreq+0x148>)
 80041d4:	6003      	str	r3, [r0, #0]
 80041d6:	6a93      	ldr	r3, [r2, #40]	; 0x28
 80041d8:	f413 3300 	ands.w	r3, r3, #131072	; 0x20000
 80041dc:	d010      	beq.n	8004200 <HAL_RCCEx_GetPLL1ClockFreq+0xe0>
 80041de:	6b53      	ldr	r3, [r2, #52]	; 0x34
 80041e0:	eeb7 7a00 	vmov.f32	s14, #112	; 0x3f800000  1.0
 80041e4:	f3c3 4306 	ubfx	r3, r3, #16, #7
 80041e8:	ee06 3a90 	vmov	s13, r3
 80041ec:	eef8 6ae6 	vcvt.f32.s32	s13, s13
 80041f0:	ee76 6a87 	vadd.f32	s13, s13, s14
 80041f4:	ee87 7aa6 	vdiv.f32	s14, s15, s13
 80041f8:	eebc 7ac7 	vcvt.u32.f32	s14, s14
 80041fc:	ee17 3a10 	vmov	r3, s14
 8004200:	4a19      	ldr	r2, [pc, #100]	; (8004268 <HAL_RCCEx_GetPLL1ClockFreq+0x148>)
 8004202:	6043      	str	r3, [r0, #4]
 8004204:	6a93      	ldr	r3, [r2, #40]	; 0x28
 8004206:	f413 2380 	ands.w	r3, r3, #262144	; 0x40000
 800420a:	d010      	beq.n	800422e <HAL_RCCEx_GetPLL1ClockFreq+0x10e>
 800420c:	6b53      	ldr	r3, [r2, #52]	; 0x34
 800420e:	eeb7 7a00 	vmov.f32	s14, #112	; 0x3f800000  1.0
 8004212:	f3c3 6306 	ubfx	r3, r3, #24, #7
 8004216:	ee06 3a90 	vmov	s13, r3
 800421a:	eef8 6ae6 	vcvt.f32.s32	s13, s13
 800421e:	ee76 6a87 	vadd.f32	s13, s13, s14
 8004222:	ee87 7aa6 	vdiv.f32	s14, s15, s13
 8004226:	eefc 7ac7 	vcvt.u32.f32	s15, s14
 800422a:	ee17 3a90 	vmov	r3, s15
 800422e:	6083      	str	r3, [r0, #8]
 8004230:	bd10      	pop	{r4, pc}
 8004232:	6b63      	ldr	r3, [r4, #52]	; 0x34
 8004234:	eddf 7a0e 	vldr	s15, [pc, #56]	; 8004270 <HAL_RCCEx_GetPLL1ClockFreq+0x150>
 8004238:	f3c3 0308 	ubfx	r3, r3, #0, #9
 800423c:	ee06 3a10 	vmov	s12, r3
 8004240:	ee07 2a10 	vmov	s14, r2
 8004244:	eeb8 6ac6 	vcvt.f32.s32	s12, s12
 8004248:	eeb8 7ac7 	vcvt.f32.s32	s14, s14
 800424c:	eea6 6aa7 	vfma.f32	s12, s13, s15
 8004250:	ed9f 5a08 	vldr	s10, [pc, #32]	; 8004274 <HAL_RCCEx_GetPLL1ClockFreq+0x154>
 8004254:	eef7 5a00 	vmov.f32	s11, #112	; 0x3f800000  1.0
 8004258:	eec5 7a07 	vdiv.f32	s15, s10, s14
 800425c:	ee36 7a25 	vadd.f32	s14, s12, s11
 8004260:	ee67 7a87 	vmul.f32	s15, s15, s14
 8004264:	e79f      	b.n	80041a6 <HAL_RCCEx_GetPLL1ClockFreq+0x86>
 8004266:	bf00      	nop
 8004268:	46020c00 	.word	0x46020c00
 800426c:	0800610c 	.word	0x0800610c
 8004270:	39000000 	.word	0x39000000
 8004274:	4b742400 	.word	0x4b742400

08004278 <HAL_RCCEx_GetPLL2ClockFreq>:
 8004278:	b510      	push	{r4, lr}
 800427a:	4c51      	ldr	r4, [pc, #324]	; (80043c0 <HAL_RCCEx_GetPLL2ClockFreq+0x148>)
 800427c:	6be3      	ldr	r3, [r4, #60]	; 0x3c
 800427e:	6ae1      	ldr	r1, [r4, #44]	; 0x2c
 8004280:	6ae2      	ldr	r2, [r4, #44]	; 0x2c
 8004282:	f001 0c03 	and.w	ip, r1, #3
 8004286:	6ae1      	ldr	r1, [r4, #44]	; 0x2c
 8004288:	f3c2 2203 	ubfx	r2, r2, #8, #4
 800428c:	f001 0e10 	and.w	lr, r1, #16
 8004290:	6c21      	ldr	r1, [r4, #64]	; 0x40
 8004292:	f1bc 0f02 	cmp.w	ip, #2
 8004296:	f3c1 01cc 	ubfx	r1, r1, #3, #13
 800429a:	fb0e f101 	mul.w	r1, lr, r1
 800429e:	ee07 1a90 	vmov	s15, r1
 80042a2:	f3c3 0308 	ubfx	r3, r3, #0, #9
 80042a6:	eef8 6ae7 	vcvt.f32.s32	s13, s15
 80042aa:	f102 0201 	add.w	r2, r2, #1
 80042ae:	d06c      	beq.n	800438a <HAL_RCCEx_GetPLL2ClockFreq+0x112>
 80042b0:	f1bc 0f03 	cmp.w	ip, #3
 80042b4:	d069      	beq.n	800438a <HAL_RCCEx_GetPLL2ClockFreq+0x112>
 80042b6:	ee07 3a90 	vmov	s15, r3
 80042ba:	68a1      	ldr	r1, [r4, #8]
 80042bc:	4b41      	ldr	r3, [pc, #260]	; (80043c4 <HAL_RCCEx_GetPLL2ClockFreq+0x14c>)
 80042be:	0209      	lsls	r1, r1, #8
 80042c0:	bf4b      	itete	mi
 80042c2:	68a1      	ldrmi	r1, [r4, #8]
 80042c4:	f8d4 10f4 	ldrpl.w	r1, [r4, #244]	; 0xf4
 80042c8:	0f09      	lsrmi	r1, r1, #28
 80042ca:	f3c1 3103 	ubfxpl	r1, r1, #12, #4
 80042ce:	eb03 0381 	add.w	r3, r3, r1, lsl #2
 80042d2:	eef8 7ae7 	vcvt.f32.s32	s15, s15
 80042d6:	ed9f 5a3c 	vldr	s10, [pc, #240]	; 80043c8 <HAL_RCCEx_GetPLL2ClockFreq+0x150>
 80042da:	ee07 2a10 	vmov	s14, r2
 80042de:	ed93 6a00 	vldr	s12, [r3]
 80042e2:	eee6 7a85 	vfma.f32	s15, s13, s10
 80042e6:	eeb8 7ac7 	vcvt.f32.s32	s14, s14
 80042ea:	eef7 5a00 	vmov.f32	s11, #112	; 0x3f800000  1.0
 80042ee:	eeb8 6a46 	vcvt.f32.u32	s12, s12
 80042f2:	ee77 7aa5 	vadd.f32	s15, s15, s11
 80042f6:	eec6 6a07 	vdiv.f32	s13, s12, s14
 80042fa:	ee67 7aa6 	vmul.f32	s15, s15, s13
 80042fe:	4a30      	ldr	r2, [pc, #192]	; (80043c0 <HAL_RCCEx_GetPLL2ClockFreq+0x148>)
 8004300:	6ad3      	ldr	r3, [r2, #44]	; 0x2c
 8004302:	f413 3380 	ands.w	r3, r3, #65536	; 0x10000
 8004306:	d010      	beq.n	800432a <HAL_RCCEx_GetPLL2ClockFreq+0xb2>
 8004308:	6bd3      	ldr	r3, [r2, #60]	; 0x3c
 800430a:	eeb7 7a00 	vmov.f32	s14, #112	; 0x3f800000  1.0
 800430e:	f3c3 2346 	ubfx	r3, r3, #9, #7
 8004312:	ee06 3a90 	vmov	s13, r3
 8004316:	eef8 6ae6 	vcvt.f32.s32	s13, s13
 800431a:	ee76 6a87 	vadd.f32	s13, s13, s14
 800431e:	ee87 7aa6 	vdiv.f32	s14, s15, s13
 8004322:	eebc 7ac7 	vcvt.u32.f32	s14, s14
 8004326:	ee17 3a10 	vmov	r3, s14
 800432a:	4a25      	ldr	r2, [pc, #148]	; (80043c0 <HAL_RCCEx_GetPLL2ClockFreq+0x148>)
 800432c:	6003      	str	r3, [r0, #0]
 800432e:	6ad3      	ldr	r3, [r2, #44]	; 0x2c
 8004330:	f413 3300 	ands.w	r3, r3, #131072	; 0x20000
 8004334:	d010      	beq.n	8004358 <HAL_RCCEx_GetPLL2ClockFreq+0xe0>
 8004336:	6bd3      	ldr	r3, [r2, #60]	; 0x3c
 8004338:	eeb7 7a00 	vmov.f32	s14, #112	; 0x3f800000  1.0
 800433c:	f3c3 4306 	ubfx	r3, r3, #16, #7
 8004340:	ee06 3a90 	vmov	s13, r3
 8004344:	eef8 6ae6 	vcvt.f32.s32	s13, s13
 8004348:	ee76 6a87 	vadd.f32	s13, s13, s14
 800434c:	ee87 7aa6 	vdiv.f32	s14, s15, s13
 8004350:	eebc 7ac7 	vcvt.u32.f32	s14, s14
 8004354:	ee17 3a10 	vmov	r3, s14
 8004358:	4a19      	ldr	r2, [pc, #100]	; (80043c0 <HAL_RCCEx_GetPLL2ClockFreq+0x148>)
 800435a:	6043      	str	r3, [r0, #4]
 800435c:	6ad3      	ldr	r3, [r2, #44]	; 0x2c
 800435e:	f413 2380 	ands.w	r3, r3, #262144	; 0x40000
 8004362:	d010      	beq.n	8004386 <HAL_RCCEx_GetPLL2ClockFreq+0x10e>
 8004364:	6bd3      	ldr	r3, [r2, #60]	; 0x3c
 8004366:	eeb7 7a00 	vmov.f32	s14, #112	; 0x3f800000  1.0
 800436a:	f3c3 6306 	ubfx	r3, r3, #24, #7
 800436e:	ee06 3a90 	vmov	s13, r3
 8004372:	eef8 6ae6 	vcvt.f32.s32	s13, s13
 8004376:	ee76 6a87 	vadd.f32	s13, s13, s14
 800437a:	ee87 7aa6 	vdiv.f32	s14, s15, s13
 800437e:	eefc 7ac7 	vcvt.u32.f32	s15, s14
 8004382:	ee17 3a90 	vmov	r3, s15
 8004386:	6083      	str	r3, [r0, #8]
 8004388:	bd10      	pop	{r4, pc}
 800438a:	6be3      	ldr	r3, [r4, #60]	; 0x3c
 800438c:	eddf 7a0e 	vldr	s15, [pc, #56]	; 80043c8 <HAL_RCCEx_GetPLL2ClockFreq+0x150>
 8004390:	f3c3 0308 	ubfx	r3, r3, #0, #9
 8004394:	ee06 3a10 	vmov	s12, r3
 8004398:	ee07 2a10 	vmov	s14, r2
 800439c:	eeb8 6ac6 	vcvt.f32.s32	s12, s12
 80043a0:	eeb8 7ac7 	vcvt.f32.s32	s14, s14
 80043a4:	eea6 6aa7 	vfma.f32	s12, s13, s15
 80043a8:	ed9f 5a08 	vldr	s10, [pc, #32]	; 80043cc <HAL_RCCEx_GetPLL2ClockFreq+0x154>
 80043ac:	eef7 5a00 	vmov.f32	s11, #112	; 0x3f800000  1.0
 80043b0:	eec5 7a07 	vdiv.f32	s15, s10, s14
 80043b4:	ee36 7a25 	vadd.f32	s14, s12, s11
 80043b8:	ee67 7a87 	vmul.f32	s15, s15, s14
 80043bc:	e79f      	b.n	80042fe <HAL_RCCEx_GetPLL2ClockFreq+0x86>
 80043be:	bf00      	nop
 80043c0:	46020c00 	.word	0x46020c00
 80043c4:	0800610c 	.word	0x0800610c
 80043c8:	39000000 	.word	0x39000000
 80043cc:	4b742400 	.word	0x4b742400

080043d0 <HAL_RCCEx_GetPLL3ClockFreq>:
 80043d0:	b510      	push	{r4, lr}
 80043d2:	4c51      	ldr	r4, [pc, #324]	; (8004518 <HAL_RCCEx_GetPLL3ClockFreq+0x148>)
 80043d4:	6c63      	ldr	r3, [r4, #68]	; 0x44
 80043d6:	6b21      	ldr	r1, [r4, #48]	; 0x30
 80043d8:	6b22      	ldr	r2, [r4, #48]	; 0x30
 80043da:	f001 0c03 	and.w	ip, r1, #3
 80043de:	6b21      	ldr	r1, [r4, #48]	; 0x30
 80043e0:	f3c2 2203 	ubfx	r2, r2, #8, #4
 80043e4:	f001 0e10 	and.w	lr, r1, #16
 80043e8:	6ca1      	ldr	r1, [r4, #72]	; 0x48
 80043ea:	f1bc 0f02 	cmp.w	ip, #2
 80043ee:	f3c1 01cc 	ubfx	r1, r1, #3, #13
 80043f2:	fb0e f101 	mul.w	r1, lr, r1
 80043f6:	ee07 1a90 	vmov	s15, r1
 80043fa:	f3c3 0308 	ubfx	r3, r3, #0, #9
 80043fe:	eef8 6ae7 	vcvt.f32.s32	s13, s15
 8004402:	f102 0201 	add.w	r2, r2, #1
 8004406:	d06c      	beq.n	80044e2 <HAL_RCCEx_GetPLL3ClockFreq+0x112>
 8004408:	f1bc 0f03 	cmp.w	ip, #3
 800440c:	d069      	beq.n	80044e2 <HAL_RCCEx_GetPLL3ClockFreq+0x112>
 800440e:	ee07 3a90 	vmov	s15, r3
 8004412:	68a1      	ldr	r1, [r4, #8]
 8004414:	4b41      	ldr	r3, [pc, #260]	; (800451c <HAL_RCCEx_GetPLL3ClockFreq+0x14c>)
 8004416:	0209      	lsls	r1, r1, #8
 8004418:	bf4b      	itete	mi
 800441a:	68a1      	ldrmi	r1, [r4, #8]
 800441c:	f8d4 10f4 	ldrpl.w	r1, [r4, #244]	; 0xf4
 8004420:	0f09      	lsrmi	r1, r1, #28
 8004422:	f3c1 3103 	ubfxpl	r1, r1, #12, #4
 8004426:	eb03 0381 	add.w	r3, r3, r1, lsl #2
 800442a:	eef8 7ae7 	vcvt.f32.s32	s15, s15
 800442e:	ed9f 5a3c 	vldr	s10, [pc, #240]	; 8004520 <HAL_RCCEx_GetPLL3ClockFreq+0x150>
 8004432:	ee07 2a10 	vmov	s14, r2
 8004436:	ed93 6a00 	vldr	s12, [r3]
 800443a:	eee6 7a85 	vfma.f32	s15, s13, s10
 800443e:	eeb8 7ac7 	vcvt.f32.s32	s14, s14
 8004442:	eef7 5a00 	vmov.f32	s11, #112	; 0x3f800000  1.0
 8004446:	eeb8 6a46 	vcvt.f32.u32	s12, s12
 800444a:	ee77 7aa5 	vadd.f32	s15, s15, s11
 800444e:	eec6 6a07 	vdiv.f32	s13, s12, s14
 8004452:	ee67 7aa6 	vmul.f32	s15, s15, s13
 8004456:	4a30      	ldr	r2, [pc, #192]	; (8004518 <HAL_RCCEx_GetPLL3ClockFreq+0x148>)
 8004458:	6b13      	ldr	r3, [r2, #48]	; 0x30
 800445a:	f413 3380 	ands.w	r3, r3, #65536	; 0x10000
 800445e:	d010      	beq.n	8004482 <HAL_RCCEx_GetPLL3ClockFreq+0xb2>
 8004460:	6c53      	ldr	r3, [r2, #68]	; 0x44
 8004462:	eeb7 7a00 	vmov.f32	s14, #112	; 0x3f800000  1.0
 8004466:	f3c3 2346 	ubfx	r3, r3, #9, #7
 800446a:	ee06 3a90 	vmov	s13, r3
 800446e:	eef8 6ae6 	vcvt.f32.s32	s13, s13
 8004472:	ee76 6a87 	vadd.f32	s13, s13, s14
 8004476:	ee87 7aa6 	vdiv.f32	s14, s15, s13
 800447a:	eebc 7ac7 	vcvt.u32.f32	s14, s14
 800447e:	ee17 3a10 	vmov	r3, s14
 8004482:	4a25      	ldr	r2, [pc, #148]	; (8004518 <HAL_RCCEx_GetPLL3ClockFreq+0x148>)
 8004484:	6003      	str	r3, [r0, #0]
 8004486:	6b13      	ldr	r3, [r2, #48]	; 0x30
 8004488:	f413 3300 	ands.w	r3, r3, #131072	; 0x20000
 800448c:	d010      	beq.n	80044b0 <HAL_RCCEx_GetPLL3ClockFreq+0xe0>
 800448e:	6c53      	ldr	r3, [r2, #68]	; 0x44
 8004490:	eeb7 7a00 	vmov.f32	s14, #112	; 0x3f800000  1.0
 8004494:	f3c3 4306 	ubfx	r3, r3, #16, #7
 8004498:	ee06 3a90 	vmov	s13, r3
 800449c:	eef8 6ae6 	vcvt.f32.s32	s13, s13
 80044a0:	ee76 6a87 	vadd.f32	s13, s13, s14
 80044a4:	ee87 7aa6 	vdiv.f32	s14, s15, s13
 80044a8:	eebc 7ac7 	vcvt.u32.f32	s14, s14
 80044ac:	ee17 3a10 	vmov	r3, s14
 80044b0:	4a19      	ldr	r2, [pc, #100]	; (8004518 <HAL_RCCEx_GetPLL3ClockFreq+0x148>)
 80044b2:	6043      	str	r3, [r0, #4]
 80044b4:	6b13      	ldr	r3, [r2, #48]	; 0x30
 80044b6:	f413 2380 	ands.w	r3, r3, #262144	; 0x40000
 80044ba:	d010      	beq.n	80044de <HAL_RCCEx_GetPLL3ClockFreq+0x10e>
 80044bc:	6c53      	ldr	r3, [r2, #68]	; 0x44
 80044be:	eeb7 7a00 	vmov.f32	s14, #112	; 0x3f800000  1.0
 80044c2:	f3c3 6306 	ubfx	r3, r3, #24, #7
 80044c6:	ee06 3a90 	vmov	s13, r3
 80044ca:	eef8 6ae6 	vcvt.f32.s32	s13, s13
 80044ce:	ee76 6a87 	vadd.f32	s13, s13, s14
 80044d2:	ee87 7aa6 	vdiv.f32	s14, s15, s13
 80044d6:	eefc 7ac7 	vcvt.u32.f32	s15, s14
 80044da:	ee17 3a90 	vmov	r3, s15
 80044de:	6083      	str	r3, [r0, #8]
 80044e0:	bd10      	pop	{r4, pc}
 80044e2:	6c63      	ldr	r3, [r4, #68]	; 0x44
 80044e4:	eddf 7a0e 	vldr	s15, [pc, #56]	; 8004520 <HAL_RCCEx_GetPLL3ClockFreq+0x150>
 80044e8:	f3c3 0308 	ubfx	r3, r3, #0, #9
 80044ec:	ee06 3a10 	vmov	s12, r3
 80044f0:	ee07 2a10 	vmov	s14, r2
 80044f4:	eeb8 6ac6 	vcvt.f32.s32	s12, s12
 80044f8:	eeb8 7ac7 	vcvt.f32.s32	s14, s14
 80044fc:	eea6 6aa7 	vfma.f32	s12, s13, s15
 8004500:	ed9f 5a08 	vldr	s10, [pc, #32]	; 8004524 <HAL_RCCEx_GetPLL3ClockFreq+0x154>
 8004504:	eef7 5a00 	vmov.f32	s11, #112	; 0x3f800000  1.0
 8004508:	eec5 7a07 	vdiv.f32	s15, s10, s14
 800450c:	ee36 7a25 	vadd.f32	s14, s12, s11
 8004510:	ee67 7a87 	vmul.f32	s15, s15, s14
 8004514:	e79f      	b.n	8004456 <HAL_RCCEx_GetPLL3ClockFreq+0x86>
 8004516:	bf00      	nop
 8004518:	46020c00 	.word	0x46020c00
 800451c:	0800610c 	.word	0x0800610c
 8004520:	39000000 	.word	0x39000000
 8004524:	4b742400 	.word	0x4b742400

08004528 <HAL_RCCEx_GetPeriphCLKFreq>:
 8004528:	f5a0 2380 	sub.w	r3, r0, #262144	; 0x40000
 800452c:	430b      	orrs	r3, r1
 800452e:	f000 80ab 	beq.w	8004688 <HAL_RCCEx_GetPeriphCLKFreq+0x160>
 8004532:	b500      	push	{lr}
 8004534:	f5a0 5300 	sub.w	r3, r0, #8192	; 0x2000
 8004538:	430b      	orrs	r3, r1
 800453a:	b085      	sub	sp, #20
 800453c:	f000 8084 	beq.w	8004648 <HAL_RCCEx_GetPeriphCLKFreq+0x120>
 8004540:	f5a0 4380 	sub.w	r3, r0, #16384	; 0x4000
 8004544:	430b      	orrs	r3, r1
 8004546:	f000 80fb 	beq.w	8004740 <HAL_RCCEx_GetPeriphCLKFreq+0x218>
 800454a:	f5a0 5380 	sub.w	r3, r0, #4096	; 0x1000
 800454e:	430b      	orrs	r3, r1
 8004550:	f000 80c4 	beq.w	80046dc <HAL_RCCEx_GetPeriphCLKFreq+0x1b4>
 8004554:	f5a0 1380 	sub.w	r3, r0, #1048576	; 0x100000
 8004558:	430b      	orrs	r3, r1
 800455a:	f000 8110 	beq.w	800477e <HAL_RCCEx_GetPeriphCLKFreq+0x256>
 800455e:	f5a0 1300 	sub.w	r3, r0, #2097152	; 0x200000
 8004562:	430b      	orrs	r3, r1
 8004564:	f000 8168 	beq.w	8004838 <HAL_RCCEx_GetPeriphCLKFreq+0x310>
 8004568:	1e43      	subs	r3, r0, #1
 800456a:	430b      	orrs	r3, r1
 800456c:	f000 818d 	beq.w	800488a <HAL_RCCEx_GetPeriphCLKFreq+0x362>
 8004570:	1e83      	subs	r3, r0, #2
 8004572:	430b      	orrs	r3, r1
 8004574:	f000 8143 	beq.w	80047fe <HAL_RCCEx_GetPeriphCLKFreq+0x2d6>
 8004578:	1f03      	subs	r3, r0, #4
 800457a:	430b      	orrs	r3, r1
 800457c:	f000 81bf 	beq.w	80048fe <HAL_RCCEx_GetPeriphCLKFreq+0x3d6>
 8004580:	f1a0 0308 	sub.w	r3, r0, #8
 8004584:	430b      	orrs	r3, r1
 8004586:	f000 81f2 	beq.w	800496e <HAL_RCCEx_GetPeriphCLKFreq+0x446>
 800458a:	f1a0 0310 	sub.w	r3, r0, #16
 800458e:	430b      	orrs	r3, r1
 8004590:	f000 8210 	beq.w	80049b4 <HAL_RCCEx_GetPeriphCLKFreq+0x48c>
 8004594:	f1a0 0320 	sub.w	r3, r0, #32
 8004598:	430b      	orrs	r3, r1
 800459a:	f000 8229 	beq.w	80049f0 <HAL_RCCEx_GetPeriphCLKFreq+0x4c8>
 800459e:	f5a0 4300 	sub.w	r3, r0, #32768	; 0x8000
 80045a2:	430b      	orrs	r3, r1
 80045a4:	f000 8245 	beq.w	8004a32 <HAL_RCCEx_GetPeriphCLKFreq+0x50a>
 80045a8:	f5a0 3380 	sub.w	r3, r0, #65536	; 0x10000
 80045ac:	430b      	orrs	r3, r1
 80045ae:	f000 8266 	beq.w	8004a7e <HAL_RCCEx_GetPeriphCLKFreq+0x556>
 80045b2:	f5a0 3300 	sub.w	r3, r0, #131072	; 0x20000
 80045b6:	430b      	orrs	r3, r1
 80045b8:	f000 80aa 	beq.w	8004710 <HAL_RCCEx_GetPeriphCLKFreq+0x1e8>
 80045bc:	f1a0 0340 	sub.w	r3, r0, #64	; 0x40
 80045c0:	430b      	orrs	r3, r1
 80045c2:	f000 82ac 	beq.w	8004b1e <HAL_RCCEx_GetPeriphCLKFreq+0x5f6>
 80045c6:	f1a0 0380 	sub.w	r3, r0, #128	; 0x80
 80045ca:	430b      	orrs	r3, r1
 80045cc:	f000 82d1 	beq.w	8004b72 <HAL_RCCEx_GetPeriphCLKFreq+0x64a>
 80045d0:	f5a0 7380 	sub.w	r3, r0, #256	; 0x100
 80045d4:	430b      	orrs	r3, r1
 80045d6:	f000 81ae 	beq.w	8004936 <HAL_RCCEx_GetPeriphCLKFreq+0x40e>
 80045da:	f5a0 0380 	sub.w	r3, r0, #4194304	; 0x400000
 80045de:	430b      	orrs	r3, r1
 80045e0:	f000 8324 	beq.w	8004c2c <HAL_RCCEx_GetPeriphCLKFreq+0x704>
 80045e4:	f5a0 6300 	sub.w	r3, r0, #2048	; 0x800
 80045e8:	430b      	orrs	r3, r1
 80045ea:	f000 833e 	beq.w	8004c6a <HAL_RCCEx_GetPeriphCLKFreq+0x742>
 80045ee:	f5a0 7300 	sub.w	r3, r0, #512	; 0x200
 80045f2:	430b      	orrs	r3, r1
 80045f4:	f000 8389 	beq.w	8004d0a <HAL_RCCEx_GetPeriphCLKFreq+0x7e2>
 80045f8:	f5a0 6380 	sub.w	r3, r0, #1024	; 0x400
 80045fc:	430b      	orrs	r3, r1
 80045fe:	f000 835f 	beq.w	8004cc0 <HAL_RCCEx_GetPeriphCLKFreq+0x798>
 8004602:	f100 4378 	add.w	r3, r0, #4160749568	; 0xf8000000
 8004606:	430b      	orrs	r3, r1
 8004608:	f000 83f4 	beq.w	8004df4 <HAL_RCCEx_GetPeriphCLKFreq+0x8cc>
 800460c:	f5a0 0300 	sub.w	r3, r0, #8388608	; 0x800000
 8004610:	430b      	orrs	r3, r1
 8004612:	f000 83da 	beq.w	8004dca <HAL_RCCEx_GetPeriphCLKFreq+0x8a2>
 8004616:	f100 437f 	add.w	r3, r0, #4278190080	; 0xff000000
 800461a:	430b      	orrs	r3, r1
 800461c:	f000 84b6 	beq.w	8004f8c <HAL_RCCEx_GetPeriphCLKFreq+0xa64>
 8004620:	f100 437e 	add.w	r3, r0, #4261412864	; 0xfe000000
 8004624:	430b      	orrs	r3, r1
 8004626:	f000 846f 	beq.w	8004f08 <HAL_RCCEx_GetPeriphCLKFreq+0x9e0>
 800462a:	f100 437c 	add.w	r3, r0, #4227858432	; 0xfc000000
 800462e:	430b      	orrs	r3, r1
 8004630:	f000 8446 	beq.w	8004ec0 <HAL_RCCEx_GetPeriphCLKFreq+0x998>
 8004634:	f100 4070 	add.w	r0, r0, #4026531840	; 0xf0000000
 8004638:	ea50 0301 	orrs.w	r3, r0, r1
 800463c:	f000 8422 	beq.w	8004e84 <HAL_RCCEx_GetPeriphCLKFreq+0x95c>
 8004640:	2000      	movs	r0, #0
 8004642:	b005      	add	sp, #20
 8004644:	f85d fb04 	ldr.w	pc, [sp], #4
 8004648:	4aa4      	ldr	r2, [pc, #656]	; (80048dc <HAL_RCCEx_GetPeriphCLKFreq+0x3b4>)
 800464a:	f8d2 30e4 	ldr.w	r3, [r2, #228]	; 0xe4
 800464e:	f003 03e0 	and.w	r3, r3, #224	; 0xe0
 8004652:	2b40      	cmp	r3, #64	; 0x40
 8004654:	d06f      	beq.n	8004736 <HAL_RCCEx_GetPeriphCLKFreq+0x20e>
 8004656:	d90c      	bls.n	8004672 <HAL_RCCEx_GetPeriphCLKFreq+0x14a>
 8004658:	2b60      	cmp	r3, #96	; 0x60
 800465a:	d051      	beq.n	8004700 <HAL_RCCEx_GetPeriphCLKFreq+0x1d8>
 800465c:	2b80      	cmp	r3, #128	; 0x80
 800465e:	bf18      	it	ne
 8004660:	2000      	movne	r0, #0
 8004662:	d1ee      	bne.n	8004642 <HAL_RCCEx_GetPeriphCLKFreq+0x11a>
 8004664:	6810      	ldr	r0, [r2, #0]
 8004666:	4b9e      	ldr	r3, [pc, #632]	; (80048e0 <HAL_RCCEx_GetPeriphCLKFreq+0x3b8>)
 8004668:	f410 6080 	ands.w	r0, r0, #1024	; 0x400
 800466c:	bf18      	it	ne
 800466e:	4618      	movne	r0, r3
 8004670:	e7e7      	b.n	8004642 <HAL_RCCEx_GetPeriphCLKFreq+0x11a>
 8004672:	2b00      	cmp	r3, #0
 8004674:	d047      	beq.n	8004706 <HAL_RCCEx_GetPeriphCLKFreq+0x1de>
 8004676:	2b20      	cmp	r3, #32
 8004678:	bf18      	it	ne
 800467a:	2000      	movne	r0, #0
 800467c:	d1e1      	bne.n	8004642 <HAL_RCCEx_GetPeriphCLKFreq+0x11a>
 800467e:	a801      	add	r0, sp, #4
 8004680:	f7ff fea6 	bl	80043d0 <HAL_RCCEx_GetPLL3ClockFreq>
 8004684:	9801      	ldr	r0, [sp, #4]
 8004686:	e7dc      	b.n	8004642 <HAL_RCCEx_GetPeriphCLKFreq+0x11a>
 8004688:	4a94      	ldr	r2, [pc, #592]	; (80048dc <HAL_RCCEx_GetPeriphCLKFreq+0x3b4>)
 800468a:	f8d2 30f0 	ldr.w	r3, [r2, #240]	; 0xf0
 800468e:	f8d2 20f0 	ldr.w	r2, [r2, #240]	; 0xf0
 8004692:	f403 7340 	and.w	r3, r3, #768	; 0x300
 8004696:	0792      	lsls	r2, r2, #30
 8004698:	d503      	bpl.n	80046a2 <HAL_RCCEx_GetPeriphCLKFreq+0x17a>
 800469a:	f5b3 7f80 	cmp.w	r3, #256	; 0x100
 800469e:	f000 80a2 	beq.w	80047e6 <HAL_RCCEx_GetPeriphCLKFreq+0x2be>
 80046a2:	4a8e      	ldr	r2, [pc, #568]	; (80048dc <HAL_RCCEx_GetPeriphCLKFreq+0x3b4>)
 80046a4:	f8d2 10f0 	ldr.w	r1, [r2, #240]	; 0xf0
 80046a8:	0109      	lsls	r1, r1, #4
 80046aa:	d50b      	bpl.n	80046c4 <HAL_RCCEx_GetPeriphCLKFreq+0x19c>
 80046ac:	f5b3 7f00 	cmp.w	r3, #512	; 0x200
 80046b0:	d108      	bne.n	80046c4 <HAL_RCCEx_GetPeriphCLKFreq+0x19c>
 80046b2:	f8d2 30f0 	ldr.w	r3, [r2, #240]	; 0xf0
 80046b6:	f013 5f80 	tst.w	r3, #268435456	; 0x10000000
 80046ba:	bf14      	ite	ne
 80046bc:	20fa      	movne	r0, #250	; 0xfa
 80046be:	f44f 40fa 	moveq.w	r0, #32000	; 0x7d00
 80046c2:	4770      	bx	lr
 80046c4:	4a85      	ldr	r2, [pc, #532]	; (80048dc <HAL_RCCEx_GetPeriphCLKFreq+0x3b4>)
 80046c6:	6810      	ldr	r0, [r2, #0]
 80046c8:	f410 3000 	ands.w	r0, r0, #131072	; 0x20000
 80046cc:	d005      	beq.n	80046da <HAL_RCCEx_GetPeriphCLKFreq+0x1b2>
 80046ce:	f5b3 7f40 	cmp.w	r3, #768	; 0x300
 80046d2:	4884      	ldr	r0, [pc, #528]	; (80048e4 <HAL_RCCEx_GetPeriphCLKFreq+0x3bc>)
 80046d4:	bf18      	it	ne
 80046d6:	2000      	movne	r0, #0
 80046d8:	4770      	bx	lr
 80046da:	4770      	bx	lr
 80046dc:	4b7f      	ldr	r3, [pc, #508]	; (80048dc <HAL_RCCEx_GetPeriphCLKFreq+0x3b4>)
 80046de:	f8d3 00e4 	ldr.w	r0, [r3, #228]	; 0xe4
 80046e2:	681a      	ldr	r2, [r3, #0]
 80046e4:	f400 6000 	and.w	r0, r0, #2048	; 0x800
 80046e8:	0552      	lsls	r2, r2, #21
 80046ea:	d573      	bpl.n	80047d4 <HAL_RCCEx_GetPeriphCLKFreq+0x2ac>
 80046ec:	2800      	cmp	r0, #0
 80046ee:	f000 80ee 	beq.w	80048ce <HAL_RCCEx_GetPeriphCLKFreq+0x3a6>
 80046f2:	6818      	ldr	r0, [r3, #0]
 80046f4:	4b7c      	ldr	r3, [pc, #496]	; (80048e8 <HAL_RCCEx_GetPeriphCLKFreq+0x3c0>)
 80046f6:	f410 6080 	ands.w	r0, r0, #1024	; 0x400
 80046fa:	bf18      	it	ne
 80046fc:	4618      	movne	r0, r3
 80046fe:	e7a0      	b.n	8004642 <HAL_RCCEx_GetPeriphCLKFreq+0x11a>
 8004700:	f64b 3080 	movw	r0, #48000	; 0xbb80
 8004704:	e79d      	b.n	8004642 <HAL_RCCEx_GetPeriphCLKFreq+0x11a>
 8004706:	a801      	add	r0, sp, #4
 8004708:	f7ff fdb6 	bl	8004278 <HAL_RCCEx_GetPLL2ClockFreq>
 800470c:	9801      	ldr	r0, [sp, #4]
 800470e:	e798      	b.n	8004642 <HAL_RCCEx_GetPeriphCLKFreq+0x11a>
 8004710:	4a72      	ldr	r2, [pc, #456]	; (80048dc <HAL_RCCEx_GetPeriphCLKFreq+0x3b4>)
 8004712:	f8d2 30e8 	ldr.w	r3, [r2, #232]	; 0xe8
 8004716:	f403 23e0 	and.w	r3, r3, #458752	; 0x70000
 800471a:	f5b3 3f00 	cmp.w	r3, #131072	; 0x20000
 800471e:	f000 81c8 	beq.w	8004ab2 <HAL_RCCEx_GetPeriphCLKFreq+0x58a>
 8004722:	f200 81e5 	bhi.w	8004af0 <HAL_RCCEx_GetPeriphCLKFreq+0x5c8>
 8004726:	2b00      	cmp	r3, #0
 8004728:	f000 81be 	beq.w	8004aa8 <HAL_RCCEx_GetPeriphCLKFreq+0x580>
 800472c:	f5b3 3f80 	cmp.w	r3, #65536	; 0x10000
 8004730:	bf18      	it	ne
 8004732:	2000      	movne	r0, #0
 8004734:	d185      	bne.n	8004642 <HAL_RCCEx_GetPeriphCLKFreq+0x11a>
 8004736:	a801      	add	r0, sp, #4
 8004738:	f7ff fcf2 	bl	8004120 <HAL_RCCEx_GetPLL1ClockFreq>
 800473c:	9801      	ldr	r0, [sp, #4]
 800473e:	e780      	b.n	8004642 <HAL_RCCEx_GetPeriphCLKFreq+0x11a>
 8004740:	4a66      	ldr	r2, [pc, #408]	; (80048dc <HAL_RCCEx_GetPeriphCLKFreq+0x3b4>)
 8004742:	f8d2 30e4 	ldr.w	r3, [r2, #228]	; 0xe4
 8004746:	f403 63e0 	and.w	r3, r3, #1792	; 0x700
 800474a:	f5b3 7f00 	cmp.w	r3, #512	; 0x200
 800474e:	d0f2      	beq.n	8004736 <HAL_RCCEx_GetPeriphCLKFreq+0x20e>
 8004750:	d807      	bhi.n	8004762 <HAL_RCCEx_GetPeriphCLKFreq+0x23a>
 8004752:	2b00      	cmp	r3, #0
 8004754:	d0d7      	beq.n	8004706 <HAL_RCCEx_GetPeriphCLKFreq+0x1de>
 8004756:	f5b3 7f80 	cmp.w	r3, #256	; 0x100
 800475a:	bf18      	it	ne
 800475c:	2000      	movne	r0, #0
 800475e:	d08e      	beq.n	800467e <HAL_RCCEx_GetPeriphCLKFreq+0x156>
 8004760:	e76f      	b.n	8004642 <HAL_RCCEx_GetPeriphCLKFreq+0x11a>
 8004762:	f5b3 7f40 	cmp.w	r3, #768	; 0x300
 8004766:	d032      	beq.n	80047ce <HAL_RCCEx_GetPeriphCLKFreq+0x2a6>
 8004768:	f5b3 6f80 	cmp.w	r3, #1024	; 0x400
 800476c:	f040 835f 	bne.w	8004e2e <HAL_RCCEx_GetPeriphCLKFreq+0x906>
 8004770:	6810      	ldr	r0, [r2, #0]
 8004772:	4b5b      	ldr	r3, [pc, #364]	; (80048e0 <HAL_RCCEx_GetPeriphCLKFreq+0x3b8>)
 8004774:	f410 6080 	ands.w	r0, r0, #1024	; 0x400
 8004778:	bf18      	it	ne
 800477a:	4618      	movne	r0, r3
 800477c:	e761      	b.n	8004642 <HAL_RCCEx_GetPeriphCLKFreq+0x11a>
 800477e:	4a57      	ldr	r2, [pc, #348]	; (80048dc <HAL_RCCEx_GetPeriphCLKFreq+0x3b4>)
 8004780:	f8d2 30e0 	ldr.w	r3, [r2, #224]	; 0xe0
 8004784:	f003 6340 	and.w	r3, r3, #201326592	; 0xc000000
 8004788:	f1b3 6f00 	cmp.w	r3, #134217728	; 0x8000000
 800478c:	f000 809a 	beq.w	80048c4 <HAL_RCCEx_GetPeriphCLKFreq+0x39c>
 8004790:	d80b      	bhi.n	80047aa <HAL_RCCEx_GetPeriphCLKFreq+0x282>
 8004792:	b35b      	cbz	r3, 80047ec <HAL_RCCEx_GetPeriphCLKFreq+0x2c4>
 8004794:	f1b3 6f80 	cmp.w	r3, #67108864	; 0x4000000
 8004798:	bf18      	it	ne
 800479a:	2000      	movne	r0, #0
 800479c:	f47f af51 	bne.w	8004642 <HAL_RCCEx_GetPeriphCLKFreq+0x11a>
 80047a0:	a801      	add	r0, sp, #4
 80047a2:	f7ff fd69 	bl	8004278 <HAL_RCCEx_GetPLL2ClockFreq>
 80047a6:	9802      	ldr	r0, [sp, #8]
 80047a8:	e74b      	b.n	8004642 <HAL_RCCEx_GetPeriphCLKFreq+0x11a>
 80047aa:	f1b3 6f40 	cmp.w	r3, #201326592	; 0xc000000
 80047ae:	d124      	bne.n	80047fa <HAL_RCCEx_GetPeriphCLKFreq+0x2d2>
 80047b0:	6893      	ldr	r3, [r2, #8]
 80047b2:	0218      	lsls	r0, r3, #8
 80047b4:	bf4c      	ite	mi
 80047b6:	6893      	ldrmi	r3, [r2, #8]
 80047b8:	f8d2 30f4 	ldrpl.w	r3, [r2, #244]	; 0xf4
 80047bc:	4a4b      	ldr	r2, [pc, #300]	; (80048ec <HAL_RCCEx_GetPeriphCLKFreq+0x3c4>)
 80047be:	bf4c      	ite	mi
 80047c0:	f3c3 6303 	ubfxmi	r3, r3, #24, #4
 80047c4:	f3c3 2303 	ubfxpl	r3, r3, #8, #4
 80047c8:	f852 0023 	ldr.w	r0, [r2, r3, lsl #2]
 80047cc:	e739      	b.n	8004642 <HAL_RCCEx_GetPeriphCLKFreq+0x11a>
 80047ce:	f64b 3080 	movw	r0, #48000	; 0xbb80
 80047d2:	e736      	b.n	8004642 <HAL_RCCEx_GetPeriphCLKFreq+0x11a>
 80047d4:	681b      	ldr	r3, [r3, #0]
 80047d6:	f413 6380 	ands.w	r3, r3, #1024	; 0x400
 80047da:	d071      	beq.n	80048c0 <HAL_RCCEx_GetPeriphCLKFreq+0x398>
 80047dc:	4b42      	ldr	r3, [pc, #264]	; (80048e8 <HAL_RCCEx_GetPeriphCLKFreq+0x3c0>)
 80047de:	2800      	cmp	r0, #0
 80047e0:	bf18      	it	ne
 80047e2:	4618      	movne	r0, r3
 80047e4:	e72d      	b.n	8004642 <HAL_RCCEx_GetPeriphCLKFreq+0x11a>
 80047e6:	f44f 4000 	mov.w	r0, #32768	; 0x8000
 80047ea:	4770      	bx	lr
 80047ec:	6810      	ldr	r0, [r2, #0]
 80047ee:	4b40      	ldr	r3, [pc, #256]	; (80048f0 <HAL_RCCEx_GetPeriphCLKFreq+0x3c8>)
 80047f0:	f410 5000 	ands.w	r0, r0, #8192	; 0x2000
 80047f4:	bf18      	it	ne
 80047f6:	4618      	movne	r0, r3
 80047f8:	e723      	b.n	8004642 <HAL_RCCEx_GetPeriphCLKFreq+0x11a>
 80047fa:	2000      	movs	r0, #0
 80047fc:	e721      	b.n	8004642 <HAL_RCCEx_GetPeriphCLKFreq+0x11a>
 80047fe:	4b37      	ldr	r3, [pc, #220]	; (80048dc <HAL_RCCEx_GetPeriphCLKFreq+0x3b4>)
 8004800:	f8d3 30e0 	ldr.w	r3, [r3, #224]	; 0xe0
 8004804:	f013 030c 	ands.w	r3, r3, #12
 8004808:	d063      	beq.n	80048d2 <HAL_RCCEx_GetPeriphCLKFreq+0x3aa>
 800480a:	2b04      	cmp	r3, #4
 800480c:	f000 80a5 	beq.w	800495a <HAL_RCCEx_GetPeriphCLKFreq+0x432>
 8004810:	4a32      	ldr	r2, [pc, #200]	; (80048dc <HAL_RCCEx_GetPeriphCLKFreq+0x3b4>)
 8004812:	6812      	ldr	r2, [r2, #0]
 8004814:	0550      	lsls	r0, r2, #21
 8004816:	d502      	bpl.n	800481e <HAL_RCCEx_GetPeriphCLKFreq+0x2f6>
 8004818:	2b08      	cmp	r3, #8
 800481a:	f000 8167 	beq.w	8004aec <HAL_RCCEx_GetPeriphCLKFreq+0x5c4>
 800481e:	4a2f      	ldr	r2, [pc, #188]	; (80048dc <HAL_RCCEx_GetPeriphCLKFreq+0x3b4>)
 8004820:	f8d2 00f0 	ldr.w	r0, [r2, #240]	; 0xf0
 8004824:	f010 0002 	ands.w	r0, r0, #2
 8004828:	f43f af0b 	beq.w	8004642 <HAL_RCCEx_GetPeriphCLKFreq+0x11a>
 800482c:	2b0c      	cmp	r3, #12
 800482e:	bf14      	ite	ne
 8004830:	2000      	movne	r0, #0
 8004832:	f44f 4000 	moveq.w	r0, #32768	; 0x8000
 8004836:	e704      	b.n	8004642 <HAL_RCCEx_GetPeriphCLKFreq+0x11a>
 8004838:	4b28      	ldr	r3, [pc, #160]	; (80048dc <HAL_RCCEx_GetPeriphCLKFreq+0x3b4>)
 800483a:	f8d3 00e4 	ldr.w	r0, [r3, #228]	; 0xe4
 800483e:	f410 4080 	ands.w	r0, r0, #16384	; 0x4000
 8004842:	d157      	bne.n	80048f4 <HAL_RCCEx_GetPeriphCLKFreq+0x3cc>
 8004844:	f8d3 30e0 	ldr.w	r3, [r3, #224]	; 0xe0
 8004848:	f003 6340 	and.w	r3, r3, #201326592	; 0xc000000
 800484c:	f1b3 6f00 	cmp.w	r3, #134217728	; 0x8000000
 8004850:	d038      	beq.n	80048c4 <HAL_RCCEx_GetPeriphCLKFreq+0x39c>
 8004852:	d806      	bhi.n	8004862 <HAL_RCCEx_GetPeriphCLKFreq+0x33a>
 8004854:	2b00      	cmp	r3, #0
 8004856:	f000 80a5 	beq.w	80049a4 <HAL_RCCEx_GetPeriphCLKFreq+0x47c>
 800485a:	f1b3 6f80 	cmp.w	r3, #67108864	; 0x4000000
 800485e:	d09f      	beq.n	80047a0 <HAL_RCCEx_GetPeriphCLKFreq+0x278>
 8004860:	e6ef      	b.n	8004642 <HAL_RCCEx_GetPeriphCLKFreq+0x11a>
 8004862:	f1b3 6f40 	cmp.w	r3, #201326592	; 0xc000000
 8004866:	f47f aeec 	bne.w	8004642 <HAL_RCCEx_GetPeriphCLKFreq+0x11a>
 800486a:	4b1c      	ldr	r3, [pc, #112]	; (80048dc <HAL_RCCEx_GetPeriphCLKFreq+0x3b4>)
 800486c:	689a      	ldr	r2, [r3, #8]
 800486e:	0211      	lsls	r1, r2, #8
 8004870:	bf4c      	ite	mi
 8004872:	689b      	ldrmi	r3, [r3, #8]
 8004874:	f8d3 30f4 	ldrpl.w	r3, [r3, #244]	; 0xf4
 8004878:	4a1c      	ldr	r2, [pc, #112]	; (80048ec <HAL_RCCEx_GetPeriphCLKFreq+0x3c4>)
 800487a:	bf4c      	ite	mi
 800487c:	f3c3 6303 	ubfxmi	r3, r3, #24, #4
 8004880:	f3c3 2303 	ubfxpl	r3, r3, #8, #4
 8004884:	f852 0023 	ldr.w	r0, [r2, r3, lsl #2]
 8004888:	e6db      	b.n	8004642 <HAL_RCCEx_GetPeriphCLKFreq+0x11a>
 800488a:	4a14      	ldr	r2, [pc, #80]	; (80048dc <HAL_RCCEx_GetPeriphCLKFreq+0x3b4>)
 800488c:	f8d2 30e0 	ldr.w	r3, [r2, #224]	; 0xe0
 8004890:	f013 0303 	ands.w	r3, r3, #3
 8004894:	d066      	beq.n	8004964 <HAL_RCCEx_GetPeriphCLKFreq+0x43c>
 8004896:	2b01      	cmp	r3, #1
 8004898:	d05f      	beq.n	800495a <HAL_RCCEx_GetPeriphCLKFreq+0x432>
 800489a:	6812      	ldr	r2, [r2, #0]
 800489c:	0552      	lsls	r2, r2, #21
 800489e:	d502      	bpl.n	80048a6 <HAL_RCCEx_GetPeriphCLKFreq+0x37e>
 80048a0:	2b02      	cmp	r3, #2
 80048a2:	f000 80ea 	beq.w	8004a7a <HAL_RCCEx_GetPeriphCLKFreq+0x552>
 80048a6:	4a0d      	ldr	r2, [pc, #52]	; (80048dc <HAL_RCCEx_GetPeriphCLKFreq+0x3b4>)
 80048a8:	f8d2 00f0 	ldr.w	r0, [r2, #240]	; 0xf0
 80048ac:	f010 0002 	ands.w	r0, r0, #2
 80048b0:	f43f aec7 	beq.w	8004642 <HAL_RCCEx_GetPeriphCLKFreq+0x11a>
 80048b4:	2b03      	cmp	r3, #3
 80048b6:	bf14      	ite	ne
 80048b8:	2000      	movne	r0, #0
 80048ba:	f44f 4000 	moveq.w	r0, #32768	; 0x8000
 80048be:	e6c0      	b.n	8004642 <HAL_RCCEx_GetPeriphCLKFreq+0x11a>
 80048c0:	4618      	mov	r0, r3
 80048c2:	e6be      	b.n	8004642 <HAL_RCCEx_GetPeriphCLKFreq+0x11a>
 80048c4:	a801      	add	r0, sp, #4
 80048c6:	f7ff fc2b 	bl	8004120 <HAL_RCCEx_GetPLL1ClockFreq>
 80048ca:	9802      	ldr	r0, [sp, #8]
 80048cc:	e6b9      	b.n	8004642 <HAL_RCCEx_GetPeriphCLKFreq+0x11a>
 80048ce:	4804      	ldr	r0, [pc, #16]	; (80048e0 <HAL_RCCEx_GetPeriphCLKFreq+0x3b8>)
 80048d0:	e6b7      	b.n	8004642 <HAL_RCCEx_GetPeriphCLKFreq+0x11a>
 80048d2:	b005      	add	sp, #20
 80048d4:	f85d eb04 	ldr.w	lr, [sp], #4
 80048d8:	f7fe be38 	b.w	800354c <HAL_RCC_GetPCLK1Freq>
 80048dc:	46020c00 	.word	0x46020c00
 80048e0:	00f42400 	.word	0x00f42400
 80048e4:	0007a120 	.word	0x0007a120
 80048e8:	007a1200 	.word	0x007a1200
 80048ec:	0800610c 	.word	0x0800610c
 80048f0:	02dc6c00 	.word	0x02dc6c00
 80048f4:	a801      	add	r0, sp, #4
 80048f6:	f7ff fc13 	bl	8004120 <HAL_RCCEx_GetPLL1ClockFreq>
 80048fa:	9801      	ldr	r0, [sp, #4]
 80048fc:	e6a1      	b.n	8004642 <HAL_RCCEx_GetPeriphCLKFreq+0x11a>
 80048fe:	4bac      	ldr	r3, [pc, #688]	; (8004bb0 <HAL_RCCEx_GetPeriphCLKFreq+0x688>)
 8004900:	f8d3 30e0 	ldr.w	r3, [r3, #224]	; 0xe0
 8004904:	f013 0330 	ands.w	r3, r3, #48	; 0x30
 8004908:	d0e3      	beq.n	80048d2 <HAL_RCCEx_GetPeriphCLKFreq+0x3aa>
 800490a:	2b10      	cmp	r3, #16
 800490c:	d025      	beq.n	800495a <HAL_RCCEx_GetPeriphCLKFreq+0x432>
 800490e:	4aa8      	ldr	r2, [pc, #672]	; (8004bb0 <HAL_RCCEx_GetPeriphCLKFreq+0x688>)
 8004910:	6812      	ldr	r2, [r2, #0]
 8004912:	0551      	lsls	r1, r2, #21
 8004914:	d502      	bpl.n	800491c <HAL_RCCEx_GetPeriphCLKFreq+0x3f4>
 8004916:	2b20      	cmp	r3, #32
 8004918:	f000 811f 	beq.w	8004b5a <HAL_RCCEx_GetPeriphCLKFreq+0x632>
 800491c:	4aa4      	ldr	r2, [pc, #656]	; (8004bb0 <HAL_RCCEx_GetPeriphCLKFreq+0x688>)
 800491e:	f8d2 00f0 	ldr.w	r0, [r2, #240]	; 0xf0
 8004922:	f010 0002 	ands.w	r0, r0, #2
 8004926:	f43f ae8c 	beq.w	8004642 <HAL_RCCEx_GetPeriphCLKFreq+0x11a>
 800492a:	2b30      	cmp	r3, #48	; 0x30
 800492c:	bf14      	ite	ne
 800492e:	2000      	movne	r0, #0
 8004930:	f44f 4000 	moveq.w	r0, #32768	; 0x8000
 8004934:	e685      	b.n	8004642 <HAL_RCCEx_GetPeriphCLKFreq+0x11a>
 8004936:	4a9e      	ldr	r2, [pc, #632]	; (8004bb0 <HAL_RCCEx_GetPeriphCLKFreq+0x688>)
 8004938:	f8d2 30e8 	ldr.w	r3, [r2, #232]	; 0xe8
 800493c:	f003 03c0 	and.w	r3, r3, #192	; 0xc0
 8004940:	2b80      	cmp	r3, #128	; 0x80
 8004942:	f000 81b6 	beq.w	8004cb2 <HAL_RCCEx_GetPeriphCLKFreq+0x78a>
 8004946:	f200 815a 	bhi.w	8004bfe <HAL_RCCEx_GetPeriphCLKFreq+0x6d6>
 800494a:	2b00      	cmp	r3, #0
 800494c:	f000 80c9 	beq.w	8004ae2 <HAL_RCCEx_GetPeriphCLKFreq+0x5ba>
 8004950:	2b40      	cmp	r3, #64	; 0x40
 8004952:	bf18      	it	ne
 8004954:	2000      	movne	r0, #0
 8004956:	f47f ae74 	bne.w	8004642 <HAL_RCCEx_GetPeriphCLKFreq+0x11a>
 800495a:	b005      	add	sp, #20
 800495c:	f85d eb04 	ldr.w	lr, [sp], #4
 8004960:	f7fd be6a 	b.w	8002638 <HAL_RCC_GetSysClockFreq>
 8004964:	b005      	add	sp, #20
 8004966:	f85d eb04 	ldr.w	lr, [sp], #4
 800496a:	f7fe be93 	b.w	8003694 <HAL_RCC_GetPCLK2Freq>
 800496e:	4a90      	ldr	r2, [pc, #576]	; (8004bb0 <HAL_RCCEx_GetPeriphCLKFreq+0x688>)
 8004970:	f8d2 30e0 	ldr.w	r3, [r2, #224]	; 0xe0
 8004974:	f013 03c0 	ands.w	r3, r3, #192	; 0xc0
 8004978:	d0ab      	beq.n	80048d2 <HAL_RCCEx_GetPeriphCLKFreq+0x3aa>
 800497a:	2b40      	cmp	r3, #64	; 0x40
 800497c:	d0ed      	beq.n	800495a <HAL_RCCEx_GetPeriphCLKFreq+0x432>
 800497e:	6812      	ldr	r2, [r2, #0]
 8004980:	0552      	lsls	r2, r2, #21
 8004982:	d502      	bpl.n	800498a <HAL_RCCEx_GetPeriphCLKFreq+0x462>
 8004984:	2b80      	cmp	r3, #128	; 0x80
 8004986:	f000 80ea 	beq.w	8004b5e <HAL_RCCEx_GetPeriphCLKFreq+0x636>
 800498a:	4a89      	ldr	r2, [pc, #548]	; (8004bb0 <HAL_RCCEx_GetPeriphCLKFreq+0x688>)
 800498c:	f8d2 00f0 	ldr.w	r0, [r2, #240]	; 0xf0
 8004990:	f010 0002 	ands.w	r0, r0, #2
 8004994:	f43f ae55 	beq.w	8004642 <HAL_RCCEx_GetPeriphCLKFreq+0x11a>
 8004998:	2bc0      	cmp	r3, #192	; 0xc0
 800499a:	bf14      	ite	ne
 800499c:	2000      	movne	r0, #0
 800499e:	f44f 4000 	moveq.w	r0, #32768	; 0x8000
 80049a2:	e64e      	b.n	8004642 <HAL_RCCEx_GetPeriphCLKFreq+0x11a>
 80049a4:	4a82      	ldr	r2, [pc, #520]	; (8004bb0 <HAL_RCCEx_GetPeriphCLKFreq+0x688>)
 80049a6:	4b83      	ldr	r3, [pc, #524]	; (8004bb4 <HAL_RCCEx_GetPeriphCLKFreq+0x68c>)
 80049a8:	6810      	ldr	r0, [r2, #0]
 80049aa:	f410 5000 	ands.w	r0, r0, #8192	; 0x2000
 80049ae:	bf18      	it	ne
 80049b0:	4618      	movne	r0, r3
 80049b2:	e646      	b.n	8004642 <HAL_RCCEx_GetPeriphCLKFreq+0x11a>
 80049b4:	4a7e      	ldr	r2, [pc, #504]	; (8004bb0 <HAL_RCCEx_GetPeriphCLKFreq+0x688>)
 80049b6:	f8d2 30e0 	ldr.w	r3, [r2, #224]	; 0xe0
 80049ba:	f413 7340 	ands.w	r3, r3, #768	; 0x300
 80049be:	d088      	beq.n	80048d2 <HAL_RCCEx_GetPeriphCLKFreq+0x3aa>
 80049c0:	f5b3 7f80 	cmp.w	r3, #256	; 0x100
 80049c4:	d0c9      	beq.n	800495a <HAL_RCCEx_GetPeriphCLKFreq+0x432>
 80049c6:	6812      	ldr	r2, [r2, #0]
 80049c8:	0550      	lsls	r0, r2, #21
 80049ca:	d503      	bpl.n	80049d4 <HAL_RCCEx_GetPeriphCLKFreq+0x4ac>
 80049cc:	f5b3 7f00 	cmp.w	r3, #512	; 0x200
 80049d0:	f000 8113 	beq.w	8004bfa <HAL_RCCEx_GetPeriphCLKFreq+0x6d2>
 80049d4:	4a76      	ldr	r2, [pc, #472]	; (8004bb0 <HAL_RCCEx_GetPeriphCLKFreq+0x688>)
 80049d6:	f8d2 00f0 	ldr.w	r0, [r2, #240]	; 0xf0
 80049da:	f010 0002 	ands.w	r0, r0, #2
 80049de:	f43f ae30 	beq.w	8004642 <HAL_RCCEx_GetPeriphCLKFreq+0x11a>
 80049e2:	f5b3 7f40 	cmp.w	r3, #768	; 0x300
 80049e6:	bf14      	ite	ne
 80049e8:	2000      	movne	r0, #0
 80049ea:	f44f 4000 	moveq.w	r0, #32768	; 0x8000
 80049ee:	e628      	b.n	8004642 <HAL_RCCEx_GetPeriphCLKFreq+0x11a>
 80049f0:	4a6f      	ldr	r2, [pc, #444]	; (8004bb0 <HAL_RCCEx_GetPeriphCLKFreq+0x688>)
 80049f2:	f8d2 30e8 	ldr.w	r3, [r2, #232]	; 0xe8
 80049f6:	f013 0307 	ands.w	r3, r3, #7
 80049fa:	d072      	beq.n	8004ae2 <HAL_RCCEx_GetPeriphCLKFreq+0x5ba>
 80049fc:	2b01      	cmp	r3, #1
 80049fe:	d0ac      	beq.n	800495a <HAL_RCCEx_GetPeriphCLKFreq+0x432>
 8004a00:	6812      	ldr	r2, [r2, #0]
 8004a02:	0551      	lsls	r1, r2, #21
 8004a04:	d502      	bpl.n	8004a0c <HAL_RCCEx_GetPeriphCLKFreq+0x4e4>
 8004a06:	2b02      	cmp	r3, #2
 8004a08:	f000 810e 	beq.w	8004c28 <HAL_RCCEx_GetPeriphCLKFreq+0x700>
 8004a0c:	4a68      	ldr	r2, [pc, #416]	; (8004bb0 <HAL_RCCEx_GetPeriphCLKFreq+0x688>)
 8004a0e:	f8d2 20f0 	ldr.w	r2, [r2, #240]	; 0xf0
 8004a12:	0792      	lsls	r2, r2, #30
 8004a14:	d502      	bpl.n	8004a1c <HAL_RCCEx_GetPeriphCLKFreq+0x4f4>
 8004a16:	2b03      	cmp	r3, #3
 8004a18:	f000 8103 	beq.w	8004c22 <HAL_RCCEx_GetPeriphCLKFreq+0x6fa>
 8004a1c:	4a64      	ldr	r2, [pc, #400]	; (8004bb0 <HAL_RCCEx_GetPeriphCLKFreq+0x688>)
 8004a1e:	6810      	ldr	r0, [r2, #0]
 8004a20:	f010 0020 	ands.w	r0, r0, #32
 8004a24:	f43f ae0d 	beq.w	8004642 <HAL_RCCEx_GetPeriphCLKFreq+0x11a>
 8004a28:	2b04      	cmp	r3, #4
 8004a2a:	f000 80d7 	beq.w	8004bdc <HAL_RCCEx_GetPeriphCLKFreq+0x6b4>
 8004a2e:	2000      	movs	r0, #0
 8004a30:	e607      	b.n	8004642 <HAL_RCCEx_GetPeriphCLKFreq+0x11a>
 8004a32:	4a5f      	ldr	r2, [pc, #380]	; (8004bb0 <HAL_RCCEx_GetPeriphCLKFreq+0x688>)
 8004a34:	f8d2 30e8 	ldr.w	r3, [r2, #232]	; 0xe8
 8004a38:	f403 43e0 	and.w	r3, r3, #28672	; 0x7000
 8004a3c:	f5b3 5f80 	cmp.w	r3, #4096	; 0x1000
 8004a40:	d08b      	beq.n	800495a <HAL_RCCEx_GetPeriphCLKFreq+0x432>
 8004a42:	f5b3 5f00 	cmp.w	r3, #8192	; 0x2000
 8004a46:	f000 808c 	beq.w	8004b62 <HAL_RCCEx_GetPeriphCLKFreq+0x63a>
 8004a4a:	b36b      	cbz	r3, 8004aa8 <HAL_RCCEx_GetPeriphCLKFreq+0x580>
 8004a4c:	f5b3 4fa0 	cmp.w	r3, #20480	; 0x5000
 8004a50:	f000 80b6 	beq.w	8004bc0 <HAL_RCCEx_GetPeriphCLKFreq+0x698>
 8004a54:	6812      	ldr	r2, [r2, #0]
 8004a56:	0391      	lsls	r1, r2, #14
 8004a58:	d503      	bpl.n	8004a62 <HAL_RCCEx_GetPeriphCLKFreq+0x53a>
 8004a5a:	f5b3 5f40 	cmp.w	r3, #12288	; 0x3000
 8004a5e:	f000 8169 	beq.w	8004d34 <HAL_RCCEx_GetPeriphCLKFreq+0x80c>
 8004a62:	4a53      	ldr	r2, [pc, #332]	; (8004bb0 <HAL_RCCEx_GetPeriphCLKFreq+0x688>)
 8004a64:	6810      	ldr	r0, [r2, #0]
 8004a66:	f410 6080 	ands.w	r0, r0, #1024	; 0x400
 8004a6a:	f43f adea 	beq.w	8004642 <HAL_RCCEx_GetPeriphCLKFreq+0x11a>
 8004a6e:	f5b3 4f80 	cmp.w	r3, #16384	; 0x4000
 8004a72:	4851      	ldr	r0, [pc, #324]	; (8004bb8 <HAL_RCCEx_GetPeriphCLKFreq+0x690>)
 8004a74:	bf18      	it	ne
 8004a76:	2000      	movne	r0, #0
 8004a78:	e5e3      	b.n	8004642 <HAL_RCCEx_GetPeriphCLKFreq+0x11a>
 8004a7a:	484f      	ldr	r0, [pc, #316]	; (8004bb8 <HAL_RCCEx_GetPeriphCLKFreq+0x690>)
 8004a7c:	e5e1      	b.n	8004642 <HAL_RCCEx_GetPeriphCLKFreq+0x11a>
 8004a7e:	4b4c      	ldr	r3, [pc, #304]	; (8004bb0 <HAL_RCCEx_GetPeriphCLKFreq+0x688>)
 8004a80:	f8d3 30e4 	ldr.w	r3, [r3, #228]	; 0xe4
 8004a84:	f003 0307 	and.w	r3, r3, #7
 8004a88:	2b04      	cmp	r3, #4
 8004a8a:	f200 831e 	bhi.w	80050ca <HAL_RCCEx_GetPeriphCLKFreq+0xba2>
 8004a8e:	a201      	add	r2, pc, #4	; (adr r2, 8004a94 <HAL_RCCEx_GetPeriphCLKFreq+0x56c>)
 8004a90:	f852 f023 	ldr.w	pc, [r2, r3, lsl #2]
 8004a94:	08004aa9 	.word	0x08004aa9
 8004a98:	08004737 	.word	0x08004737
 8004a9c:	08004ab3 	.word	0x08004ab3
 8004aa0:	08004add 	.word	0x08004add
 8004aa4:	08004abd 	.word	0x08004abd
 8004aa8:	b005      	add	sp, #20
 8004aaa:	f85d eb04 	ldr.w	lr, [sp], #4
 8004aae:	f7fe bcaf 	b.w	8003410 <HAL_RCC_GetHCLKFreq>
 8004ab2:	a801      	add	r0, sp, #4
 8004ab4:	f7ff fc8c 	bl	80043d0 <HAL_RCCEx_GetPLL3ClockFreq>
 8004ab8:	9802      	ldr	r0, [sp, #8]
 8004aba:	e5c2      	b.n	8004642 <HAL_RCCEx_GetPeriphCLKFreq+0x11a>
 8004abc:	4b3c      	ldr	r3, [pc, #240]	; (8004bb0 <HAL_RCCEx_GetPeriphCLKFreq+0x688>)
 8004abe:	689a      	ldr	r2, [r3, #8]
 8004ac0:	0212      	lsls	r2, r2, #8
 8004ac2:	bf4c      	ite	mi
 8004ac4:	689b      	ldrmi	r3, [r3, #8]
 8004ac6:	f8d3 30f4 	ldrpl.w	r3, [r3, #244]	; 0xf4
 8004aca:	4a3c      	ldr	r2, [pc, #240]	; (8004bbc <HAL_RCCEx_GetPeriphCLKFreq+0x694>)
 8004acc:	bf4c      	ite	mi
 8004ace:	f3c3 6303 	ubfxmi	r3, r3, #24, #4
 8004ad2:	f3c3 2303 	ubfxpl	r3, r3, #8, #4
 8004ad6:	f852 0023 	ldr.w	r0, [r2, r3, lsl #2]
 8004ada:	e5b2      	b.n	8004642 <HAL_RCCEx_GetPeriphCLKFreq+0x11a>
 8004adc:	f64b 3080 	movw	r0, #48000	; 0xbb80
 8004ae0:	e5af      	b.n	8004642 <HAL_RCCEx_GetPeriphCLKFreq+0x11a>
 8004ae2:	b005      	add	sp, #20
 8004ae4:	f85d eb04 	ldr.w	lr, [sp], #4
 8004ae8:	f7fe be78 	b.w	80037dc <HAL_RCC_GetPCLK3Freq>
 8004aec:	4832      	ldr	r0, [pc, #200]	; (8004bb8 <HAL_RCCEx_GetPeriphCLKFreq+0x690>)
 8004aee:	e5a8      	b.n	8004642 <HAL_RCCEx_GetPeriphCLKFreq+0x11a>
 8004af0:	f5b3 3f40 	cmp.w	r3, #196608	; 0x30000
 8004af4:	d03a      	beq.n	8004b6c <HAL_RCCEx_GetPeriphCLKFreq+0x644>
 8004af6:	f5b3 2f80 	cmp.w	r3, #262144	; 0x40000
 8004afa:	f040 82a8 	bne.w	800504e <HAL_RCCEx_GetPeriphCLKFreq+0xb26>
 8004afe:	6893      	ldr	r3, [r2, #8]
 8004b00:	4a2e      	ldr	r2, [pc, #184]	; (8004bbc <HAL_RCCEx_GetPeriphCLKFreq+0x694>)
 8004b02:	f413 0f00 	tst.w	r3, #8388608	; 0x800000
 8004b06:	4b2a      	ldr	r3, [pc, #168]	; (8004bb0 <HAL_RCCEx_GetPeriphCLKFreq+0x688>)
 8004b08:	bf15      	itete	ne
 8004b0a:	689b      	ldrne	r3, [r3, #8]
 8004b0c:	f8d3 30f4 	ldreq.w	r3, [r3, #244]	; 0xf4
 8004b10:	f3c3 6303 	ubfxne	r3, r3, #24, #4
 8004b14:	f3c3 2303 	ubfxeq	r3, r3, #8, #4
 8004b18:	f852 0023 	ldr.w	r0, [r2, r3, lsl #2]
 8004b1c:	e591      	b.n	8004642 <HAL_RCCEx_GetPeriphCLKFreq+0x11a>
 8004b1e:	4a24      	ldr	r2, [pc, #144]	; (8004bb0 <HAL_RCCEx_GetPeriphCLKFreq+0x688>)
 8004b20:	f8d2 30e0 	ldr.w	r3, [r2, #224]	; 0xe0
 8004b24:	f413 6340 	ands.w	r3, r3, #3072	; 0xc00
 8004b28:	f43f aed3 	beq.w	80048d2 <HAL_RCCEx_GetPeriphCLKFreq+0x3aa>
 8004b2c:	f5b3 6f80 	cmp.w	r3, #1024	; 0x400
 8004b30:	f43f af13 	beq.w	800495a <HAL_RCCEx_GetPeriphCLKFreq+0x432>
 8004b34:	6812      	ldr	r2, [r2, #0]
 8004b36:	0550      	lsls	r0, r2, #21
 8004b38:	d503      	bpl.n	8004b42 <HAL_RCCEx_GetPeriphCLKFreq+0x61a>
 8004b3a:	f5b3 6f00 	cmp.w	r3, #2048	; 0x800
 8004b3e:	f000 8289 	beq.w	8005054 <HAL_RCCEx_GetPeriphCLKFreq+0xb2c>
 8004b42:	4a1b      	ldr	r2, [pc, #108]	; (8004bb0 <HAL_RCCEx_GetPeriphCLKFreq+0x688>)
 8004b44:	6810      	ldr	r0, [r2, #0]
 8004b46:	f010 0020 	ands.w	r0, r0, #32
 8004b4a:	f43f ad7a 	beq.w	8004642 <HAL_RCCEx_GetPeriphCLKFreq+0x11a>
 8004b4e:	f5b3 6f40 	cmp.w	r3, #3072	; 0xc00
 8004b52:	f000 809f 	beq.w	8004c94 <HAL_RCCEx_GetPeriphCLKFreq+0x76c>
 8004b56:	2000      	movs	r0, #0
 8004b58:	e573      	b.n	8004642 <HAL_RCCEx_GetPeriphCLKFreq+0x11a>
 8004b5a:	4817      	ldr	r0, [pc, #92]	; (8004bb8 <HAL_RCCEx_GetPeriphCLKFreq+0x690>)
 8004b5c:	e571      	b.n	8004642 <HAL_RCCEx_GetPeriphCLKFreq+0x11a>
 8004b5e:	4816      	ldr	r0, [pc, #88]	; (8004bb8 <HAL_RCCEx_GetPeriphCLKFreq+0x690>)
 8004b60:	e56f      	b.n	8004642 <HAL_RCCEx_GetPeriphCLKFreq+0x11a>
 8004b62:	a801      	add	r0, sp, #4
 8004b64:	f7ff fb88 	bl	8004278 <HAL_RCCEx_GetPLL2ClockFreq>
 8004b68:	9803      	ldr	r0, [sp, #12]
 8004b6a:	e56a      	b.n	8004642 <HAL_RCCEx_GetPeriphCLKFreq+0x11a>
 8004b6c:	f64b 3080 	movw	r0, #48000	; 0xbb80
 8004b70:	e567      	b.n	8004642 <HAL_RCCEx_GetPeriphCLKFreq+0x11a>
 8004b72:	4a0f      	ldr	r2, [pc, #60]	; (8004bb0 <HAL_RCCEx_GetPeriphCLKFreq+0x688>)
 8004b74:	f8d2 30e0 	ldr.w	r3, [r2, #224]	; 0xe0
 8004b78:	f413 5340 	ands.w	r3, r3, #12288	; 0x3000
 8004b7c:	f43f aea9 	beq.w	80048d2 <HAL_RCCEx_GetPeriphCLKFreq+0x3aa>
 8004b80:	f5b3 5f80 	cmp.w	r3, #4096	; 0x1000
 8004b84:	f43f aee9 	beq.w	800495a <HAL_RCCEx_GetPeriphCLKFreq+0x432>
 8004b88:	6812      	ldr	r2, [r2, #0]
 8004b8a:	0552      	lsls	r2, r2, #21
 8004b8c:	d503      	bpl.n	8004b96 <HAL_RCCEx_GetPeriphCLKFreq+0x66e>
 8004b8e:	f5b3 5f00 	cmp.w	r3, #8192	; 0x2000
 8004b92:	f000 810d 	beq.w	8004db0 <HAL_RCCEx_GetPeriphCLKFreq+0x888>
 8004b96:	4a06      	ldr	r2, [pc, #24]	; (8004bb0 <HAL_RCCEx_GetPeriphCLKFreq+0x688>)
 8004b98:	6810      	ldr	r0, [r2, #0]
 8004b9a:	f010 0020 	ands.w	r0, r0, #32
 8004b9e:	f43f ad50 	beq.w	8004642 <HAL_RCCEx_GetPeriphCLKFreq+0x11a>
 8004ba2:	f5b3 5f40 	cmp.w	r3, #12288	; 0x3000
 8004ba6:	f000 8144 	beq.w	8004e32 <HAL_RCCEx_GetPeriphCLKFreq+0x90a>
 8004baa:	2000      	movs	r0, #0
 8004bac:	e549      	b.n	8004642 <HAL_RCCEx_GetPeriphCLKFreq+0x11a>
 8004bae:	bf00      	nop
 8004bb0:	46020c00 	.word	0x46020c00
 8004bb4:	02dc6c00 	.word	0x02dc6c00
 8004bb8:	00f42400 	.word	0x00f42400
 8004bbc:	0800610c 	.word	0x0800610c
 8004bc0:	6893      	ldr	r3, [r2, #8]
 8004bc2:	0218      	lsls	r0, r3, #8
 8004bc4:	bf4c      	ite	mi
 8004bc6:	6893      	ldrmi	r3, [r2, #8]
 8004bc8:	f8d2 30f4 	ldrpl.w	r3, [r2, #244]	; 0xf4
 8004bcc:	4aa2      	ldr	r2, [pc, #648]	; (8004e58 <HAL_RCCEx_GetPeriphCLKFreq+0x930>)
 8004bce:	bf4c      	ite	mi
 8004bd0:	0f1b      	lsrmi	r3, r3, #28
 8004bd2:	f3c3 3303 	ubfxpl	r3, r3, #12, #4
 8004bd6:	f852 0023 	ldr.w	r0, [r2, r3, lsl #2]
 8004bda:	e532      	b.n	8004642 <HAL_RCCEx_GetPeriphCLKFreq+0x11a>
 8004bdc:	6893      	ldr	r3, [r2, #8]
 8004bde:	021b      	lsls	r3, r3, #8
 8004be0:	bf4c      	ite	mi
 8004be2:	6893      	ldrmi	r3, [r2, #8]
 8004be4:	f8d2 30f4 	ldrpl.w	r3, [r2, #244]	; 0xf4
 8004be8:	4a9b      	ldr	r2, [pc, #620]	; (8004e58 <HAL_RCCEx_GetPeriphCLKFreq+0x930>)
 8004bea:	bf4c      	ite	mi
 8004bec:	f3c3 6303 	ubfxmi	r3, r3, #24, #4
 8004bf0:	f3c3 2303 	ubfxpl	r3, r3, #8, #4
 8004bf4:	f852 0023 	ldr.w	r0, [r2, r3, lsl #2]
 8004bf8:	e523      	b.n	8004642 <HAL_RCCEx_GetPeriphCLKFreq+0x11a>
 8004bfa:	4898      	ldr	r0, [pc, #608]	; (8004e5c <HAL_RCCEx_GetPeriphCLKFreq+0x934>)
 8004bfc:	e521      	b.n	8004642 <HAL_RCCEx_GetPeriphCLKFreq+0x11a>
 8004bfe:	2bc0      	cmp	r3, #192	; 0xc0
 8004c00:	f040 80b8 	bne.w	8004d74 <HAL_RCCEx_GetPeriphCLKFreq+0x84c>
 8004c04:	4b96      	ldr	r3, [pc, #600]	; (8004e60 <HAL_RCCEx_GetPeriphCLKFreq+0x938>)
 8004c06:	689a      	ldr	r2, [r3, #8]
 8004c08:	0211      	lsls	r1, r2, #8
 8004c0a:	bf4c      	ite	mi
 8004c0c:	689b      	ldrmi	r3, [r3, #8]
 8004c0e:	f8d3 30f4 	ldrpl.w	r3, [r3, #244]	; 0xf4
 8004c12:	4a91      	ldr	r2, [pc, #580]	; (8004e58 <HAL_RCCEx_GetPeriphCLKFreq+0x930>)
 8004c14:	bf4c      	ite	mi
 8004c16:	0f1b      	lsrmi	r3, r3, #28
 8004c18:	f3c3 3303 	ubfxpl	r3, r3, #12, #4
 8004c1c:	f852 0023 	ldr.w	r0, [r2, r3, lsl #2]
 8004c20:	e50f      	b.n	8004642 <HAL_RCCEx_GetPeriphCLKFreq+0x11a>
 8004c22:	f44f 4000 	mov.w	r0, #32768	; 0x8000
 8004c26:	e50c      	b.n	8004642 <HAL_RCCEx_GetPeriphCLKFreq+0x11a>
 8004c28:	488c      	ldr	r0, [pc, #560]	; (8004e5c <HAL_RCCEx_GetPeriphCLKFreq+0x934>)
 8004c2a:	e50a      	b.n	8004642 <HAL_RCCEx_GetPeriphCLKFreq+0x11a>
 8004c2c:	4b8c      	ldr	r3, [pc, #560]	; (8004e60 <HAL_RCCEx_GetPeriphCLKFreq+0x938>)
 8004c2e:	f8d3 30e0 	ldr.w	r3, [r3, #224]	; 0xe0
 8004c32:	f413 4340 	ands.w	r3, r3, #49152	; 0xc000
 8004c36:	f43f ae4c 	beq.w	80048d2 <HAL_RCCEx_GetPeriphCLKFreq+0x3aa>
 8004c3a:	f5b3 4f80 	cmp.w	r3, #16384	; 0x4000
 8004c3e:	f43f ae8c 	beq.w	800495a <HAL_RCCEx_GetPeriphCLKFreq+0x432>
 8004c42:	4a87      	ldr	r2, [pc, #540]	; (8004e60 <HAL_RCCEx_GetPeriphCLKFreq+0x938>)
 8004c44:	6812      	ldr	r2, [r2, #0]
 8004c46:	0552      	lsls	r2, r2, #21
 8004c48:	d503      	bpl.n	8004c52 <HAL_RCCEx_GetPeriphCLKFreq+0x72a>
 8004c4a:	f5b3 4f00 	cmp.w	r3, #32768	; 0x8000
 8004c4e:	f000 8100 	beq.w	8004e52 <HAL_RCCEx_GetPeriphCLKFreq+0x92a>
 8004c52:	4a83      	ldr	r2, [pc, #524]	; (8004e60 <HAL_RCCEx_GetPeriphCLKFreq+0x938>)
 8004c54:	6810      	ldr	r0, [r2, #0]
 8004c56:	f010 0020 	ands.w	r0, r0, #32
 8004c5a:	f43f acf2 	beq.w	8004642 <HAL_RCCEx_GetPeriphCLKFreq+0x11a>
 8004c5e:	f5b3 4f40 	cmp.w	r3, #49152	; 0xc000
 8004c62:	f000 80ff 	beq.w	8004e64 <HAL_RCCEx_GetPeriphCLKFreq+0x93c>
 8004c66:	2000      	movs	r0, #0
 8004c68:	e4eb      	b.n	8004642 <HAL_RCCEx_GetPeriphCLKFreq+0x11a>
 8004c6a:	4a7d      	ldr	r2, [pc, #500]	; (8004e60 <HAL_RCCEx_GetPeriphCLKFreq+0x938>)
 8004c6c:	f8d2 30e8 	ldr.w	r3, [r2, #232]	; 0xe8
 8004c70:	f413 7340 	ands.w	r3, r3, #768	; 0x300
 8004c74:	d160      	bne.n	8004d38 <HAL_RCCEx_GetPeriphCLKFreq+0x810>
 8004c76:	6893      	ldr	r3, [r2, #8]
 8004c78:	0218      	lsls	r0, r3, #8
 8004c7a:	bf4c      	ite	mi
 8004c7c:	6893      	ldrmi	r3, [r2, #8]
 8004c7e:	f8d2 30f4 	ldrpl.w	r3, [r2, #244]	; 0xf4
 8004c82:	4a75      	ldr	r2, [pc, #468]	; (8004e58 <HAL_RCCEx_GetPeriphCLKFreq+0x930>)
 8004c84:	bf4c      	ite	mi
 8004c86:	f3c3 6303 	ubfxmi	r3, r3, #24, #4
 8004c8a:	f3c3 2303 	ubfxpl	r3, r3, #8, #4
 8004c8e:	f852 0023 	ldr.w	r0, [r2, r3, lsl #2]
 8004c92:	e4d6      	b.n	8004642 <HAL_RCCEx_GetPeriphCLKFreq+0x11a>
 8004c94:	6893      	ldr	r3, [r2, #8]
 8004c96:	0219      	lsls	r1, r3, #8
 8004c98:	bf4c      	ite	mi
 8004c9a:	6893      	ldrmi	r3, [r2, #8]
 8004c9c:	f8d2 30f4 	ldrpl.w	r3, [r2, #244]	; 0xf4
 8004ca0:	4a6d      	ldr	r2, [pc, #436]	; (8004e58 <HAL_RCCEx_GetPeriphCLKFreq+0x930>)
 8004ca2:	bf4c      	ite	mi
 8004ca4:	f3c3 6303 	ubfxmi	r3, r3, #24, #4
 8004ca8:	f3c3 2303 	ubfxpl	r3, r3, #8, #4
 8004cac:	f852 0023 	ldr.w	r0, [r2, r3, lsl #2]
 8004cb0:	e4c7      	b.n	8004642 <HAL_RCCEx_GetPeriphCLKFreq+0x11a>
 8004cb2:	6810      	ldr	r0, [r2, #0]
 8004cb4:	4b69      	ldr	r3, [pc, #420]	; (8004e5c <HAL_RCCEx_GetPeriphCLKFreq+0x934>)
 8004cb6:	f410 6080 	ands.w	r0, r0, #1024	; 0x400
 8004cba:	bf18      	it	ne
 8004cbc:	4618      	movne	r0, r3
 8004cbe:	e4c0      	b.n	8004642 <HAL_RCCEx_GetPeriphCLKFreq+0x11a>
 8004cc0:	4a67      	ldr	r2, [pc, #412]	; (8004e60 <HAL_RCCEx_GetPeriphCLKFreq+0x938>)
 8004cc2:	f8d2 30e0 	ldr.w	r3, [r2, #224]	; 0xe0
 8004cc6:	f413 2340 	ands.w	r3, r3, #786432	; 0xc0000
 8004cca:	f43f ae02 	beq.w	80048d2 <HAL_RCCEx_GetPeriphCLKFreq+0x3aa>
 8004cce:	f8d2 10f0 	ldr.w	r1, [r2, #240]	; 0xf0
 8004cd2:	0109      	lsls	r1, r1, #4
 8004cd4:	d503      	bpl.n	8004cde <HAL_RCCEx_GetPeriphCLKFreq+0x7b6>
 8004cd6:	f5b3 2f80 	cmp.w	r3, #262144	; 0x40000
 8004cda:	f000 81be 	beq.w	800505a <HAL_RCCEx_GetPeriphCLKFreq+0xb32>
 8004cde:	4a60      	ldr	r2, [pc, #384]	; (8004e60 <HAL_RCCEx_GetPeriphCLKFreq+0x938>)
 8004ce0:	6812      	ldr	r2, [r2, #0]
 8004ce2:	0552      	lsls	r2, r2, #21
 8004ce4:	d503      	bpl.n	8004cee <HAL_RCCEx_GetPeriphCLKFreq+0x7c6>
 8004ce6:	f5b3 2f00 	cmp.w	r3, #524288	; 0x80000
 8004cea:	f000 81c0 	beq.w	800506e <HAL_RCCEx_GetPeriphCLKFreq+0xb46>
 8004cee:	4a5c      	ldr	r2, [pc, #368]	; (8004e60 <HAL_RCCEx_GetPeriphCLKFreq+0x938>)
 8004cf0:	f8d2 00f0 	ldr.w	r0, [r2, #240]	; 0xf0
 8004cf4:	f010 0002 	ands.w	r0, r0, #2
 8004cf8:	f43f aca3 	beq.w	8004642 <HAL_RCCEx_GetPeriphCLKFreq+0x11a>
 8004cfc:	f5b3 2f40 	cmp.w	r3, #786432	; 0xc0000
 8004d00:	bf14      	ite	ne
 8004d02:	2000      	movne	r0, #0
 8004d04:	f44f 4000 	moveq.w	r0, #32768	; 0x8000
 8004d08:	e49b      	b.n	8004642 <HAL_RCCEx_GetPeriphCLKFreq+0x11a>
 8004d0a:	4a55      	ldr	r2, [pc, #340]	; (8004e60 <HAL_RCCEx_GetPeriphCLKFreq+0x938>)
 8004d0c:	f8d2 30e8 	ldr.w	r3, [r2, #232]	; 0xe8
 8004d10:	f413 6340 	ands.w	r3, r3, #3072	; 0xc00
 8004d14:	d130      	bne.n	8004d78 <HAL_RCCEx_GetPeriphCLKFreq+0x850>
 8004d16:	6893      	ldr	r3, [r2, #8]
 8004d18:	0218      	lsls	r0, r3, #8
 8004d1a:	bf4c      	ite	mi
 8004d1c:	6893      	ldrmi	r3, [r2, #8]
 8004d1e:	f8d2 30f4 	ldrpl.w	r3, [r2, #244]	; 0xf4
 8004d22:	4a4d      	ldr	r2, [pc, #308]	; (8004e58 <HAL_RCCEx_GetPeriphCLKFreq+0x930>)
 8004d24:	bf4c      	ite	mi
 8004d26:	f3c3 6303 	ubfxmi	r3, r3, #24, #4
 8004d2a:	f3c3 2303 	ubfxpl	r3, r3, #8, #4
 8004d2e:	f852 0023 	ldr.w	r0, [r2, r3, lsl #2]
 8004d32:	e486      	b.n	8004642 <HAL_RCCEx_GetPeriphCLKFreq+0x11a>
 8004d34:	4849      	ldr	r0, [pc, #292]	; (8004e5c <HAL_RCCEx_GetPeriphCLKFreq+0x934>)
 8004d36:	e484      	b.n	8004642 <HAL_RCCEx_GetPeriphCLKFreq+0x11a>
 8004d38:	f8d2 10f0 	ldr.w	r1, [r2, #240]	; 0xf0
 8004d3c:	0109      	lsls	r1, r1, #4
 8004d3e:	d503      	bpl.n	8004d48 <HAL_RCCEx_GetPeriphCLKFreq+0x820>
 8004d40:	f5b3 7f80 	cmp.w	r3, #256	; 0x100
 8004d44:	f000 8196 	beq.w	8005074 <HAL_RCCEx_GetPeriphCLKFreq+0xb4c>
 8004d48:	4a45      	ldr	r2, [pc, #276]	; (8004e60 <HAL_RCCEx_GetPeriphCLKFreq+0x938>)
 8004d4a:	6812      	ldr	r2, [r2, #0]
 8004d4c:	0552      	lsls	r2, r2, #21
 8004d4e:	d503      	bpl.n	8004d58 <HAL_RCCEx_GetPeriphCLKFreq+0x830>
 8004d50:	f5b3 7f00 	cmp.w	r3, #512	; 0x200
 8004d54:	f000 8198 	beq.w	8005088 <HAL_RCCEx_GetPeriphCLKFreq+0xb60>
 8004d58:	4a41      	ldr	r2, [pc, #260]	; (8004e60 <HAL_RCCEx_GetPeriphCLKFreq+0x938>)
 8004d5a:	f8d2 00f0 	ldr.w	r0, [r2, #240]	; 0xf0
 8004d5e:	f010 0002 	ands.w	r0, r0, #2
 8004d62:	f43f ac6e 	beq.w	8004642 <HAL_RCCEx_GetPeriphCLKFreq+0x11a>
 8004d66:	f5b3 7f40 	cmp.w	r3, #768	; 0x300
 8004d6a:	bf14      	ite	ne
 8004d6c:	2000      	movne	r0, #0
 8004d6e:	f44f 4000 	moveq.w	r0, #32768	; 0x8000
 8004d72:	e466      	b.n	8004642 <HAL_RCCEx_GetPeriphCLKFreq+0x11a>
 8004d74:	2000      	movs	r0, #0
 8004d76:	e464      	b.n	8004642 <HAL_RCCEx_GetPeriphCLKFreq+0x11a>
 8004d78:	f8d2 10f0 	ldr.w	r1, [r2, #240]	; 0xf0
 8004d7c:	0109      	lsls	r1, r1, #4
 8004d7e:	d502      	bpl.n	8004d86 <HAL_RCCEx_GetPeriphCLKFreq+0x85e>
 8004d80:	f5b3 6f80 	cmp.w	r3, #1024	; 0x400
 8004d84:	d016      	beq.n	8004db4 <HAL_RCCEx_GetPeriphCLKFreq+0x88c>
 8004d86:	4a36      	ldr	r2, [pc, #216]	; (8004e60 <HAL_RCCEx_GetPeriphCLKFreq+0x938>)
 8004d88:	6812      	ldr	r2, [r2, #0]
 8004d8a:	0550      	lsls	r0, r2, #21
 8004d8c:	d502      	bpl.n	8004d94 <HAL_RCCEx_GetPeriphCLKFreq+0x86c>
 8004d8e:	f5b3 6f00 	cmp.w	r3, #2048	; 0x800
 8004d92:	d018      	beq.n	8004dc6 <HAL_RCCEx_GetPeriphCLKFreq+0x89e>
 8004d94:	4a32      	ldr	r2, [pc, #200]	; (8004e60 <HAL_RCCEx_GetPeriphCLKFreq+0x938>)
 8004d96:	f8d2 00f0 	ldr.w	r0, [r2, #240]	; 0xf0
 8004d9a:	f010 0002 	ands.w	r0, r0, #2
 8004d9e:	f43f ac50 	beq.w	8004642 <HAL_RCCEx_GetPeriphCLKFreq+0x11a>
 8004da2:	f5b3 6f40 	cmp.w	r3, #3072	; 0xc00
 8004da6:	bf14      	ite	ne
 8004da8:	2000      	movne	r0, #0
 8004daa:	f44f 4000 	moveq.w	r0, #32768	; 0x8000
 8004dae:	e448      	b.n	8004642 <HAL_RCCEx_GetPeriphCLKFreq+0x11a>
 8004db0:	482a      	ldr	r0, [pc, #168]	; (8004e5c <HAL_RCCEx_GetPeriphCLKFreq+0x934>)
 8004db2:	e446      	b.n	8004642 <HAL_RCCEx_GetPeriphCLKFreq+0x11a>
 8004db4:	f8d2 30f0 	ldr.w	r3, [r2, #240]	; 0xf0
 8004db8:	f013 5f80 	tst.w	r3, #268435456	; 0x10000000
 8004dbc:	bf0c      	ite	eq
 8004dbe:	f44f 40fa 	moveq.w	r0, #32000	; 0x7d00
 8004dc2:	20fa      	movne	r0, #250	; 0xfa
 8004dc4:	e43d      	b.n	8004642 <HAL_RCCEx_GetPeriphCLKFreq+0x11a>
 8004dc6:	4825      	ldr	r0, [pc, #148]	; (8004e5c <HAL_RCCEx_GetPeriphCLKFreq+0x934>)
 8004dc8:	e43b      	b.n	8004642 <HAL_RCCEx_GetPeriphCLKFreq+0x11a>
 8004dca:	4a25      	ldr	r2, [pc, #148]	; (8004e60 <HAL_RCCEx_GetPeriphCLKFreq+0x938>)
 8004dcc:	f8d2 30e0 	ldr.w	r3, [r2, #224]	; 0xe0
 8004dd0:	f403 1340 	and.w	r3, r3, #3145728	; 0x300000
 8004dd4:	f5b3 1f00 	cmp.w	r3, #2097152	; 0x200000
 8004dd8:	f000 816c 	beq.w	80050b4 <HAL_RCCEx_GetPeriphCLKFreq+0xb8c>
 8004ddc:	f200 8157 	bhi.w	800508e <HAL_RCCEx_GetPeriphCLKFreq+0xb66>
 8004de0:	2b00      	cmp	r3, #0
 8004de2:	f43f adbf 	beq.w	8004964 <HAL_RCCEx_GetPeriphCLKFreq+0x43c>
 8004de6:	f5b3 1f80 	cmp.w	r3, #1048576	; 0x100000
 8004dea:	bf18      	it	ne
 8004dec:	2000      	movne	r0, #0
 8004dee:	f43f adb4 	beq.w	800495a <HAL_RCCEx_GetPeriphCLKFreq+0x432>
 8004df2:	e426      	b.n	8004642 <HAL_RCCEx_GetPeriphCLKFreq+0x11a>
 8004df4:	4a1a      	ldr	r2, [pc, #104]	; (8004e60 <HAL_RCCEx_GetPeriphCLKFreq+0x938>)
 8004df6:	f8d2 30e0 	ldr.w	r3, [r2, #224]	; 0xe0
 8004dfa:	6812      	ldr	r2, [r2, #0]
 8004dfc:	f003 7340 	and.w	r3, r3, #50331648	; 0x3000000
 8004e00:	0390      	lsls	r0, r2, #14
 8004e02:	d500      	bpl.n	8004e06 <HAL_RCCEx_GetPeriphCLKFreq+0x8de>
 8004e04:	b13b      	cbz	r3, 8004e16 <HAL_RCCEx_GetPeriphCLKFreq+0x8ee>
 8004e06:	f1b3 7f80 	cmp.w	r3, #16777216	; 0x1000000
 8004e0a:	d00b      	beq.n	8004e24 <HAL_RCCEx_GetPeriphCLKFreq+0x8fc>
 8004e0c:	f1b3 7f00 	cmp.w	r3, #33554432	; 0x2000000
 8004e10:	d003      	beq.n	8004e1a <HAL_RCCEx_GetPeriphCLKFreq+0x8f2>
 8004e12:	2000      	movs	r0, #0
 8004e14:	e415      	b.n	8004642 <HAL_RCCEx_GetPeriphCLKFreq+0x11a>
 8004e16:	4811      	ldr	r0, [pc, #68]	; (8004e5c <HAL_RCCEx_GetPeriphCLKFreq+0x934>)
 8004e18:	e413      	b.n	8004642 <HAL_RCCEx_GetPeriphCLKFreq+0x11a>
 8004e1a:	a801      	add	r0, sp, #4
 8004e1c:	f7ff fa2c 	bl	8004278 <HAL_RCCEx_GetPLL2ClockFreq>
 8004e20:	9801      	ldr	r0, [sp, #4]
 8004e22:	e40e      	b.n	8004642 <HAL_RCCEx_GetPeriphCLKFreq+0x11a>
 8004e24:	a801      	add	r0, sp, #4
 8004e26:	f7ff f97b 	bl	8004120 <HAL_RCCEx_GetPLL1ClockFreq>
 8004e2a:	9802      	ldr	r0, [sp, #8]
 8004e2c:	e409      	b.n	8004642 <HAL_RCCEx_GetPeriphCLKFreq+0x11a>
 8004e2e:	2000      	movs	r0, #0
 8004e30:	e407      	b.n	8004642 <HAL_RCCEx_GetPeriphCLKFreq+0x11a>
 8004e32:	6893      	ldr	r3, [r2, #8]
 8004e34:	0218      	lsls	r0, r3, #8
 8004e36:	bf4c      	ite	mi
 8004e38:	6893      	ldrmi	r3, [r2, #8]
 8004e3a:	f8d2 30f4 	ldrpl.w	r3, [r2, #244]	; 0xf4
 8004e3e:	4a06      	ldr	r2, [pc, #24]	; (8004e58 <HAL_RCCEx_GetPeriphCLKFreq+0x930>)
 8004e40:	bf4c      	ite	mi
 8004e42:	f3c3 6303 	ubfxmi	r3, r3, #24, #4
 8004e46:	f3c3 2303 	ubfxpl	r3, r3, #8, #4
 8004e4a:	f852 0023 	ldr.w	r0, [r2, r3, lsl #2]
 8004e4e:	f7ff bbf8 	b.w	8004642 <HAL_RCCEx_GetPeriphCLKFreq+0x11a>
 8004e52:	4802      	ldr	r0, [pc, #8]	; (8004e5c <HAL_RCCEx_GetPeriphCLKFreq+0x934>)
 8004e54:	f7ff bbf5 	b.w	8004642 <HAL_RCCEx_GetPeriphCLKFreq+0x11a>
 8004e58:	0800610c 	.word	0x0800610c
 8004e5c:	00f42400 	.word	0x00f42400
 8004e60:	46020c00 	.word	0x46020c00
 8004e64:	6893      	ldr	r3, [r2, #8]
 8004e66:	021b      	lsls	r3, r3, #8
 8004e68:	bf4c      	ite	mi
 8004e6a:	6893      	ldrmi	r3, [r2, #8]
 8004e6c:	f8d2 30f4 	ldrpl.w	r3, [r2, #244]	; 0xf4
 8004e70:	4a97      	ldr	r2, [pc, #604]	; (80050d0 <HAL_RCCEx_GetPeriphCLKFreq+0xba8>)
 8004e72:	bf4c      	ite	mi
 8004e74:	f3c3 6303 	ubfxmi	r3, r3, #24, #4
 8004e78:	f3c3 2303 	ubfxpl	r3, r3, #8, #4
 8004e7c:	f852 0023 	ldr.w	r0, [r2, r3, lsl #2]
 8004e80:	f7ff bbdf 	b.w	8004642 <HAL_RCCEx_GetPeriphCLKFreq+0x11a>
 8004e84:	4b93      	ldr	r3, [pc, #588]	; (80050d4 <HAL_RCCEx_GetPeriphCLKFreq+0xbac>)
 8004e86:	f8d3 00e8 	ldr.w	r0, [r3, #232]	; 0xe8
 8004e8a:	f8d3 20f0 	ldr.w	r2, [r3, #240]	; 0xf0
 8004e8e:	f400 4000 	and.w	r0, r0, #32768	; 0x8000
 8004e92:	0792      	lsls	r2, r2, #30
 8004e94:	f140 80b3 	bpl.w	8004ffe <HAL_RCCEx_GetPeriphCLKFreq+0xad6>
 8004e98:	2800      	cmp	r0, #0
 8004e9a:	d073      	beq.n	8004f84 <HAL_RCCEx_GetPeriphCLKFreq+0xa5c>
 8004e9c:	4b8d      	ldr	r3, [pc, #564]	; (80050d4 <HAL_RCCEx_GetPeriphCLKFreq+0xbac>)
 8004e9e:	f8d3 00f0 	ldr.w	r0, [r3, #240]	; 0xf0
 8004ea2:	f010 6000 	ands.w	r0, r0, #134217728	; 0x8000000
 8004ea6:	f43f abcc 	beq.w	8004642 <HAL_RCCEx_GetPeriphCLKFreq+0x11a>
 8004eaa:	4b8a      	ldr	r3, [pc, #552]	; (80050d4 <HAL_RCCEx_GetPeriphCLKFreq+0xbac>)
 8004eac:	f8d3 30f0 	ldr.w	r3, [r3, #240]	; 0xf0
 8004eb0:	f013 5f80 	tst.w	r3, #268435456	; 0x10000000
 8004eb4:	bf0c      	ite	eq
 8004eb6:	f44f 40fa 	moveq.w	r0, #32000	; 0x7d00
 8004eba:	20fa      	movne	r0, #250	; 0xfa
 8004ebc:	f7ff bbc1 	b.w	8004642 <HAL_RCCEx_GetPeriphCLKFreq+0x11a>
 8004ec0:	4b84      	ldr	r3, [pc, #528]	; (80050d4 <HAL_RCCEx_GetPeriphCLKFreq+0xbac>)
 8004ec2:	f8d3 30e4 	ldr.w	r3, [r3, #228]	; 0xe4
 8004ec6:	f403 1340 	and.w	r3, r3, #3145728	; 0x300000
 8004eca:	f5b3 1f00 	cmp.w	r3, #2097152	; 0x200000
 8004ece:	f43f acf9 	beq.w	80048c4 <HAL_RCCEx_GetPeriphCLKFreq+0x39c>
 8004ed2:	d86f      	bhi.n	8004fb4 <HAL_RCCEx_GetPeriphCLKFreq+0xa8c>
 8004ed4:	2b00      	cmp	r3, #0
 8004ed6:	f43f ad40 	beq.w	800495a <HAL_RCCEx_GetPeriphCLKFreq+0x432>
 8004eda:	f5b3 1f80 	cmp.w	r3, #1048576	; 0x100000
 8004ede:	bf18      	it	ne
 8004ee0:	2000      	movne	r0, #0
 8004ee2:	f47f abae 	bne.w	8004642 <HAL_RCCEx_GetPeriphCLKFreq+0x11a>
 8004ee6:	4b7b      	ldr	r3, [pc, #492]	; (80050d4 <HAL_RCCEx_GetPeriphCLKFreq+0xbac>)
 8004ee8:	689a      	ldr	r2, [r3, #8]
 8004eea:	0211      	lsls	r1, r2, #8
 8004eec:	bf4c      	ite	mi
 8004eee:	689b      	ldrmi	r3, [r3, #8]
 8004ef0:	f8d3 30f4 	ldrpl.w	r3, [r3, #244]	; 0xf4
 8004ef4:	4a76      	ldr	r2, [pc, #472]	; (80050d0 <HAL_RCCEx_GetPeriphCLKFreq+0xba8>)
 8004ef6:	bf4c      	ite	mi
 8004ef8:	f3c3 6303 	ubfxmi	r3, r3, #24, #4
 8004efc:	f3c3 2303 	ubfxpl	r3, r3, #8, #4
 8004f00:	f852 0023 	ldr.w	r0, [r2, r3, lsl #2]
 8004f04:	f7ff bb9d 	b.w	8004642 <HAL_RCCEx_GetPeriphCLKFreq+0x11a>
 8004f08:	4b72      	ldr	r3, [pc, #456]	; (80050d4 <HAL_RCCEx_GetPeriphCLKFreq+0xbac>)
 8004f0a:	f8d3 30e8 	ldr.w	r3, [r3, #232]	; 0xe8
 8004f0e:	f003 0318 	and.w	r3, r3, #24
 8004f12:	2b18      	cmp	r3, #24
 8004f14:	f200 8095 	bhi.w	8005042 <HAL_RCCEx_GetPeriphCLKFreq+0xb1a>
 8004f18:	a201      	add	r2, pc, #4	; (adr r2, 8004f20 <HAL_RCCEx_GetPeriphCLKFreq+0x9f8>)
 8004f1a:	f852 f023 	ldr.w	pc, [r2, r3, lsl #2]
 8004f1e:	bf00      	nop
 8004f20:	08004ae3 	.word	0x08004ae3
 8004f24:	08005043 	.word	0x08005043
 8004f28:	08005043 	.word	0x08005043
 8004f2c:	08005043 	.word	0x08005043
 8004f30:	08005043 	.word	0x08005043
 8004f34:	08005043 	.word	0x08005043
 8004f38:	08005043 	.word	0x08005043
 8004f3c:	08005043 	.word	0x08005043
 8004f40:	0800495b 	.word	0x0800495b
 8004f44:	08005043 	.word	0x08005043
 8004f48:	08005043 	.word	0x08005043
 8004f4c:	08005043 	.word	0x08005043
 8004f50:	08005043 	.word	0x08005043
 8004f54:	08005043 	.word	0x08005043
 8004f58:	08005043 	.word	0x08005043
 8004f5c:	08005043 	.word	0x08005043
 8004f60:	08005031 	.word	0x08005031
 8004f64:	08005043 	.word	0x08005043
 8004f68:	08005043 	.word	0x08005043
 8004f6c:	08005043 	.word	0x08005043
 8004f70:	08005043 	.word	0x08005043
 8004f74:	08005043 	.word	0x08005043
 8004f78:	08005043 	.word	0x08005043
 8004f7c:	08005043 	.word	0x08005043
 8004f80:	0800500f 	.word	0x0800500f
 8004f84:	f44f 4000 	mov.w	r0, #32768	; 0x8000
 8004f88:	f7ff bb5b 	b.w	8004642 <HAL_RCCEx_GetPeriphCLKFreq+0x11a>
 8004f8c:	4a51      	ldr	r2, [pc, #324]	; (80050d4 <HAL_RCCEx_GetPeriphCLKFreq+0xbac>)
 8004f8e:	f8d2 30e0 	ldr.w	r3, [r2, #224]	; 0xe0
 8004f92:	f403 3340 	and.w	r3, r3, #196608	; 0x30000
 8004f96:	f5b3 3f00 	cmp.w	r3, #131072	; 0x20000
 8004f9a:	d025      	beq.n	8004fe8 <HAL_RCCEx_GetPeriphCLKFreq+0xac0>
 8004f9c:	d811      	bhi.n	8004fc2 <HAL_RCCEx_GetPeriphCLKFreq+0xa9a>
 8004f9e:	2b00      	cmp	r3, #0
 8004fa0:	f43f ac97 	beq.w	80048d2 <HAL_RCCEx_GetPeriphCLKFreq+0x3aa>
 8004fa4:	f5b3 3f80 	cmp.w	r3, #65536	; 0x10000
 8004fa8:	bf18      	it	ne
 8004faa:	2000      	movne	r0, #0
 8004fac:	f43f acd5 	beq.w	800495a <HAL_RCCEx_GetPeriphCLKFreq+0x432>
 8004fb0:	f7ff bb47 	b.w	8004642 <HAL_RCCEx_GetPeriphCLKFreq+0x11a>
 8004fb4:	f5b3 1f40 	cmp.w	r3, #3145728	; 0x300000
 8004fb8:	f43f abf2 	beq.w	80047a0 <HAL_RCCEx_GetPeriphCLKFreq+0x278>
 8004fbc:	2000      	movs	r0, #0
 8004fbe:	f7ff bb40 	b.w	8004642 <HAL_RCCEx_GetPeriphCLKFreq+0x11a>
 8004fc2:	f5b3 3f40 	cmp.w	r3, #196608	; 0x30000
 8004fc6:	d117      	bne.n	8004ff8 <HAL_RCCEx_GetPeriphCLKFreq+0xad0>
 8004fc8:	6893      	ldr	r3, [r2, #8]
 8004fca:	021b      	lsls	r3, r3, #8
 8004fcc:	bf4c      	ite	mi
 8004fce:	6893      	ldrmi	r3, [r2, #8]
 8004fd0:	f8d2 30f4 	ldrpl.w	r3, [r2, #244]	; 0xf4
 8004fd4:	4a3e      	ldr	r2, [pc, #248]	; (80050d0 <HAL_RCCEx_GetPeriphCLKFreq+0xba8>)
 8004fd6:	bf4c      	ite	mi
 8004fd8:	f3c3 6303 	ubfxmi	r3, r3, #24, #4
 8004fdc:	f3c3 2303 	ubfxpl	r3, r3, #8, #4
 8004fe0:	f852 0023 	ldr.w	r0, [r2, r3, lsl #2]
 8004fe4:	f7ff bb2d 	b.w	8004642 <HAL_RCCEx_GetPeriphCLKFreq+0x11a>
 8004fe8:	6810      	ldr	r0, [r2, #0]
 8004fea:	4b3b      	ldr	r3, [pc, #236]	; (80050d8 <HAL_RCCEx_GetPeriphCLKFreq+0xbb0>)
 8004fec:	f410 6080 	ands.w	r0, r0, #1024	; 0x400
 8004ff0:	bf18      	it	ne
 8004ff2:	4618      	movne	r0, r3
 8004ff4:	f7ff bb25 	b.w	8004642 <HAL_RCCEx_GetPeriphCLKFreq+0x11a>
 8004ff8:	2000      	movs	r0, #0
 8004ffa:	f7ff bb22 	b.w	8004642 <HAL_RCCEx_GetPeriphCLKFreq+0x11a>
 8004ffe:	f8d3 30f0 	ldr.w	r3, [r3, #240]	; 0xf0
 8005002:	011b      	lsls	r3, r3, #4
 8005004:	d520      	bpl.n	8005048 <HAL_RCCEx_GetPeriphCLKFreq+0xb20>
 8005006:	2800      	cmp	r0, #0
 8005008:	f43f ab1b 	beq.w	8004642 <HAL_RCCEx_GetPeriphCLKFreq+0x11a>
 800500c:	e74d      	b.n	8004eaa <HAL_RCCEx_GetPeriphCLKFreq+0x982>
 800500e:	4b31      	ldr	r3, [pc, #196]	; (80050d4 <HAL_RCCEx_GetPeriphCLKFreq+0xbac>)
 8005010:	689a      	ldr	r2, [r3, #8]
 8005012:	0210      	lsls	r0, r2, #8
 8005014:	bf4c      	ite	mi
 8005016:	689b      	ldrmi	r3, [r3, #8]
 8005018:	f8d3 30f4 	ldrpl.w	r3, [r3, #244]	; 0xf4
 800501c:	4a2c      	ldr	r2, [pc, #176]	; (80050d0 <HAL_RCCEx_GetPeriphCLKFreq+0xba8>)
 800501e:	bf4c      	ite	mi
 8005020:	f3c3 6303 	ubfxmi	r3, r3, #24, #4
 8005024:	f3c3 2303 	ubfxpl	r3, r3, #8, #4
 8005028:	f852 0023 	ldr.w	r0, [r2, r3, lsl #2]
 800502c:	f7ff bb09 	b.w	8004642 <HAL_RCCEx_GetPeriphCLKFreq+0x11a>
 8005030:	4a28      	ldr	r2, [pc, #160]	; (80050d4 <HAL_RCCEx_GetPeriphCLKFreq+0xbac>)
 8005032:	4b29      	ldr	r3, [pc, #164]	; (80050d8 <HAL_RCCEx_GetPeriphCLKFreq+0xbb0>)
 8005034:	6810      	ldr	r0, [r2, #0]
 8005036:	f410 6080 	ands.w	r0, r0, #1024	; 0x400
 800503a:	bf18      	it	ne
 800503c:	4618      	movne	r0, r3
 800503e:	f7ff bb00 	b.w	8004642 <HAL_RCCEx_GetPeriphCLKFreq+0x11a>
 8005042:	2000      	movs	r0, #0
 8005044:	f7ff bafd 	b.w	8004642 <HAL_RCCEx_GetPeriphCLKFreq+0x11a>
 8005048:	2000      	movs	r0, #0
 800504a:	f7ff bafa 	b.w	8004642 <HAL_RCCEx_GetPeriphCLKFreq+0x11a>
 800504e:	2000      	movs	r0, #0
 8005050:	f7ff baf7 	b.w	8004642 <HAL_RCCEx_GetPeriphCLKFreq+0x11a>
 8005054:	4820      	ldr	r0, [pc, #128]	; (80050d8 <HAL_RCCEx_GetPeriphCLKFreq+0xbb0>)
 8005056:	f7ff baf4 	b.w	8004642 <HAL_RCCEx_GetPeriphCLKFreq+0x11a>
 800505a:	f8d2 30f0 	ldr.w	r3, [r2, #240]	; 0xf0
 800505e:	f013 5f80 	tst.w	r3, #268435456	; 0x10000000
 8005062:	bf0c      	ite	eq
 8005064:	f44f 40fa 	moveq.w	r0, #32000	; 0x7d00
 8005068:	20fa      	movne	r0, #250	; 0xfa
 800506a:	f7ff baea 	b.w	8004642 <HAL_RCCEx_GetPeriphCLKFreq+0x11a>
 800506e:	481a      	ldr	r0, [pc, #104]	; (80050d8 <HAL_RCCEx_GetPeriphCLKFreq+0xbb0>)
 8005070:	f7ff bae7 	b.w	8004642 <HAL_RCCEx_GetPeriphCLKFreq+0x11a>
 8005074:	f8d2 30f0 	ldr.w	r3, [r2, #240]	; 0xf0
 8005078:	f013 5f80 	tst.w	r3, #268435456	; 0x10000000
 800507c:	bf0c      	ite	eq
 800507e:	f44f 40fa 	moveq.w	r0, #32000	; 0x7d00
 8005082:	20fa      	movne	r0, #250	; 0xfa
 8005084:	f7ff badd 	b.w	8004642 <HAL_RCCEx_GetPeriphCLKFreq+0x11a>
 8005088:	4813      	ldr	r0, [pc, #76]	; (80050d8 <HAL_RCCEx_GetPeriphCLKFreq+0xbb0>)
 800508a:	f7ff bada 	b.w	8004642 <HAL_RCCEx_GetPeriphCLKFreq+0x11a>
 800508e:	f5b3 1f40 	cmp.w	r3, #3145728	; 0x300000
 8005092:	d117      	bne.n	80050c4 <HAL_RCCEx_GetPeriphCLKFreq+0xb9c>
 8005094:	6893      	ldr	r3, [r2, #8]
 8005096:	0219      	lsls	r1, r3, #8
 8005098:	bf4c      	ite	mi
 800509a:	6893      	ldrmi	r3, [r2, #8]
 800509c:	f8d2 30f4 	ldrpl.w	r3, [r2, #244]	; 0xf4
 80050a0:	4a0b      	ldr	r2, [pc, #44]	; (80050d0 <HAL_RCCEx_GetPeriphCLKFreq+0xba8>)
 80050a2:	bf4c      	ite	mi
 80050a4:	f3c3 6303 	ubfxmi	r3, r3, #24, #4
 80050a8:	f3c3 2303 	ubfxpl	r3, r3, #8, #4
 80050ac:	f852 0023 	ldr.w	r0, [r2, r3, lsl #2]
 80050b0:	f7ff bac7 	b.w	8004642 <HAL_RCCEx_GetPeriphCLKFreq+0x11a>
 80050b4:	6810      	ldr	r0, [r2, #0]
 80050b6:	4b08      	ldr	r3, [pc, #32]	; (80050d8 <HAL_RCCEx_GetPeriphCLKFreq+0xbb0>)
 80050b8:	f410 6080 	ands.w	r0, r0, #1024	; 0x400
 80050bc:	bf18      	it	ne
 80050be:	4618      	movne	r0, r3
 80050c0:	f7ff babf 	b.w	8004642 <HAL_RCCEx_GetPeriphCLKFreq+0x11a>
 80050c4:	2000      	movs	r0, #0
 80050c6:	f7ff babc 	b.w	8004642 <HAL_RCCEx_GetPeriphCLKFreq+0x11a>
 80050ca:	2000      	movs	r0, #0
 80050cc:	f7ff bab9 	b.w	8004642 <HAL_RCCEx_GetPeriphCLKFreq+0x11a>
 80050d0:	0800610c 	.word	0x0800610c
 80050d4:	46020c00 	.word	0x46020c00
 80050d8:	00f42400 	.word	0x00f42400

080050dc <HAL_SRAM_Init>:
 80050dc:	b378      	cbz	r0, 800513e <HAL_SRAM_Init+0x62>
 80050de:	b570      	push	{r4, r5, r6, lr}
 80050e0:	f890 3051 	ldrb.w	r3, [r0, #81]	; 0x51
 80050e4:	4615      	mov	r5, r2
 80050e6:	4604      	mov	r4, r0
 80050e8:	460e      	mov	r6, r1
 80050ea:	f003 02ff 	and.w	r2, r3, #255	; 0xff
 80050ee:	b30b      	cbz	r3, 8005134 <HAL_SRAM_Init+0x58>
 80050f0:	4621      	mov	r1, r4
 80050f2:	f851 0b08 	ldr.w	r0, [r1], #8
 80050f6:	f000 faf3 	bl	80056e0 <FMC_NORSRAM_Init>
 80050fa:	4631      	mov	r1, r6
 80050fc:	68a2      	ldr	r2, [r4, #8]
 80050fe:	6820      	ldr	r0, [r4, #0]
 8005100:	f000 fb6c 	bl	80057dc <FMC_NORSRAM_Timing_Init>
 8005104:	e9d4 0201 	ldrd	r0, r2, [r4, #4]
 8005108:	4629      	mov	r1, r5
 800510a:	6ae3      	ldr	r3, [r4, #44]	; 0x2c
 800510c:	f000 fb96 	bl	800583c <FMC_NORSRAM_Extended_Timing_Init>
 8005110:	6821      	ldr	r1, [r4, #0]
 8005112:	68a0      	ldr	r0, [r4, #8]
 8005114:	4a0b      	ldr	r2, [pc, #44]	; (8005144 <HAL_SRAM_Init+0x68>)
 8005116:	f851 3020 	ldr.w	r3, [r1, r0, lsl #2]
 800511a:	f043 0301 	orr.w	r3, r3, #1
 800511e:	f841 3020 	str.w	r3, [r1, r0, lsl #2]
 8005122:	2101      	movs	r1, #1
 8005124:	6813      	ldr	r3, [r2, #0]
 8005126:	2000      	movs	r0, #0
 8005128:	f043 4300 	orr.w	r3, r3, #2147483648	; 0x80000000
 800512c:	6013      	str	r3, [r2, #0]
 800512e:	f884 1051 	strb.w	r1, [r4, #81]	; 0x51
 8005132:	bd70      	pop	{r4, r5, r6, pc}
 8005134:	f880 2050 	strb.w	r2, [r0, #80]	; 0x50
 8005138:	f7fb feae 	bl	8000e98 <HAL_SRAM_MspInit>
 800513c:	e7d8      	b.n	80050f0 <HAL_SRAM_Init+0x14>
 800513e:	2001      	movs	r0, #1
 8005140:	4770      	bx	lr
 8005142:	bf00      	nop
 8005144:	420d0400 	.word	0x420d0400

08005148 <UART_SetConfig>:
 8005148:	b570      	push	{r4, r5, r6, lr}
 800514a:	4604      	mov	r4, r0
 800514c:	6803      	ldr	r3, [r0, #0]
 800514e:	69c5      	ldr	r5, [r0, #28]
 8005150:	6882      	ldr	r2, [r0, #8]
 8005152:	6900      	ldr	r0, [r0, #16]
 8005154:	496c      	ldr	r1, [pc, #432]	; (8005308 <UART_SetConfig+0x1c0>)
 8005156:	4302      	orrs	r2, r0
 8005158:	6960      	ldr	r0, [r4, #20]
 800515a:	4e6c      	ldr	r6, [pc, #432]	; (800530c <UART_SetConfig+0x1c4>)
 800515c:	4302      	orrs	r2, r0
 800515e:	6818      	ldr	r0, [r3, #0]
 8005160:	432a      	orrs	r2, r5
 8005162:	4001      	ands	r1, r0
 8005164:	430a      	orrs	r2, r1
 8005166:	601a      	str	r2, [r3, #0]
 8005168:	685a      	ldr	r2, [r3, #4]
 800516a:	68e1      	ldr	r1, [r4, #12]
 800516c:	f422 5240 	bic.w	r2, r2, #12288	; 0x3000
 8005170:	430a      	orrs	r2, r1
 8005172:	42b3      	cmp	r3, r6
 8005174:	605a      	str	r2, [r3, #4]
 8005176:	69a2      	ldr	r2, [r4, #24]
 8005178:	f000 809e 	beq.w	80052b8 <UART_SetConfig+0x170>
 800517c:	4964      	ldr	r1, [pc, #400]	; (8005310 <UART_SetConfig+0x1c8>)
 800517e:	428b      	cmp	r3, r1
 8005180:	6899      	ldr	r1, [r3, #8]
 8005182:	f021 416e 	bic.w	r1, r1, #3992977408	; 0xee000000
 8005186:	f421 6130 	bic.w	r1, r1, #2816	; 0xb00
 800518a:	d02a      	beq.n	80051e2 <UART_SetConfig+0x9a>
 800518c:	6a20      	ldr	r0, [r4, #32]
 800518e:	4302      	orrs	r2, r0
 8005190:	430a      	orrs	r2, r1
 8005192:	609a      	str	r2, [r3, #8]
 8005194:	6ada      	ldr	r2, [r3, #44]	; 0x2c
 8005196:	6a61      	ldr	r1, [r4, #36]	; 0x24
 8005198:	f022 020f 	bic.w	r2, r2, #15
 800519c:	430a      	orrs	r2, r1
 800519e:	495d      	ldr	r1, [pc, #372]	; (8005314 <UART_SetConfig+0x1cc>)
 80051a0:	62da      	str	r2, [r3, #44]	; 0x2c
 80051a2:	428b      	cmp	r3, r1
 80051a4:	d17a      	bne.n	800529c <UART_SetConfig+0x154>
 80051a6:	2001      	movs	r0, #1
 80051a8:	2100      	movs	r1, #0
 80051aa:	f5b5 4f00 	cmp.w	r5, #32768	; 0x8000
 80051ae:	d05d      	beq.n	800526c <UART_SetConfig+0x124>
 80051b0:	f7ff f9ba 	bl	8004528 <HAL_RCCEx_GetPeriphCLKFreq>
 80051b4:	2800      	cmp	r0, #0
 80051b6:	d051      	beq.n	800525c <UART_SetConfig+0x114>
 80051b8:	6a61      	ldr	r1, [r4, #36]	; 0x24
 80051ba:	4b57      	ldr	r3, [pc, #348]	; (8005318 <UART_SetConfig+0x1d0>)
 80051bc:	6862      	ldr	r2, [r4, #4]
 80051be:	f833 3011 	ldrh.w	r3, [r3, r1, lsl #1]
 80051c2:	f64f 71ef 	movw	r1, #65519	; 0xffef
 80051c6:	fbb0 f3f3 	udiv	r3, r0, r3
 80051ca:	eb03 0352 	add.w	r3, r3, r2, lsr #1
 80051ce:	fbb3 f3f2 	udiv	r3, r3, r2
 80051d2:	f1a3 0210 	sub.w	r2, r3, #16
 80051d6:	428a      	cmp	r2, r1
 80051d8:	d85e      	bhi.n	8005298 <UART_SetConfig+0x150>
 80051da:	6822      	ldr	r2, [r4, #0]
 80051dc:	2000      	movs	r0, #0
 80051de:	60d3      	str	r3, [r2, #12]
 80051e0:	e03d      	b.n	800525e <UART_SetConfig+0x116>
 80051e2:	430a      	orrs	r2, r1
 80051e4:	609a      	str	r2, [r3, #8]
 80051e6:	6ada      	ldr	r2, [r3, #44]	; 0x2c
 80051e8:	6a61      	ldr	r1, [r4, #36]	; 0x24
 80051ea:	f022 020f 	bic.w	r2, r2, #15
 80051ee:	430a      	orrs	r2, r1
 80051f0:	62da      	str	r2, [r3, #44]	; 0x2c
 80051f2:	4a47      	ldr	r2, [pc, #284]	; (8005310 <UART_SetConfig+0x1c8>)
 80051f4:	2000      	movs	r0, #0
 80051f6:	4293      	cmp	r3, r2
 80051f8:	f04f 0100 	mov.w	r1, #0
 80051fc:	d1d5      	bne.n	80051aa <UART_SetConfig+0x62>
 80051fe:	f7ff f993 	bl	8004528 <HAL_RCCEx_GetPeriphCLKFreq>
 8005202:	b358      	cbz	r0, 800525c <UART_SetConfig+0x114>
 8005204:	6a61      	ldr	r1, [r4, #36]	; 0x24
 8005206:	4a44      	ldr	r2, [pc, #272]	; (8005318 <UART_SetConfig+0x1d0>)
 8005208:	6865      	ldr	r5, [r4, #4]
 800520a:	f832 2011 	ldrh.w	r2, [r2, r1, lsl #1]
 800520e:	eb05 0145 	add.w	r1, r5, r5, lsl #1
 8005212:	fbb0 f3f2 	udiv	r3, r0, r2
 8005216:	4299      	cmp	r1, r3
 8005218:	d83e      	bhi.n	8005298 <UART_SetConfig+0x150>
 800521a:	ebb3 3f05 	cmp.w	r3, r5, lsl #12
 800521e:	d83b      	bhi.n	8005298 <UART_SetConfig+0x150>
 8005220:	2300      	movs	r3, #0
 8005222:	4619      	mov	r1, r3
 8005224:	f7fb f828 	bl	8000278 <__aeabi_uldivmod>
 8005228:	4606      	mov	r6, r0
 800522a:	462a      	mov	r2, r5
 800522c:	ea4f 0c55 	mov.w	ip, r5, lsr #1
 8005230:	0209      	lsls	r1, r1, #8
 8005232:	0235      	lsls	r5, r6, #8
 8005234:	eb15 000c 	adds.w	r0, r5, ip
 8005238:	ea41 6116 	orr.w	r1, r1, r6, lsr #24
 800523c:	f04f 0300 	mov.w	r3, #0
 8005240:	f141 0100 	adc.w	r1, r1, #0
 8005244:	f7fb f818 	bl	8000278 <__aeabi_uldivmod>
 8005248:	4a34      	ldr	r2, [pc, #208]	; (800531c <UART_SetConfig+0x1d4>)
 800524a:	f5a0 7140 	sub.w	r1, r0, #768	; 0x300
 800524e:	4291      	cmp	r1, r2
 8005250:	4603      	mov	r3, r0
 8005252:	d821      	bhi.n	8005298 <UART_SetConfig+0x150>
 8005254:	6822      	ldr	r2, [r4, #0]
 8005256:	2000      	movs	r0, #0
 8005258:	60d3      	str	r3, [r2, #12]
 800525a:	e000      	b.n	800525e <UART_SetConfig+0x116>
 800525c:	2000      	movs	r0, #0
 800525e:	2300      	movs	r3, #0
 8005260:	f04f 1201 	mov.w	r2, #65537	; 0x10001
 8005264:	6723      	str	r3, [r4, #112]	; 0x70
 8005266:	66a2      	str	r2, [r4, #104]	; 0x68
 8005268:	6763      	str	r3, [r4, #116]	; 0x74
 800526a:	bd70      	pop	{r4, r5, r6, pc}
 800526c:	f7ff f95c 	bl	8004528 <HAL_RCCEx_GetPeriphCLKFreq>
 8005270:	2800      	cmp	r0, #0
 8005272:	d0f3      	beq.n	800525c <UART_SetConfig+0x114>
 8005274:	4b28      	ldr	r3, [pc, #160]	; (8005318 <UART_SetConfig+0x1d0>)
 8005276:	6a61      	ldr	r1, [r4, #36]	; 0x24
 8005278:	6862      	ldr	r2, [r4, #4]
 800527a:	f833 1011 	ldrh.w	r1, [r3, r1, lsl #1]
 800527e:	0853      	lsrs	r3, r2, #1
 8005280:	fbb0 f0f1 	udiv	r0, r0, r1
 8005284:	eb03 0040 	add.w	r0, r3, r0, lsl #1
 8005288:	fbb0 f0f2 	udiv	r0, r0, r2
 800528c:	f64f 71ef 	movw	r1, #65519	; 0xffef
 8005290:	f1a0 0310 	sub.w	r3, r0, #16
 8005294:	428b      	cmp	r3, r1
 8005296:	d92c      	bls.n	80052f2 <UART_SetConfig+0x1aa>
 8005298:	2001      	movs	r0, #1
 800529a:	e7e0      	b.n	800525e <UART_SetConfig+0x116>
 800529c:	4a20      	ldr	r2, [pc, #128]	; (8005320 <UART_SetConfig+0x1d8>)
 800529e:	4293      	cmp	r3, r2
 80052a0:	d01a      	beq.n	80052d8 <UART_SetConfig+0x190>
 80052a2:	f502 6280 	add.w	r2, r2, #1024	; 0x400
 80052a6:	4293      	cmp	r3, r2
 80052a8:	d019      	beq.n	80052de <UART_SetConfig+0x196>
 80052aa:	f502 6280 	add.w	r2, r2, #1024	; 0x400
 80052ae:	4293      	cmp	r3, r2
 80052b0:	d118      	bne.n	80052e4 <UART_SetConfig+0x19c>
 80052b2:	2008      	movs	r0, #8
 80052b4:	2100      	movs	r1, #0
 80052b6:	e778      	b.n	80051aa <UART_SetConfig+0x62>
 80052b8:	6899      	ldr	r1, [r3, #8]
 80052ba:	2020      	movs	r0, #32
 80052bc:	f021 416e 	bic.w	r1, r1, #3992977408	; 0xee000000
 80052c0:	f421 6130 	bic.w	r1, r1, #2816	; 0xb00
 80052c4:	430a      	orrs	r2, r1
 80052c6:	609a      	str	r2, [r3, #8]
 80052c8:	6ada      	ldr	r2, [r3, #44]	; 0x2c
 80052ca:	6a61      	ldr	r1, [r4, #36]	; 0x24
 80052cc:	f022 020f 	bic.w	r2, r2, #15
 80052d0:	430a      	orrs	r2, r1
 80052d2:	62da      	str	r2, [r3, #44]	; 0x2c
 80052d4:	2100      	movs	r1, #0
 80052d6:	e792      	b.n	80051fe <UART_SetConfig+0xb6>
 80052d8:	2002      	movs	r0, #2
 80052da:	2100      	movs	r1, #0
 80052dc:	e765      	b.n	80051aa <UART_SetConfig+0x62>
 80052de:	2004      	movs	r0, #4
 80052e0:	2100      	movs	r1, #0
 80052e2:	e762      	b.n	80051aa <UART_SetConfig+0x62>
 80052e4:	f502 6280 	add.w	r2, r2, #1024	; 0x400
 80052e8:	4293      	cmp	r3, r2
 80052ea:	d182      	bne.n	80051f2 <UART_SetConfig+0xaa>
 80052ec:	2010      	movs	r0, #16
 80052ee:	2100      	movs	r1, #0
 80052f0:	e75b      	b.n	80051aa <UART_SetConfig+0x62>
 80052f2:	f020 030f 	bic.w	r3, r0, #15
 80052f6:	6822      	ldr	r2, [r4, #0]
 80052f8:	f3c0 0042 	ubfx	r0, r0, #1, #3
 80052fc:	b29b      	uxth	r3, r3
 80052fe:	4303      	orrs	r3, r0
 8005300:	60d3      	str	r3, [r2, #12]
 8005302:	2000      	movs	r0, #0
 8005304:	e7ab      	b.n	800525e <UART_SetConfig+0x116>
 8005306:	bf00      	nop
 8005308:	cfff69f3 	.word	0xcfff69f3
 800530c:	46002400 	.word	0x46002400
 8005310:	56002400 	.word	0x56002400
 8005314:	40013800 	.word	0x40013800
 8005318:	080061cc 	.word	0x080061cc
 800531c:	000ffcff 	.word	0x000ffcff
 8005320:	40004400 	.word	0x40004400

08005324 <UART_AdvFeatureConfig>:
 8005324:	6a83      	ldr	r3, [r0, #40]	; 0x28
 8005326:	b410      	push	{r4}
 8005328:	07da      	lsls	r2, r3, #31
 800532a:	d506      	bpl.n	800533a <UART_AdvFeatureConfig+0x16>
 800532c:	6801      	ldr	r1, [r0, #0]
 800532e:	6ac4      	ldr	r4, [r0, #44]	; 0x2c
 8005330:	684a      	ldr	r2, [r1, #4]
 8005332:	f422 3200 	bic.w	r2, r2, #131072	; 0x20000
 8005336:	4322      	orrs	r2, r4
 8005338:	604a      	str	r2, [r1, #4]
 800533a:	079c      	lsls	r4, r3, #30
 800533c:	d506      	bpl.n	800534c <UART_AdvFeatureConfig+0x28>
 800533e:	6801      	ldr	r1, [r0, #0]
 8005340:	6b04      	ldr	r4, [r0, #48]	; 0x30
 8005342:	684a      	ldr	r2, [r1, #4]
 8005344:	f422 3280 	bic.w	r2, r2, #65536	; 0x10000
 8005348:	4322      	orrs	r2, r4
 800534a:	604a      	str	r2, [r1, #4]
 800534c:	0759      	lsls	r1, r3, #29
 800534e:	d506      	bpl.n	800535e <UART_AdvFeatureConfig+0x3a>
 8005350:	6801      	ldr	r1, [r0, #0]
 8005352:	6b44      	ldr	r4, [r0, #52]	; 0x34
 8005354:	684a      	ldr	r2, [r1, #4]
 8005356:	f422 2280 	bic.w	r2, r2, #262144	; 0x40000
 800535a:	4322      	orrs	r2, r4
 800535c:	604a      	str	r2, [r1, #4]
 800535e:	071a      	lsls	r2, r3, #28
 8005360:	d506      	bpl.n	8005370 <UART_AdvFeatureConfig+0x4c>
 8005362:	6801      	ldr	r1, [r0, #0]
 8005364:	6b84      	ldr	r4, [r0, #56]	; 0x38
 8005366:	684a      	ldr	r2, [r1, #4]
 8005368:	f422 4200 	bic.w	r2, r2, #32768	; 0x8000
 800536c:	4322      	orrs	r2, r4
 800536e:	604a      	str	r2, [r1, #4]
 8005370:	06dc      	lsls	r4, r3, #27
 8005372:	d506      	bpl.n	8005382 <UART_AdvFeatureConfig+0x5e>
 8005374:	6801      	ldr	r1, [r0, #0]
 8005376:	6bc4      	ldr	r4, [r0, #60]	; 0x3c
 8005378:	688a      	ldr	r2, [r1, #8]
 800537a:	f422 5280 	bic.w	r2, r2, #4096	; 0x1000
 800537e:	4322      	orrs	r2, r4
 8005380:	608a      	str	r2, [r1, #8]
 8005382:	0699      	lsls	r1, r3, #26
 8005384:	d506      	bpl.n	8005394 <UART_AdvFeatureConfig+0x70>
 8005386:	6801      	ldr	r1, [r0, #0]
 8005388:	6c04      	ldr	r4, [r0, #64]	; 0x40
 800538a:	688a      	ldr	r2, [r1, #8]
 800538c:	f422 5200 	bic.w	r2, r2, #8192	; 0x2000
 8005390:	4322      	orrs	r2, r4
 8005392:	608a      	str	r2, [r1, #8]
 8005394:	065a      	lsls	r2, r3, #25
 8005396:	d50a      	bpl.n	80053ae <UART_AdvFeatureConfig+0x8a>
 8005398:	6801      	ldr	r1, [r0, #0]
 800539a:	6c44      	ldr	r4, [r0, #68]	; 0x44
 800539c:	684a      	ldr	r2, [r1, #4]
 800539e:	f5b4 1f80 	cmp.w	r4, #1048576	; 0x100000
 80053a2:	f422 1280 	bic.w	r2, r2, #1048576	; 0x100000
 80053a6:	ea42 0204 	orr.w	r2, r2, r4
 80053aa:	604a      	str	r2, [r1, #4]
 80053ac:	d00b      	beq.n	80053c6 <UART_AdvFeatureConfig+0xa2>
 80053ae:	061b      	lsls	r3, r3, #24
 80053b0:	d506      	bpl.n	80053c0 <UART_AdvFeatureConfig+0x9c>
 80053b2:	6802      	ldr	r2, [r0, #0]
 80053b4:	6cc1      	ldr	r1, [r0, #76]	; 0x4c
 80053b6:	6853      	ldr	r3, [r2, #4]
 80053b8:	f423 2300 	bic.w	r3, r3, #524288	; 0x80000
 80053bc:	430b      	orrs	r3, r1
 80053be:	6053      	str	r3, [r2, #4]
 80053c0:	f85d 4b04 	ldr.w	r4, [sp], #4
 80053c4:	4770      	bx	lr
 80053c6:	684a      	ldr	r2, [r1, #4]
 80053c8:	6c84      	ldr	r4, [r0, #72]	; 0x48
 80053ca:	f422 02c0 	bic.w	r2, r2, #6291456	; 0x600000
 80053ce:	4322      	orrs	r2, r4
 80053d0:	604a      	str	r2, [r1, #4]
 80053d2:	e7ec      	b.n	80053ae <UART_AdvFeatureConfig+0x8a>

080053d4 <UART_WaitOnFlagUntilTimeout>:
 80053d4:	e92d 43f8 	stmdb	sp!, {r3, r4, r5, r6, r7, r8, r9, lr}
 80053d8:	4607      	mov	r7, r0
 80053da:	460e      	mov	r6, r1
 80053dc:	4615      	mov	r5, r2
 80053de:	4699      	mov	r9, r3
 80053e0:	f8dd 8020 	ldr.w	r8, [sp, #32]
 80053e4:	6804      	ldr	r4, [r0, #0]
 80053e6:	f1b8 3fff 	cmp.w	r8, #4294967295
 80053ea:	d10a      	bne.n	8005402 <UART_WaitOnFlagUntilTimeout+0x2e>
 80053ec:	69e3      	ldr	r3, [r4, #28]
 80053ee:	ea36 0303 	bics.w	r3, r6, r3
 80053f2:	bf0c      	ite	eq
 80053f4:	2301      	moveq	r3, #1
 80053f6:	2300      	movne	r3, #0
 80053f8:	429d      	cmp	r5, r3
 80053fa:	d0f7      	beq.n	80053ec <UART_WaitOnFlagUntilTimeout+0x18>
 80053fc:	2000      	movs	r0, #0
 80053fe:	e8bd 83f8 	ldmia.w	sp!, {r3, r4, r5, r6, r7, r8, r9, pc}
 8005402:	69e3      	ldr	r3, [r4, #28]
 8005404:	ea36 0303 	bics.w	r3, r6, r3
 8005408:	bf0c      	ite	eq
 800540a:	2301      	moveq	r3, #1
 800540c:	2300      	movne	r3, #0
 800540e:	42ab      	cmp	r3, r5
 8005410:	d1f4      	bne.n	80053fc <UART_WaitOnFlagUntilTimeout+0x28>
 8005412:	f7fb fe45 	bl	80010a0 <HAL_GetTick>
 8005416:	eba0 0009 	sub.w	r0, r0, r9
 800541a:	4540      	cmp	r0, r8
 800541c:	d833      	bhi.n	8005486 <UART_WaitOnFlagUntilTimeout+0xb2>
 800541e:	f1b8 0f00 	cmp.w	r8, #0
 8005422:	d030      	beq.n	8005486 <UART_WaitOnFlagUntilTimeout+0xb2>
 8005424:	683c      	ldr	r4, [r7, #0]
 8005426:	6823      	ldr	r3, [r4, #0]
 8005428:	4622      	mov	r2, r4
 800542a:	0759      	lsls	r1, r3, #29
 800542c:	d5db      	bpl.n	80053e6 <UART_WaitOnFlagUntilTimeout+0x12>
 800542e:	69e3      	ldr	r3, [r4, #28]
 8005430:	051b      	lsls	r3, r3, #20
 8005432:	d5d8      	bpl.n	80053e6 <UART_WaitOnFlagUntilTimeout+0x12>
 8005434:	f44f 6300 	mov.w	r3, #2048	; 0x800
 8005438:	6223      	str	r3, [r4, #32]
 800543a:	e854 3f00 	ldrex	r3, [r4]
 800543e:	f423 73d0 	bic.w	r3, r3, #416	; 0x1a0
 8005442:	e844 3100 	strex	r1, r3, [r4]
 8005446:	b139      	cbz	r1, 8005458 <UART_WaitOnFlagUntilTimeout+0x84>
 8005448:	e852 3f00 	ldrex	r3, [r2]
 800544c:	f423 73d0 	bic.w	r3, r3, #416	; 0x1a0
 8005450:	e842 3100 	strex	r1, r3, [r2]
 8005454:	2900      	cmp	r1, #0
 8005456:	d1f7      	bne.n	8005448 <UART_WaitOnFlagUntilTimeout+0x74>
 8005458:	f102 0308 	add.w	r3, r2, #8
 800545c:	e853 3f00 	ldrex	r3, [r3]
 8005460:	f023 0301 	bic.w	r3, r3, #1
 8005464:	f102 0008 	add.w	r0, r2, #8
 8005468:	e840 3100 	strex	r1, r3, [r0]
 800546c:	2900      	cmp	r1, #0
 800546e:	d1f3      	bne.n	8005458 <UART_WaitOnFlagUntilTimeout+0x84>
 8005470:	2320      	movs	r3, #32
 8005472:	2003      	movs	r0, #3
 8005474:	f8c7 3084 	str.w	r3, [r7, #132]	; 0x84
 8005478:	f887 1080 	strb.w	r1, [r7, #128]	; 0x80
 800547c:	f8c7 3088 	str.w	r3, [r7, #136]	; 0x88
 8005480:	f8c7 308c 	str.w	r3, [r7, #140]	; 0x8c
 8005484:	e7bb      	b.n	80053fe <UART_WaitOnFlagUntilTimeout+0x2a>
 8005486:	683a      	ldr	r2, [r7, #0]
 8005488:	e852 3f00 	ldrex	r3, [r2]
 800548c:	f423 73d0 	bic.w	r3, r3, #416	; 0x1a0
 8005490:	e842 3100 	strex	r1, r3, [r2]
 8005494:	2900      	cmp	r1, #0
 8005496:	d1f7      	bne.n	8005488 <UART_WaitOnFlagUntilTimeout+0xb4>
 8005498:	f102 0308 	add.w	r3, r2, #8
 800549c:	e853 3f00 	ldrex	r3, [r3]
 80054a0:	f023 0301 	bic.w	r3, r3, #1
 80054a4:	f102 0008 	add.w	r0, r2, #8
 80054a8:	e840 3100 	strex	r1, r3, [r0]
 80054ac:	2900      	cmp	r1, #0
 80054ae:	d1f3      	bne.n	8005498 <UART_WaitOnFlagUntilTimeout+0xc4>
 80054b0:	2320      	movs	r3, #32
 80054b2:	2003      	movs	r0, #3
 80054b4:	f8c7 3084 	str.w	r3, [r7, #132]	; 0x84
 80054b8:	f887 1080 	strb.w	r1, [r7, #128]	; 0x80
 80054bc:	f8c7 3088 	str.w	r3, [r7, #136]	; 0x88
 80054c0:	e79d      	b.n	80053fe <UART_WaitOnFlagUntilTimeout+0x2a>
 80054c2:	bf00      	nop

080054c4 <HAL_UART_Init>:
 80054c4:	2800      	cmp	r0, #0
 80054c6:	d066      	beq.n	8005596 <HAL_UART_Init+0xd2>
 80054c8:	b5f0      	push	{r4, r5, r6, r7, lr}
 80054ca:	f8d0 3084 	ldr.w	r3, [r0, #132]	; 0x84
 80054ce:	4604      	mov	r4, r0
 80054d0:	b083      	sub	sp, #12
 80054d2:	2b00      	cmp	r3, #0
 80054d4:	d04c      	beq.n	8005570 <HAL_UART_Init+0xac>
 80054d6:	2324      	movs	r3, #36	; 0x24
 80054d8:	6822      	ldr	r2, [r4, #0]
 80054da:	f8c4 3084 	str.w	r3, [r4, #132]	; 0x84
 80054de:	6813      	ldr	r3, [r2, #0]
 80054e0:	4620      	mov	r0, r4
 80054e2:	f023 0301 	bic.w	r3, r3, #1
 80054e6:	6013      	str	r3, [r2, #0]
 80054e8:	f7ff fe2e 	bl	8005148 <UART_SetConfig>
 80054ec:	2801      	cmp	r0, #1
 80054ee:	d03c      	beq.n	800556a <HAL_UART_Init+0xa6>
 80054f0:	6aa3      	ldr	r3, [r4, #40]	; 0x28
 80054f2:	2b00      	cmp	r3, #0
 80054f4:	d135      	bne.n	8005562 <HAL_UART_Init+0x9e>
 80054f6:	2500      	movs	r5, #0
 80054f8:	6823      	ldr	r3, [r4, #0]
 80054fa:	6859      	ldr	r1, [r3, #4]
 80054fc:	f421 4190 	bic.w	r1, r1, #18432	; 0x4800
 8005500:	6059      	str	r1, [r3, #4]
 8005502:	6899      	ldr	r1, [r3, #8]
 8005504:	f021 012a 	bic.w	r1, r1, #42	; 0x2a
 8005508:	6099      	str	r1, [r3, #8]
 800550a:	6819      	ldr	r1, [r3, #0]
 800550c:	f041 0101 	orr.w	r1, r1, #1
 8005510:	6019      	str	r1, [r3, #0]
 8005512:	f8c4 508c 	str.w	r5, [r4, #140]	; 0x8c
 8005516:	f7fb fdc3 	bl	80010a0 <HAL_GetTick>
 800551a:	6823      	ldr	r3, [r4, #0]
 800551c:	4606      	mov	r6, r0
 800551e:	681a      	ldr	r2, [r3, #0]
 8005520:	0712      	lsls	r2, r2, #28
 8005522:	d40e      	bmi.n	8005542 <HAL_UART_Init+0x7e>
 8005524:	681b      	ldr	r3, [r3, #0]
 8005526:	075b      	lsls	r3, r3, #29
 8005528:	d427      	bmi.n	800557a <HAL_UART_Init+0xb6>
 800552a:	2300      	movs	r3, #0
 800552c:	2220      	movs	r2, #32
 800552e:	4618      	mov	r0, r3
 8005530:	f8c4 2084 	str.w	r2, [r4, #132]	; 0x84
 8005534:	f884 3080 	strb.w	r3, [r4, #128]	; 0x80
 8005538:	f8c4 2088 	str.w	r2, [r4, #136]	; 0x88
 800553c:	66e3      	str	r3, [r4, #108]	; 0x6c
 800553e:	b003      	add	sp, #12
 8005540:	bdf0      	pop	{r4, r5, r6, r7, pc}
 8005542:	f06f 477e 	mvn.w	r7, #4261412864	; 0xfe000000
 8005546:	4603      	mov	r3, r0
 8005548:	462a      	mov	r2, r5
 800554a:	f44f 1100 	mov.w	r1, #2097152	; 0x200000
 800554e:	4620      	mov	r0, r4
 8005550:	9700      	str	r7, [sp, #0]
 8005552:	f7ff ff3f 	bl	80053d4 <UART_WaitOnFlagUntilTimeout>
 8005556:	b9e0      	cbnz	r0, 8005592 <HAL_UART_Init+0xce>
 8005558:	6823      	ldr	r3, [r4, #0]
 800555a:	681b      	ldr	r3, [r3, #0]
 800555c:	075b      	lsls	r3, r3, #29
 800555e:	d40c      	bmi.n	800557a <HAL_UART_Init+0xb6>
 8005560:	e7e3      	b.n	800552a <HAL_UART_Init+0x66>
 8005562:	4620      	mov	r0, r4
 8005564:	f7ff fede 	bl	8005324 <UART_AdvFeatureConfig>
 8005568:	e7c5      	b.n	80054f6 <HAL_UART_Init+0x32>
 800556a:	2001      	movs	r0, #1
 800556c:	b003      	add	sp, #12
 800556e:	bdf0      	pop	{r4, r5, r6, r7, pc}
 8005570:	f880 3080 	strb.w	r3, [r0, #128]	; 0x80
 8005574:	f7fb fbbc 	bl	8000cf0 <HAL_UART_MspInit>
 8005578:	e7ad      	b.n	80054d6 <HAL_UART_Init+0x12>
 800557a:	f06f 457e 	mvn.w	r5, #4261412864	; 0xfe000000
 800557e:	4633      	mov	r3, r6
 8005580:	2200      	movs	r2, #0
 8005582:	f44f 0180 	mov.w	r1, #4194304	; 0x400000
 8005586:	4620      	mov	r0, r4
 8005588:	9500      	str	r5, [sp, #0]
 800558a:	f7ff ff23 	bl	80053d4 <UART_WaitOnFlagUntilTimeout>
 800558e:	2800      	cmp	r0, #0
 8005590:	d0cb      	beq.n	800552a <HAL_UART_Init+0x66>
 8005592:	2003      	movs	r0, #3
 8005594:	e7d3      	b.n	800553e <HAL_UART_Init+0x7a>
 8005596:	2001      	movs	r0, #1
 8005598:	4770      	bx	lr
 800559a:	bf00      	nop

0800559c <HAL_UARTEx_DisableFifoMode>:
 800559c:	f890 2080 	ldrb.w	r2, [r0, #128]	; 0x80
 80055a0:	2a01      	cmp	r2, #1
 80055a2:	d017      	beq.n	80055d4 <HAL_UARTEx_DisableFifoMode+0x38>
 80055a4:	4603      	mov	r3, r0
 80055a6:	2024      	movs	r0, #36	; 0x24
 80055a8:	2100      	movs	r1, #0
 80055aa:	b430      	push	{r4, r5}
 80055ac:	2520      	movs	r5, #32
 80055ae:	681a      	ldr	r2, [r3, #0]
 80055b0:	f8c3 0084 	str.w	r0, [r3, #132]	; 0x84
 80055b4:	6810      	ldr	r0, [r2, #0]
 80055b6:	6814      	ldr	r4, [r2, #0]
 80055b8:	f020 5000 	bic.w	r0, r0, #536870912	; 0x20000000
 80055bc:	f024 0401 	bic.w	r4, r4, #1
 80055c0:	6014      	str	r4, [r2, #0]
 80055c2:	6659      	str	r1, [r3, #100]	; 0x64
 80055c4:	6010      	str	r0, [r2, #0]
 80055c6:	f883 1080 	strb.w	r1, [r3, #128]	; 0x80
 80055ca:	4608      	mov	r0, r1
 80055cc:	f8c3 5084 	str.w	r5, [r3, #132]	; 0x84
 80055d0:	bc30      	pop	{r4, r5}
 80055d2:	4770      	bx	lr
 80055d4:	2002      	movs	r0, #2
 80055d6:	4770      	bx	lr

080055d8 <HAL_UARTEx_SetTxFifoThreshold>:
 80055d8:	f890 2080 	ldrb.w	r2, [r0, #128]	; 0x80
 80055dc:	2a01      	cmp	r2, #1
 80055de:	d037      	beq.n	8005650 <HAL_UARTEx_SetTxFifoThreshold+0x78>
 80055e0:	4603      	mov	r3, r0
 80055e2:	2024      	movs	r0, #36	; 0x24
 80055e4:	681a      	ldr	r2, [r3, #0]
 80055e6:	b530      	push	{r4, r5, lr}
 80055e8:	f8c3 0084 	str.w	r0, [r3, #132]	; 0x84
 80055ec:	6814      	ldr	r4, [r2, #0]
 80055ee:	6810      	ldr	r0, [r2, #0]
 80055f0:	6e5d      	ldr	r5, [r3, #100]	; 0x64
 80055f2:	f020 0001 	bic.w	r0, r0, #1
 80055f6:	6010      	str	r0, [r2, #0]
 80055f8:	6890      	ldr	r0, [r2, #8]
 80055fa:	f020 4060 	bic.w	r0, r0, #3758096384	; 0xe0000000
 80055fe:	4301      	orrs	r1, r0
 8005600:	6091      	str	r1, [r2, #8]
 8005602:	b315      	cbz	r5, 800564a <HAL_UARTEx_SetTxFifoThreshold+0x72>
 8005604:	6891      	ldr	r1, [r2, #8]
 8005606:	6890      	ldr	r0, [r2, #8]
 8005608:	f3c1 6c42 	ubfx	ip, r1, #25, #3
 800560c:	4911      	ldr	r1, [pc, #68]	; (8005654 <HAL_UARTEx_SetTxFifoThreshold+0x7c>)
 800560e:	4d12      	ldr	r5, [pc, #72]	; (8005658 <HAL_UARTEx_SetTxFifoThreshold+0x80>)
 8005610:	ea4f 7e50 	mov.w	lr, r0, lsr #29
 8005614:	f811 000e 	ldrb.w	r0, [r1, lr]
 8005618:	f811 100c 	ldrb.w	r1, [r1, ip]
 800561c:	f815 e00e 	ldrb.w	lr, [r5, lr]
 8005620:	f815 500c 	ldrb.w	r5, [r5, ip]
 8005624:	00c0      	lsls	r0, r0, #3
 8005626:	00c9      	lsls	r1, r1, #3
 8005628:	fbb0 f0fe 	udiv	r0, r0, lr
 800562c:	fbb1 f1f5 	udiv	r1, r1, r5
 8005630:	f8a3 1068 	strh.w	r1, [r3, #104]	; 0x68
 8005634:	2100      	movs	r1, #0
 8005636:	2520      	movs	r5, #32
 8005638:	f8a3 006a 	strh.w	r0, [r3, #106]	; 0x6a
 800563c:	6014      	str	r4, [r2, #0]
 800563e:	f883 1080 	strb.w	r1, [r3, #128]	; 0x80
 8005642:	4608      	mov	r0, r1
 8005644:	f8c3 5084 	str.w	r5, [r3, #132]	; 0x84
 8005648:	bd30      	pop	{r4, r5, pc}
 800564a:	2101      	movs	r1, #1
 800564c:	4608      	mov	r0, r1
 800564e:	e7ef      	b.n	8005630 <HAL_UARTEx_SetTxFifoThreshold+0x58>
 8005650:	2002      	movs	r0, #2
 8005652:	4770      	bx	lr
 8005654:	080061ec 	.word	0x080061ec
 8005658:	080061e4 	.word	0x080061e4

0800565c <HAL_UARTEx_SetRxFifoThreshold>:
 800565c:	f890 2080 	ldrb.w	r2, [r0, #128]	; 0x80
 8005660:	2a01      	cmp	r2, #1
 8005662:	d037      	beq.n	80056d4 <HAL_UARTEx_SetRxFifoThreshold+0x78>
 8005664:	4603      	mov	r3, r0
 8005666:	2024      	movs	r0, #36	; 0x24
 8005668:	681a      	ldr	r2, [r3, #0]
 800566a:	b530      	push	{r4, r5, lr}
 800566c:	f8c3 0084 	str.w	r0, [r3, #132]	; 0x84
 8005670:	6814      	ldr	r4, [r2, #0]
 8005672:	6810      	ldr	r0, [r2, #0]
 8005674:	6e5d      	ldr	r5, [r3, #100]	; 0x64
 8005676:	f020 0001 	bic.w	r0, r0, #1
 800567a:	6010      	str	r0, [r2, #0]
 800567c:	6890      	ldr	r0, [r2, #8]
 800567e:	f020 6060 	bic.w	r0, r0, #234881024	; 0xe000000
 8005682:	4301      	orrs	r1, r0
 8005684:	6091      	str	r1, [r2, #8]
 8005686:	b315      	cbz	r5, 80056ce <HAL_UARTEx_SetRxFifoThreshold+0x72>
 8005688:	6891      	ldr	r1, [r2, #8]
 800568a:	6890      	ldr	r0, [r2, #8]
 800568c:	f3c1 6c42 	ubfx	ip, r1, #25, #3
 8005690:	4911      	ldr	r1, [pc, #68]	; (80056d8 <HAL_UARTEx_SetRxFifoThreshold+0x7c>)
 8005692:	4d12      	ldr	r5, [pc, #72]	; (80056dc <HAL_UARTEx_SetRxFifoThreshold+0x80>)
 8005694:	ea4f 7e50 	mov.w	lr, r0, lsr #29
 8005698:	f811 000e 	ldrb.w	r0, [r1, lr]
 800569c:	f811 100c 	ldrb.w	r1, [r1, ip]
 80056a0:	f815 e00e 	ldrb.w	lr, [r5, lr]
 80056a4:	f815 500c 	ldrb.w	r5, [r5, ip]
 80056a8:	00c0      	lsls	r0, r0, #3
 80056aa:	00c9      	lsls	r1, r1, #3
 80056ac:	fbb0 f0fe 	udiv	r0, r0, lr
 80056b0:	fbb1 f1f5 	udiv	r1, r1, r5
 80056b4:	f8a3 1068 	strh.w	r1, [r3, #104]	; 0x68
 80056b8:	2100      	movs	r1, #0
 80056ba:	2520      	movs	r5, #32
 80056bc:	f8a3 006a 	strh.w	r0, [r3, #106]	; 0x6a
 80056c0:	6014      	str	r4, [r2, #0]
 80056c2:	f883 1080 	strb.w	r1, [r3, #128]	; 0x80
 80056c6:	4608      	mov	r0, r1
 80056c8:	f8c3 5084 	str.w	r5, [r3, #132]	; 0x84
 80056cc:	bd30      	pop	{r4, r5, pc}
 80056ce:	2101      	movs	r1, #1
 80056d0:	4608      	mov	r0, r1
 80056d2:	e7ef      	b.n	80056b4 <HAL_UARTEx_SetRxFifoThreshold+0x58>
 80056d4:	2002      	movs	r0, #2
 80056d6:	4770      	bx	lr
 80056d8:	080061ec 	.word	0x080061ec
 80056dc:	080061e4 	.word	0x080061e4

080056e0 <FMC_NORSRAM_Init>:
 80056e0:	688b      	ldr	r3, [r1, #8]
 80056e2:	b4f0      	push	{r4, r5, r6, r7}
 80056e4:	2b08      	cmp	r3, #8
 80056e6:	684c      	ldr	r4, [r1, #4]
 80056e8:	bf0c      	ite	eq
 80056ea:	f04f 0c40 	moveq.w	ip, #64	; 0x40
 80056ee:	f04f 0c00 	movne.w	ip, #0
 80056f2:	4323      	orrs	r3, r4
 80056f4:	68cc      	ldr	r4, [r1, #12]
 80056f6:	680a      	ldr	r2, [r1, #0]
 80056f8:	4323      	orrs	r3, r4
 80056fa:	690c      	ldr	r4, [r1, #16]
 80056fc:	6b0d      	ldr	r5, [r1, #48]	; 0x30
 80056fe:	4323      	orrs	r3, r4
 8005700:	694c      	ldr	r4, [r1, #20]
 8005702:	6bcf      	ldr	r7, [r1, #60]	; 0x3c
 8005704:	4323      	orrs	r3, r4
 8005706:	698c      	ldr	r4, [r1, #24]
 8005708:	4e33      	ldr	r6, [pc, #204]	; (80057d8 <FMC_NORSRAM_Init+0xf8>)
 800570a:	4323      	orrs	r3, r4
 800570c:	69cc      	ldr	r4, [r1, #28]
 800570e:	f5b5 1f80 	cmp.w	r5, #1048576	; 0x100000
 8005712:	ea43 0304 	orr.w	r3, r3, r4
 8005716:	6a0c      	ldr	r4, [r1, #32]
 8005718:	ea43 0304 	orr.w	r3, r3, r4
 800571c:	6a4c      	ldr	r4, [r1, #36]	; 0x24
 800571e:	ea43 0304 	orr.w	r3, r3, r4
 8005722:	6a8c      	ldr	r4, [r1, #40]	; 0x28
 8005724:	ea43 0304 	orr.w	r3, r3, r4
 8005728:	f850 4022 	ldr.w	r4, [r0, r2, lsl #2]
 800572c:	f024 0401 	bic.w	r4, r4, #1
 8005730:	f840 4022 	str.w	r4, [r0, r2, lsl #2]
 8005734:	6acc      	ldr	r4, [r1, #44]	; 0x2c
 8005736:	ea43 0304 	orr.w	r3, r3, r4
 800573a:	6b4c      	ldr	r4, [r1, #52]	; 0x34
 800573c:	ea43 0305 	orr.w	r3, r3, r5
 8005740:	ea43 0304 	orr.w	r3, r3, r4
 8005744:	ea43 0307 	orr.w	r3, r3, r7
 8005748:	f850 7022 	ldr.w	r7, [r0, r2, lsl #2]
 800574c:	ea06 0607 	and.w	r6, r6, r7
 8005750:	6b8f      	ldr	r7, [r1, #56]	; 0x38
 8005752:	ea43 0307 	orr.w	r3, r3, r7
 8005756:	ea43 0306 	orr.w	r3, r3, r6
 800575a:	ea43 030c 	orr.w	r3, r3, ip
 800575e:	f840 3022 	str.w	r3, [r0, r2, lsl #2]
 8005762:	d01a      	beq.n	800579a <FMC_NORSRAM_Init+0xba>
 8005764:	b1d2      	cbz	r2, 800579c <FMC_NORSRAM_Init+0xbc>
 8005766:	6803      	ldr	r3, [r0, #0]
 8005768:	431c      	orrs	r4, r3
 800576a:	6004      	str	r4, [r0, #0]
 800576c:	f891 3040 	ldrb.w	r3, [r1, #64]	; 0x40
 8005770:	2b01      	cmp	r3, #1
 8005772:	d10f      	bne.n	8005794 <FMC_NORSRAM_Init+0xb4>
 8005774:	6a03      	ldr	r3, [r0, #32]
 8005776:	6c49      	ldr	r1, [r1, #68]	; 0x44
 8005778:	0c1b      	lsrs	r3, r3, #16
 800577a:	041b      	lsls	r3, r3, #16
 800577c:	430b      	orrs	r3, r1
 800577e:	2a04      	cmp	r2, #4
 8005780:	6203      	str	r3, [r0, #32]
 8005782:	d024      	beq.n	80057ce <FMC_NORSRAM_Init+0xee>
 8005784:	d81e      	bhi.n	80057c4 <FMC_NORSRAM_Init+0xe4>
 8005786:	b19a      	cbz	r2, 80057b0 <FMC_NORSRAM_Init+0xd0>
 8005788:	2a02      	cmp	r2, #2
 800578a:	d11b      	bne.n	80057c4 <FMC_NORSRAM_Init+0xe4>
 800578c:	6a03      	ldr	r3, [r0, #32]
 800578e:	f443 3300 	orr.w	r3, r3, #131072	; 0x20000
 8005792:	6203      	str	r3, [r0, #32]
 8005794:	2000      	movs	r0, #0
 8005796:	bcf0      	pop	{r4, r5, r6, r7}
 8005798:	4770      	bx	lr
 800579a:	b972      	cbnz	r2, 80057ba <FMC_NORSRAM_Init+0xda>
 800579c:	f891 3040 	ldrb.w	r3, [r1, #64]	; 0x40
 80057a0:	2b01      	cmp	r3, #1
 80057a2:	d1f7      	bne.n	8005794 <FMC_NORSRAM_Init+0xb4>
 80057a4:	6a03      	ldr	r3, [r0, #32]
 80057a6:	6c4a      	ldr	r2, [r1, #68]	; 0x44
 80057a8:	0c1b      	lsrs	r3, r3, #16
 80057aa:	041b      	lsls	r3, r3, #16
 80057ac:	4313      	orrs	r3, r2
 80057ae:	6203      	str	r3, [r0, #32]
 80057b0:	6a03      	ldr	r3, [r0, #32]
 80057b2:	f443 3380 	orr.w	r3, r3, #65536	; 0x10000
 80057b6:	6203      	str	r3, [r0, #32]
 80057b8:	e7ec      	b.n	8005794 <FMC_NORSRAM_Init+0xb4>
 80057ba:	6803      	ldr	r3, [r0, #0]
 80057bc:	f443 1380 	orr.w	r3, r3, #1048576	; 0x100000
 80057c0:	6003      	str	r3, [r0, #0]
 80057c2:	e7d0      	b.n	8005766 <FMC_NORSRAM_Init+0x86>
 80057c4:	6a03      	ldr	r3, [r0, #32]
 80057c6:	f443 2300 	orr.w	r3, r3, #524288	; 0x80000
 80057ca:	6203      	str	r3, [r0, #32]
 80057cc:	e7e2      	b.n	8005794 <FMC_NORSRAM_Init+0xb4>
 80057ce:	6a03      	ldr	r3, [r0, #32]
 80057d0:	f443 2380 	orr.w	r3, r3, #262144	; 0x40000
 80057d4:	6203      	str	r3, [r0, #32]
 80057d6:	e7dd      	b.n	8005794 <FMC_NORSRAM_Init+0xb4>
 80057d8:	ff000480 	.word	0xff000480

080057dc <FMC_NORSRAM_Timing_Init>:
 80057dc:	694b      	ldr	r3, [r1, #20]
 80057de:	eb00 0282 	add.w	r2, r0, r2, lsl #2
 80057e2:	b510      	push	{r4, lr}
 80057e4:	f103 3cff 	add.w	ip, r3, #4294967295
 80057e8:	69cc      	ldr	r4, [r1, #28]
 80057ea:	6853      	ldr	r3, [r2, #4]
 80057ec:	680b      	ldr	r3, [r1, #0]
 80057ee:	4323      	orrs	r3, r4
 80057f0:	684c      	ldr	r4, [r1, #4]
 80057f2:	ea43 1304 	orr.w	r3, r3, r4, lsl #4
 80057f6:	688c      	ldr	r4, [r1, #8]
 80057f8:	ea43 2304 	orr.w	r3, r3, r4, lsl #8
 80057fc:	68cc      	ldr	r4, [r1, #12]
 80057fe:	ea43 7384 	orr.w	r3, r3, r4, lsl #30
 8005802:	690c      	ldr	r4, [r1, #16]
 8005804:	6989      	ldr	r1, [r1, #24]
 8005806:	ea43 4304 	orr.w	r3, r3, r4, lsl #16
 800580a:	ea43 530c 	orr.w	r3, r3, ip, lsl #20
 800580e:	3902      	subs	r1, #2
 8005810:	ea43 6301 	orr.w	r3, r3, r1, lsl #24
 8005814:	6053      	str	r3, [r2, #4]
 8005816:	6803      	ldr	r3, [r0, #0]
 8005818:	02db      	lsls	r3, r3, #11
 800581a:	d50c      	bpl.n	8005836 <FMC_NORSRAM_Timing_Init+0x5a>
 800581c:	6842      	ldr	r2, [r0, #4]
 800581e:	6843      	ldr	r3, [r0, #4]
 8005820:	ea4f 5e0c 	mov.w	lr, ip, lsl #20
 8005824:	f422 0270 	bic.w	r2, r2, #15728640	; 0xf00000
 8005828:	f423 0370 	bic.w	r3, r3, #15728640	; 0xf00000
 800582c:	ea4e 0e02 	orr.w	lr, lr, r2
 8005830:	ea43 030e 	orr.w	r3, r3, lr
 8005834:	6043      	str	r3, [r0, #4]
 8005836:	2000      	movs	r0, #0
 8005838:	bd10      	pop	{r4, pc}
 800583a:	bf00      	nop

0800583c <FMC_NORSRAM_Extended_Timing_Init>:
 800583c:	f5b3 4f80 	cmp.w	r3, #16384	; 0x4000
 8005840:	d005      	beq.n	800584e <FMC_NORSRAM_Extended_Timing_Init+0x12>
 8005842:	f06f 4370 	mvn.w	r3, #4026531840	; 0xf0000000
 8005846:	f840 3022 	str.w	r3, [r0, r2, lsl #2]
 800584a:	2000      	movs	r0, #0
 800584c:	4770      	bx	lr
 800584e:	b430      	push	{r4, r5}
 8005850:	f850 4022 	ldr.w	r4, [r0, r2, lsl #2]
 8005854:	69cd      	ldr	r5, [r1, #28]
 8005856:	680b      	ldr	r3, [r1, #0]
 8005858:	f004 6c7f 	and.w	ip, r4, #267386880	; 0xff00000
 800585c:	684c      	ldr	r4, [r1, #4]
 800585e:	432b      	orrs	r3, r5
 8005860:	ea43 1304 	orr.w	r3, r3, r4, lsl #4
 8005864:	688c      	ldr	r4, [r1, #8]
 8005866:	ea43 2304 	orr.w	r3, r3, r4, lsl #8
 800586a:	68cc      	ldr	r4, [r1, #12]
 800586c:	6909      	ldr	r1, [r1, #16]
 800586e:	ea43 7384 	orr.w	r3, r3, r4, lsl #30
 8005872:	ea43 4301 	orr.w	r3, r3, r1, lsl #16
 8005876:	ea43 030c 	orr.w	r3, r3, ip
 800587a:	f840 3022 	str.w	r3, [r0, r2, lsl #2]
 800587e:	bc30      	pop	{r4, r5}
 8005880:	2000      	movs	r0, #0
 8005882:	4770      	bx	lr

08005884 <LL_GPIO_Init>:
 8005884:	e92d 47f0 	stmdb	sp!, {r4, r5, r6, r7, r8, r9, sl, lr}
 8005888:	680c      	ldr	r4, [r1, #0]
 800588a:	fa94 fca4 	rbit	ip, r4
 800588e:	fabc fc8c 	clz	ip, ip
 8005892:	fa34 f30c 	lsrs.w	r3, r4, ip
 8005896:	f000 80bc 	beq.w	8005a12 <LL_GPIO_Init+0x18e>
 800589a:	684d      	ldr	r5, [r1, #4]
 800589c:	f04f 0e01 	mov.w	lr, #1
 80058a0:	f04f 080f 	mov.w	r8, #15
 80058a4:	2603      	movs	r6, #3
 80058a6:	1e6f      	subs	r7, r5, #1
 80058a8:	e020      	b.n	80058ec <LL_GPIO_Init+0x68>
 80058aa:	f8d1 9010 	ldr.w	r9, [r1, #16]
 80058ae:	f8d0 a00c 	ldr.w	sl, [r0, #12]
 80058b2:	fa93 f2a3 	rbit	r2, r3
 80058b6:	b132      	cbz	r2, 80058c6 <LL_GPIO_Init+0x42>
 80058b8:	fab2 f282 	clz	r2, r2
 80058bc:	0052      	lsls	r2, r2, #1
 80058be:	fa06 f202 	lsl.w	r2, r6, r2
 80058c2:	ea2a 0a02 	bic.w	sl, sl, r2
 80058c6:	fa93 f2a3 	rbit	r2, r3
 80058ca:	2a00      	cmp	r2, #0
 80058cc:	d07c      	beq.n	80059c8 <LL_GPIO_Init+0x144>
 80058ce:	fab2 f282 	clz	r2, r2
 80058d2:	0052      	lsls	r2, r2, #1
 80058d4:	fa09 f202 	lsl.w	r2, r9, r2
 80058d8:	ea42 020a 	orr.w	r2, r2, sl
 80058dc:	2d02      	cmp	r5, #2
 80058de:	60c2      	str	r2, [r0, #12]
 80058e0:	d03d      	beq.n	800595e <LL_GPIO_Init+0xda>
 80058e2:	f10c 0c01 	add.w	ip, ip, #1
 80058e6:	fa34 f30c 	lsrs.w	r3, r4, ip
 80058ea:	d05e      	beq.n	80059aa <LL_GPIO_Init+0x126>
 80058ec:	fa0e f30c 	lsl.w	r3, lr, ip
 80058f0:	4023      	ands	r3, r4
 80058f2:	d0f6      	beq.n	80058e2 <LL_GPIO_Init+0x5e>
 80058f4:	f8d0 9000 	ldr.w	r9, [r0]
 80058f8:	fa93 f2a3 	rbit	r2, r3
 80058fc:	b132      	cbz	r2, 800590c <LL_GPIO_Init+0x88>
 80058fe:	fab2 f282 	clz	r2, r2
 8005902:	0052      	lsls	r2, r2, #1
 8005904:	fa06 f202 	lsl.w	r2, r6, r2
 8005908:	ea29 0902 	bic.w	r9, r9, r2
 800590c:	fa93 f2a3 	rbit	r2, r3
 8005910:	2a00      	cmp	r2, #0
 8005912:	d057      	beq.n	80059c4 <LL_GPIO_Init+0x140>
 8005914:	fab2 f282 	clz	r2, r2
 8005918:	0052      	lsls	r2, r2, #1
 800591a:	fa05 f202 	lsl.w	r2, r5, r2
 800591e:	ea42 0209 	orr.w	r2, r2, r9
 8005922:	2f01      	cmp	r7, #1
 8005924:	6002      	str	r2, [r0, #0]
 8005926:	d8c0      	bhi.n	80058aa <LL_GPIO_Init+0x26>
 8005928:	f8d1 9008 	ldr.w	r9, [r1, #8]
 800592c:	f8d0 a008 	ldr.w	sl, [r0, #8]
 8005930:	fa93 f2a3 	rbit	r2, r3
 8005934:	b132      	cbz	r2, 8005944 <LL_GPIO_Init+0xc0>
 8005936:	fab2 f282 	clz	r2, r2
 800593a:	0052      	lsls	r2, r2, #1
 800593c:	fa06 f202 	lsl.w	r2, r6, r2
 8005940:	ea2a 0a02 	bic.w	sl, sl, r2
 8005944:	fa93 f2a3 	rbit	r2, r3
 8005948:	2a00      	cmp	r2, #0
 800594a:	d05c      	beq.n	8005a06 <LL_GPIO_Init+0x182>
 800594c:	fab2 f282 	clz	r2, r2
 8005950:	0052      	lsls	r2, r2, #1
 8005952:	fa09 f202 	lsl.w	r2, r9, r2
 8005956:	ea42 020a 	orr.w	r2, r2, sl
 800595a:	6082      	str	r2, [r0, #8]
 800595c:	e7a5      	b.n	80058aa <LL_GPIO_Init+0x26>
 800595e:	fa93 f2a3 	rbit	r2, r3
 8005962:	b39a      	cbz	r2, 80059cc <LL_GPIO_Init+0x148>
 8005964:	fab2 f282 	clz	r2, r2
 8005968:	2a07      	cmp	r2, #7
 800596a:	dc2f      	bgt.n	80059cc <LL_GPIO_Init+0x148>
 800596c:	f8d1 9014 	ldr.w	r9, [r1, #20]
 8005970:	f8d0 a020 	ldr.w	sl, [r0, #32]
 8005974:	fa93 f2a3 	rbit	r2, r3
 8005978:	b132      	cbz	r2, 8005988 <LL_GPIO_Init+0x104>
 800597a:	fab2 f282 	clz	r2, r2
 800597e:	0092      	lsls	r2, r2, #2
 8005980:	fa08 f202 	lsl.w	r2, r8, r2
 8005984:	ea2a 0a02 	bic.w	sl, sl, r2
 8005988:	fa93 f3a3 	rbit	r3, r3
 800598c:	2b00      	cmp	r3, #0
 800598e:	d03c      	beq.n	8005a0a <LL_GPIO_Init+0x186>
 8005990:	fab3 f383 	clz	r3, r3
 8005994:	009b      	lsls	r3, r3, #2
 8005996:	fa09 f303 	lsl.w	r3, r9, r3
 800599a:	ea43 030a 	orr.w	r3, r3, sl
 800599e:	f10c 0c01 	add.w	ip, ip, #1
 80059a2:	6203      	str	r3, [r0, #32]
 80059a4:	fa34 f30c 	lsrs.w	r3, r4, ip
 80059a8:	d1a0      	bne.n	80058ec <LL_GPIO_Init+0x68>
 80059aa:	2f01      	cmp	r7, #1
 80059ac:	d807      	bhi.n	80059be <LL_GPIO_Init+0x13a>
 80059ae:	68ca      	ldr	r2, [r1, #12]
 80059b0:	6843      	ldr	r3, [r0, #4]
 80059b2:	fb04 f202 	mul.w	r2, r4, r2
 80059b6:	ea23 0404 	bic.w	r4, r3, r4
 80059ba:	4314      	orrs	r4, r2
 80059bc:	6044      	str	r4, [r0, #4]
 80059be:	2000      	movs	r0, #0
 80059c0:	e8bd 87f0 	ldmia.w	sp!, {r4, r5, r6, r7, r8, r9, sl, pc}
 80059c4:	2240      	movs	r2, #64	; 0x40
 80059c6:	e7a8      	b.n	800591a <LL_GPIO_Init+0x96>
 80059c8:	2240      	movs	r2, #64	; 0x40
 80059ca:	e783      	b.n	80058d4 <LL_GPIO_Init+0x50>
 80059cc:	694a      	ldr	r2, [r1, #20]
 80059ce:	f8d0 9024 	ldr.w	r9, [r0, #36]	; 0x24
 80059d2:	0a1b      	lsrs	r3, r3, #8
 80059d4:	fa93 faa3 	rbit	sl, r3
 80059d8:	f1ba 0f00 	cmp.w	sl, #0
 80059dc:	d007      	beq.n	80059ee <LL_GPIO_Init+0x16a>
 80059de:	faba fa8a 	clz	sl, sl
 80059e2:	ea4f 0a8a 	mov.w	sl, sl, lsl #2
 80059e6:	fa08 fa0a 	lsl.w	sl, r8, sl
 80059ea:	ea29 090a 	bic.w	r9, r9, sl
 80059ee:	fa93 f3a3 	rbit	r3, r3
 80059f2:	b163      	cbz	r3, 8005a0e <LL_GPIO_Init+0x18a>
 80059f4:	fab3 f383 	clz	r3, r3
 80059f8:	009b      	lsls	r3, r3, #2
 80059fa:	fa02 f303 	lsl.w	r3, r2, r3
 80059fe:	ea43 0309 	orr.w	r3, r3, r9
 8005a02:	6243      	str	r3, [r0, #36]	; 0x24
 8005a04:	e76d      	b.n	80058e2 <LL_GPIO_Init+0x5e>
 8005a06:	2240      	movs	r2, #64	; 0x40
 8005a08:	e7a3      	b.n	8005952 <LL_GPIO_Init+0xce>
 8005a0a:	2380      	movs	r3, #128	; 0x80
 8005a0c:	e7c3      	b.n	8005996 <LL_GPIO_Init+0x112>
 8005a0e:	2380      	movs	r3, #128	; 0x80
 8005a10:	e7f3      	b.n	80059fa <LL_GPIO_Init+0x176>
 8005a12:	684f      	ldr	r7, [r1, #4]
 8005a14:	3f01      	subs	r7, #1
 8005a16:	e7c8      	b.n	80059aa <LL_GPIO_Init+0x126>

08005a18 <USB_CoreInit>:
 8005a18:	b084      	sub	sp, #16
 8005a1a:	b410      	push	{r4}
 8005a1c:	2400      	movs	r4, #0
 8005a1e:	b083      	sub	sp, #12
 8005a20:	f10d 0c14 	add.w	ip, sp, #20
 8005a24:	e88c 000e 	stmia.w	ip, {r1, r2, r3}
 8005a28:	68c3      	ldr	r3, [r0, #12]
 8005a2a:	4602      	mov	r2, r0
 8005a2c:	f043 0340 	orr.w	r3, r3, #64	; 0x40
 8005a30:	60c3      	str	r3, [r0, #12]
 8005a32:	491a      	ldr	r1, [pc, #104]	; (8005a9c <USB_CoreInit+0x84>)
 8005a34:	9401      	str	r4, [sp, #4]
 8005a36:	e002      	b.n	8005a3e <USB_CoreInit+0x26>
 8005a38:	6913      	ldr	r3, [r2, #16]
 8005a3a:	2b00      	cmp	r3, #0
 8005a3c:	db1a      	blt.n	8005a74 <USB_CoreInit+0x5c>
 8005a3e:	9b01      	ldr	r3, [sp, #4]
 8005a40:	3301      	adds	r3, #1
 8005a42:	9301      	str	r3, [sp, #4]
 8005a44:	9b01      	ldr	r3, [sp, #4]
 8005a46:	428b      	cmp	r3, r1
 8005a48:	d9f6      	bls.n	8005a38 <USB_CoreInit+0x20>
 8005a4a:	2003      	movs	r0, #3
 8005a4c:	9b0e      	ldr	r3, [sp, #56]	; 0x38
 8005a4e:	b943      	cbnz	r3, 8005a62 <USB_CoreInit+0x4a>
 8005a50:	6b93      	ldr	r3, [r2, #56]	; 0x38
 8005a52:	f443 3380 	orr.w	r3, r3, #65536	; 0x10000
 8005a56:	6393      	str	r3, [r2, #56]	; 0x38
 8005a58:	b003      	add	sp, #12
 8005a5a:	f85d 4b04 	ldr.w	r4, [sp], #4
 8005a5e:	b004      	add	sp, #16
 8005a60:	4770      	bx	lr
 8005a62:	6b93      	ldr	r3, [r2, #56]	; 0x38
 8005a64:	f423 3380 	bic.w	r3, r3, #65536	; 0x10000
 8005a68:	6393      	str	r3, [r2, #56]	; 0x38
 8005a6a:	b003      	add	sp, #12
 8005a6c:	f85d 4b04 	ldr.w	r4, [sp], #4
 8005a70:	b004      	add	sp, #16
 8005a72:	4770      	bx	lr
 8005a74:	2300      	movs	r3, #0
 8005a76:	9301      	str	r3, [sp, #4]
 8005a78:	6913      	ldr	r3, [r2, #16]
 8005a7a:	4908      	ldr	r1, [pc, #32]	; (8005a9c <USB_CoreInit+0x84>)
 8005a7c:	f043 0301 	orr.w	r3, r3, #1
 8005a80:	6113      	str	r3, [r2, #16]
 8005a82:	e003      	b.n	8005a8c <USB_CoreInit+0x74>
 8005a84:	6910      	ldr	r0, [r2, #16]
 8005a86:	f010 0001 	ands.w	r0, r0, #1
 8005a8a:	d0df      	beq.n	8005a4c <USB_CoreInit+0x34>
 8005a8c:	9b01      	ldr	r3, [sp, #4]
 8005a8e:	3301      	adds	r3, #1
 8005a90:	9301      	str	r3, [sp, #4]
 8005a92:	9b01      	ldr	r3, [sp, #4]
 8005a94:	428b      	cmp	r3, r1
 8005a96:	d9f5      	bls.n	8005a84 <USB_CoreInit+0x6c>
 8005a98:	e7d7      	b.n	8005a4a <USB_CoreInit+0x32>
 8005a9a:	bf00      	nop
 8005a9c:	00030d40 	.word	0x00030d40

08005aa0 <USB_SetTurnaroundTime>:
 8005aa0:	2a02      	cmp	r2, #2
 8005aa2:	4603      	mov	r3, r0
 8005aa4:	d00b      	beq.n	8005abe <USB_SetTurnaroundTime+0x1e>
 8005aa6:	f44f 5c10 	mov.w	ip, #9216	; 0x2400
 8005aaa:	68d9      	ldr	r1, [r3, #12]
 8005aac:	2000      	movs	r0, #0
 8005aae:	f421 5170 	bic.w	r1, r1, #15360	; 0x3c00
 8005ab2:	60d9      	str	r1, [r3, #12]
 8005ab4:	68da      	ldr	r2, [r3, #12]
 8005ab6:	ea42 020c 	orr.w	r2, r2, ip
 8005aba:	60da      	str	r2, [r3, #12]
 8005abc:	4770      	bx	lr
 8005abe:	4a26      	ldr	r2, [pc, #152]	; (8005b58 <USB_SetTurnaroundTime+0xb8>)
 8005ac0:	4826      	ldr	r0, [pc, #152]	; (8005b5c <USB_SetTurnaroundTime+0xbc>)
 8005ac2:	440a      	add	r2, r1
 8005ac4:	4282      	cmp	r2, r0
 8005ac6:	d932      	bls.n	8005b2e <USB_SetTurnaroundTime+0x8e>
 8005ac8:	4a25      	ldr	r2, [pc, #148]	; (8005b60 <USB_SetTurnaroundTime+0xc0>)
 8005aca:	4826      	ldr	r0, [pc, #152]	; (8005b64 <USB_SetTurnaroundTime+0xc4>)
 8005acc:	440a      	add	r2, r1
 8005ace:	4282      	cmp	r2, r0
 8005ad0:	d930      	bls.n	8005b34 <USB_SetTurnaroundTime+0x94>
 8005ad2:	4825      	ldr	r0, [pc, #148]	; (8005b68 <USB_SetTurnaroundTime+0xc8>)
 8005ad4:	f5a1 0274 	sub.w	r2, r1, #15990784	; 0xf40000
 8005ad8:	f5a2 5210 	sub.w	r2, r2, #9216	; 0x2400
 8005adc:	4282      	cmp	r2, r0
 8005ade:	d92c      	bls.n	8005b3a <USB_SetTurnaroundTime+0x9a>
 8005ae0:	4822      	ldr	r0, [pc, #136]	; (8005b6c <USB_SetTurnaroundTime+0xcc>)
 8005ae2:	f1a1 7283 	sub.w	r2, r1, #17170432	; 0x1060000
 8005ae6:	f5a2 42e7 	sub.w	r2, r2, #29568	; 0x7380
 8005aea:	4282      	cmp	r2, r0
 8005aec:	d328      	bcc.n	8005b40 <USB_SetTurnaroundTime+0xa0>
 8005aee:	4a20      	ldr	r2, [pc, #128]	; (8005b70 <USB_SetTurnaroundTime+0xd0>)
 8005af0:	4820      	ldr	r0, [pc, #128]	; (8005b74 <USB_SetTurnaroundTime+0xd4>)
 8005af2:	440a      	add	r2, r1
 8005af4:	4282      	cmp	r2, r0
 8005af6:	d926      	bls.n	8005b46 <USB_SetTurnaroundTime+0xa6>
 8005af8:	4a1f      	ldr	r2, [pc, #124]	; (8005b78 <USB_SetTurnaroundTime+0xd8>)
 8005afa:	4820      	ldr	r0, [pc, #128]	; (8005b7c <USB_SetTurnaroundTime+0xdc>)
 8005afc:	440a      	add	r2, r1
 8005afe:	4282      	cmp	r2, r0
 8005b00:	d324      	bcc.n	8005b4c <USB_SetTurnaroundTime+0xac>
 8005b02:	4a1f      	ldr	r2, [pc, #124]	; (8005b80 <USB_SetTurnaroundTime+0xe0>)
 8005b04:	481f      	ldr	r0, [pc, #124]	; (8005b84 <USB_SetTurnaroundTime+0xe4>)
 8005b06:	440a      	add	r2, r1
 8005b08:	4282      	cmp	r2, r0
 8005b0a:	d3cc      	bcc.n	8005aa6 <USB_SetTurnaroundTime+0x6>
 8005b0c:	481e      	ldr	r0, [pc, #120]	; (8005b88 <USB_SetTurnaroundTime+0xe8>)
 8005b0e:	f1a1 72b7 	sub.w	r2, r1, #23986176	; 0x16e0000
 8005b12:	f5a2 5258 	sub.w	r2, r2, #13824	; 0x3600
 8005b16:	4282      	cmp	r2, r0
 8005b18:	d31b      	bcc.n	8005b52 <USB_SetTurnaroundTime+0xb2>
 8005b1a:	4a1c      	ldr	r2, [pc, #112]	; (8005b8c <USB_SetTurnaroundTime+0xec>)
 8005b1c:	481c      	ldr	r0, [pc, #112]	; (8005b90 <USB_SetTurnaroundTime+0xf0>)
 8005b1e:	440a      	add	r2, r1
 8005b20:	4282      	cmp	r2, r0
 8005b22:	bf34      	ite	cc
 8005b24:	f44f 5ce0 	movcc.w	ip, #7168	; 0x1c00
 8005b28:	f44f 5cc0 	movcs.w	ip, #6144	; 0x1800
 8005b2c:	e7bd      	b.n	8005aaa <USB_SetTurnaroundTime+0xa>
 8005b2e:	f44f 5c70 	mov.w	ip, #15360	; 0x3c00
 8005b32:	e7ba      	b.n	8005aaa <USB_SetTurnaroundTime+0xa>
 8005b34:	f44f 5c60 	mov.w	ip, #14336	; 0x3800
 8005b38:	e7b7      	b.n	8005aaa <USB_SetTurnaroundTime+0xa>
 8005b3a:	f44f 5c50 	mov.w	ip, #13312	; 0x3400
 8005b3e:	e7b4      	b.n	8005aaa <USB_SetTurnaroundTime+0xa>
 8005b40:	f44f 5c40 	mov.w	ip, #12288	; 0x3000
 8005b44:	e7b1      	b.n	8005aaa <USB_SetTurnaroundTime+0xa>
 8005b46:	f44f 5c30 	mov.w	ip, #11264	; 0x2c00
 8005b4a:	e7ae      	b.n	8005aaa <USB_SetTurnaroundTime+0xa>
 8005b4c:	f44f 5c20 	mov.w	ip, #10240	; 0x2800
 8005b50:	e7ab      	b.n	8005aaa <USB_SetTurnaroundTime+0xa>
 8005b52:	f44f 5c00 	mov.w	ip, #8192	; 0x2000
 8005b56:	e7a8      	b.n	8005aaa <USB_SetTurnaroundTime+0xa>
 8005b58:	ff275340 	.word	0xff275340
 8005b5c:	000c34ff 	.word	0x000c34ff
 8005b60:	ff1b1e40 	.word	0xff1b1e40
 8005b64:	000f423f 	.word	0x000f423f
 8005b68:	00124f7f 	.word	0x00124f7f
 8005b6c:	0013d620 	.word	0x0013d620
 8005b70:	fee5b660 	.word	0xfee5b660
 8005b74:	0016e35f 	.word	0x0016e35f
 8005b78:	feced300 	.word	0xfeced300
 8005b7c:	001b7740 	.word	0x001b7740
 8005b80:	feb35bc0 	.word	0xfeb35bc0
 8005b84:	002191c0 	.word	0x002191c0
 8005b88:	00387520 	.word	0x00387520
 8005b8c:	fe5954e0 	.word	0xfe5954e0
 8005b90:	00419ce0 	.word	0x00419ce0

08005b94 <USB_DisableGlobalInt>:
 8005b94:	4603      	mov	r3, r0
 8005b96:	689a      	ldr	r2, [r3, #8]
 8005b98:	2000      	movs	r0, #0
 8005b9a:	f022 0201 	bic.w	r2, r2, #1
 8005b9e:	609a      	str	r2, [r3, #8]
 8005ba0:	4770      	bx	lr
 8005ba2:	bf00      	nop

08005ba4 <USB_SetCurrentMode>:
 8005ba4:	b538      	push	{r3, r4, r5, lr}
 8005ba6:	68c3      	ldr	r3, [r0, #12]
 8005ba8:	2901      	cmp	r1, #1
 8005baa:	f023 43c0 	bic.w	r3, r3, #1610612736	; 0x60000000
 8005bae:	4605      	mov	r5, r0
 8005bb0:	60c3      	str	r3, [r0, #12]
 8005bb2:	d017      	beq.n	8005be4 <USB_SetCurrentMode+0x40>
 8005bb4:	b9a1      	cbnz	r1, 8005be0 <USB_SetCurrentMode+0x3c>
 8005bb6:	68c3      	ldr	r3, [r0, #12]
 8005bb8:	460c      	mov	r4, r1
 8005bba:	f043 4380 	orr.w	r3, r3, #1073741824	; 0x40000000
 8005bbe:	60c3      	str	r3, [r0, #12]
 8005bc0:	e001      	b.n	8005bc6 <USB_SetCurrentMode+0x22>
 8005bc2:	2c32      	cmp	r4, #50	; 0x32
 8005bc4:	d00c      	beq.n	8005be0 <USB_SetCurrentMode+0x3c>
 8005bc6:	2001      	movs	r0, #1
 8005bc8:	f7fb fa70 	bl	80010ac <HAL_Delay>
 8005bcc:	696b      	ldr	r3, [r5, #20]
 8005bce:	3401      	adds	r4, #1
 8005bd0:	07db      	lsls	r3, r3, #31
 8005bd2:	d4f6      	bmi.n	8005bc2 <USB_SetCurrentMode+0x1e>
 8005bd4:	f1a4 0032 	sub.w	r0, r4, #50	; 0x32
 8005bd8:	fab0 f080 	clz	r0, r0
 8005bdc:	0940      	lsrs	r0, r0, #5
 8005bde:	bd38      	pop	{r3, r4, r5, pc}
 8005be0:	2001      	movs	r0, #1
 8005be2:	bd38      	pop	{r3, r4, r5, pc}
 8005be4:	68c3      	ldr	r3, [r0, #12]
 8005be6:	2400      	movs	r4, #0
 8005be8:	f043 5300 	orr.w	r3, r3, #536870912	; 0x20000000
 8005bec:	60c3      	str	r3, [r0, #12]
 8005bee:	e001      	b.n	8005bf4 <USB_SetCurrentMode+0x50>
 8005bf0:	2c32      	cmp	r4, #50	; 0x32
 8005bf2:	d0f5      	beq.n	8005be0 <USB_SetCurrentMode+0x3c>
 8005bf4:	2001      	movs	r0, #1
 8005bf6:	f7fb fa59 	bl	80010ac <HAL_Delay>
 8005bfa:	696b      	ldr	r3, [r5, #20]
 8005bfc:	3401      	adds	r4, #1
 8005bfe:	07da      	lsls	r2, r3, #31
 8005c00:	d5f6      	bpl.n	8005bf0 <USB_SetCurrentMode+0x4c>
 8005c02:	f1a4 0032 	sub.w	r0, r4, #50	; 0x32
 8005c06:	fab0 f080 	clz	r0, r0
 8005c0a:	0940      	lsrs	r0, r0, #5
 8005c0c:	e7e7      	b.n	8005bde <USB_SetCurrentMode+0x3a>
 8005c0e:	bf00      	nop

08005c10 <USB_DevInit>:
 8005c10:	b084      	sub	sp, #16
 8005c12:	e92d 43f0 	stmdb	sp!, {r4, r5, r6, r7, r8, r9, lr}
 8005c16:	b083      	sub	sp, #12
 8005c18:	ac0b      	add	r4, sp, #44	; 0x2c
 8005c1a:	e884 000e 	stmia.w	r4, {r1, r2, r3}
 8005c1e:	2300      	movs	r3, #0
 8005c20:	9d15      	ldr	r5, [sp, #84]	; 0x54
 8005c22:	f8c0 3104 	str.w	r3, [r0, #260]	; 0x104
 8005c26:	460c      	mov	r4, r1
 8005c28:	f8c0 3108 	str.w	r3, [r0, #264]	; 0x108
 8005c2c:	f8c0 310c 	str.w	r3, [r0, #268]	; 0x10c
 8005c30:	f8c0 3110 	str.w	r3, [r0, #272]	; 0x110
 8005c34:	f8c0 3114 	str.w	r3, [r0, #276]	; 0x114
 8005c38:	f8c0 3118 	str.w	r3, [r0, #280]	; 0x118
 8005c3c:	f8c0 311c 	str.w	r3, [r0, #284]	; 0x11c
 8005c40:	f8c0 3120 	str.w	r3, [r0, #288]	; 0x120
 8005c44:	f8c0 3124 	str.w	r3, [r0, #292]	; 0x124
 8005c48:	f8c0 3128 	str.w	r3, [r0, #296]	; 0x128
 8005c4c:	f8c0 312c 	str.w	r3, [r0, #300]	; 0x12c
 8005c50:	f8c0 3130 	str.w	r3, [r0, #304]	; 0x130
 8005c54:	f8c0 3134 	str.w	r3, [r0, #308]	; 0x134
 8005c58:	f8c0 3138 	str.w	r3, [r0, #312]	; 0x138
 8005c5c:	f8c0 313c 	str.w	r3, [r0, #316]	; 0x13c
 8005c60:	2d00      	cmp	r5, #0
 8005c62:	f040 80a9 	bne.w	8005db8 <USB_DevInit+0x1a8>
 8005c66:	f8d0 3804 	ldr.w	r3, [r0, #2052]	; 0x804
 8005c6a:	f500 6c00 	add.w	ip, r0, #2048	; 0x800
 8005c6e:	f043 0302 	orr.w	r3, r3, #2
 8005c72:	f8cc 3004 	str.w	r3, [ip, #4]
 8005c76:	6b83      	ldr	r3, [r0, #56]	; 0x38
 8005c78:	f423 1300 	bic.w	r3, r3, #2097152	; 0x200000
 8005c7c:	6383      	str	r3, [r0, #56]	; 0x38
 8005c7e:	6803      	ldr	r3, [r0, #0]
 8005c80:	f043 0340 	orr.w	r3, r3, #64	; 0x40
 8005c84:	6003      	str	r3, [r0, #0]
 8005c86:	6803      	ldr	r3, [r0, #0]
 8005c88:	f043 0380 	orr.w	r3, r3, #128	; 0x80
 8005c8c:	6003      	str	r3, [r0, #0]
 8005c8e:	2100      	movs	r1, #0
 8005c90:	f8c0 1e00 	str.w	r1, [r0, #3584]	; 0xe00
 8005c94:	f8dc 3000 	ldr.w	r3, [ip]
 8005c98:	4a5c      	ldr	r2, [pc, #368]	; (8005e0c <USB_DevInit+0x1fc>)
 8005c9a:	f8cc 3000 	str.w	r3, [ip]
 8005c9e:	f8dc 3000 	ldr.w	r3, [ip]
 8005ca2:	f043 0303 	orr.w	r3, r3, #3
 8005ca6:	f8cc 3000 	str.w	r3, [ip]
 8005caa:	9100      	str	r1, [sp, #0]
 8005cac:	e003      	b.n	8005cb6 <USB_DevInit+0xa6>
 8005cae:	6903      	ldr	r3, [r0, #16]
 8005cb0:	2b00      	cmp	r3, #0
 8005cb2:	f2c0 8098 	blt.w	8005de6 <USB_DevInit+0x1d6>
 8005cb6:	9b00      	ldr	r3, [sp, #0]
 8005cb8:	3301      	adds	r3, #1
 8005cba:	9300      	str	r3, [sp, #0]
 8005cbc:	9b00      	ldr	r3, [sp, #0]
 8005cbe:	4293      	cmp	r3, r2
 8005cc0:	d9f5      	bls.n	8005cae <USB_DevInit+0x9e>
 8005cc2:	2101      	movs	r1, #1
 8005cc4:	2300      	movs	r3, #0
 8005cc6:	4a51      	ldr	r2, [pc, #324]	; (8005e0c <USB_DevInit+0x1fc>)
 8005cc8:	9301      	str	r3, [sp, #4]
 8005cca:	e002      	b.n	8005cd2 <USB_DevInit+0xc2>
 8005ccc:	6903      	ldr	r3, [r0, #16]
 8005cce:	2b00      	cmp	r3, #0
 8005cd0:	db79      	blt.n	8005dc6 <USB_DevInit+0x1b6>
 8005cd2:	9b01      	ldr	r3, [sp, #4]
 8005cd4:	3301      	adds	r3, #1
 8005cd6:	9301      	str	r3, [sp, #4]
 8005cd8:	9b01      	ldr	r3, [sp, #4]
 8005cda:	4293      	cmp	r3, r2
 8005cdc:	d9f6      	bls.n	8005ccc <USB_DevInit+0xbc>
 8005cde:	2101      	movs	r1, #1
 8005ce0:	2200      	movs	r2, #0
 8005ce2:	f8cc 2010 	str.w	r2, [ip, #16]
 8005ce6:	f8cc 2014 	str.w	r2, [ip, #20]
 8005cea:	f8cc 201c 	str.w	r2, [ip, #28]
 8005cee:	b1e4      	cbz	r4, 8005d2a <USB_DevInit+0x11a>
 8005cf0:	f04f 4890 	mov.w	r8, #1207959552	; 0x48000000
 8005cf4:	f04f 6900 	mov.w	r9, #134217728	; 0x8000000
 8005cf8:	f64f 3e7f 	movw	lr, #64383	; 0xfb7f
 8005cfc:	4617      	mov	r7, r2
 8005cfe:	f500 6310 	add.w	r3, r0, #2304	; 0x900
 8005d02:	e008      	b.n	8005d16 <USB_DevInit+0x106>
 8005d04:	601f      	str	r7, [r3, #0]
 8005d06:	3201      	adds	r2, #1
 8005d08:	4294      	cmp	r4, r2
 8005d0a:	611f      	str	r7, [r3, #16]
 8005d0c:	f8c3 e008 	str.w	lr, [r3, #8]
 8005d10:	f103 0320 	add.w	r3, r3, #32
 8005d14:	d032      	beq.n	8005d7c <USB_DevInit+0x16c>
 8005d16:	681e      	ldr	r6, [r3, #0]
 8005d18:	2e00      	cmp	r6, #0
 8005d1a:	daf3      	bge.n	8005d04 <USB_DevInit+0xf4>
 8005d1c:	b112      	cbz	r2, 8005d24 <USB_DevInit+0x114>
 8005d1e:	f8c3 8000 	str.w	r8, [r3]
 8005d22:	e7f0      	b.n	8005d06 <USB_DevInit+0xf6>
 8005d24:	f8c3 9000 	str.w	r9, [r3]
 8005d28:	e7ed      	b.n	8005d06 <USB_DevInit+0xf6>
 8005d2a:	2400      	movs	r4, #0
 8005d2c:	f06f 4280 	mvn.w	r2, #1073741824	; 0x40000000
 8005d30:	f8dc 3010 	ldr.w	r3, [ip, #16]
 8005d34:	f423 7380 	bic.w	r3, r3, #256	; 0x100
 8005d38:	f8cc 3010 	str.w	r3, [ip, #16]
 8005d3c:	9b0e      	ldr	r3, [sp, #56]	; 0x38
 8005d3e:	6184      	str	r4, [r0, #24]
 8005d40:	6142      	str	r2, [r0, #20]
 8005d42:	b91b      	cbnz	r3, 8005d4c <USB_DevInit+0x13c>
 8005d44:	6983      	ldr	r3, [r0, #24]
 8005d46:	f043 0310 	orr.w	r3, r3, #16
 8005d4a:	6183      	str	r3, [r0, #24]
 8005d4c:	6982      	ldr	r2, [r0, #24]
 8005d4e:	4b30      	ldr	r3, [pc, #192]	; (8005e10 <USB_DevInit+0x200>)
 8005d50:	4313      	orrs	r3, r2
 8005d52:	9a11      	ldr	r2, [sp, #68]	; 0x44
 8005d54:	6183      	str	r3, [r0, #24]
 8005d56:	b11a      	cbz	r2, 8005d60 <USB_DevInit+0x150>
 8005d58:	6983      	ldr	r3, [r0, #24]
 8005d5a:	f043 0308 	orr.w	r3, r3, #8
 8005d5e:	6183      	str	r3, [r0, #24]
 8005d60:	2d01      	cmp	r5, #1
 8005d62:	d105      	bne.n	8005d70 <USB_DevInit+0x160>
 8005d64:	6983      	ldr	r3, [r0, #24]
 8005d66:	f043 4380 	orr.w	r3, r3, #1073741824	; 0x40000000
 8005d6a:	f043 0304 	orr.w	r3, r3, #4
 8005d6e:	6183      	str	r3, [r0, #24]
 8005d70:	4608      	mov	r0, r1
 8005d72:	b003      	add	sp, #12
 8005d74:	e8bd 43f0 	ldmia.w	sp!, {r4, r5, r6, r7, r8, r9, lr}
 8005d78:	b004      	add	sp, #16
 8005d7a:	4770      	bx	lr
 8005d7c:	2200      	movs	r2, #0
 8005d7e:	f04f 4890 	mov.w	r8, #1207959552	; 0x48000000
 8005d82:	f04f 6900 	mov.w	r9, #134217728	; 0x8000000
 8005d86:	f64f 3e7f 	movw	lr, #64383	; 0xfb7f
 8005d8a:	4617      	mov	r7, r2
 8005d8c:	f500 6330 	add.w	r3, r0, #2816	; 0xb00
 8005d90:	e008      	b.n	8005da4 <USB_DevInit+0x194>
 8005d92:	601f      	str	r7, [r3, #0]
 8005d94:	3201      	adds	r2, #1
 8005d96:	4294      	cmp	r4, r2
 8005d98:	611f      	str	r7, [r3, #16]
 8005d9a:	f8c3 e008 	str.w	lr, [r3, #8]
 8005d9e:	f103 0320 	add.w	r3, r3, #32
 8005da2:	d0c2      	beq.n	8005d2a <USB_DevInit+0x11a>
 8005da4:	681e      	ldr	r6, [r3, #0]
 8005da6:	2e00      	cmp	r6, #0
 8005da8:	daf3      	bge.n	8005d92 <USB_DevInit+0x182>
 8005daa:	b112      	cbz	r2, 8005db2 <USB_DevInit+0x1a2>
 8005dac:	f8c3 8000 	str.w	r8, [r3]
 8005db0:	e7f0      	b.n	8005d94 <USB_DevInit+0x184>
 8005db2:	f8c3 9000 	str.w	r9, [r3]
 8005db6:	e7ed      	b.n	8005d94 <USB_DevInit+0x184>
 8005db8:	6b83      	ldr	r3, [r0, #56]	; 0x38
 8005dba:	f500 6c00 	add.w	ip, r0, #2048	; 0x800
 8005dbe:	f443 1300 	orr.w	r3, r3, #2097152	; 0x200000
 8005dc2:	6383      	str	r3, [r0, #56]	; 0x38
 8005dc4:	e763      	b.n	8005c8e <USB_DevInit+0x7e>
 8005dc6:	2300      	movs	r3, #0
 8005dc8:	9301      	str	r3, [sp, #4]
 8005dca:	2310      	movs	r3, #16
 8005dcc:	4a0f      	ldr	r2, [pc, #60]	; (8005e0c <USB_DevInit+0x1fc>)
 8005dce:	6103      	str	r3, [r0, #16]
 8005dd0:	e002      	b.n	8005dd8 <USB_DevInit+0x1c8>
 8005dd2:	6903      	ldr	r3, [r0, #16]
 8005dd4:	06db      	lsls	r3, r3, #27
 8005dd6:	d583      	bpl.n	8005ce0 <USB_DevInit+0xd0>
 8005dd8:	9b01      	ldr	r3, [sp, #4]
 8005dda:	3301      	adds	r3, #1
 8005ddc:	9301      	str	r3, [sp, #4]
 8005dde:	9b01      	ldr	r3, [sp, #4]
 8005de0:	4293      	cmp	r3, r2
 8005de2:	d9f6      	bls.n	8005dd2 <USB_DevInit+0x1c2>
 8005de4:	e77b      	b.n	8005cde <USB_DevInit+0xce>
 8005de6:	2100      	movs	r1, #0
 8005de8:	f44f 6384 	mov.w	r3, #1056	; 0x420
 8005dec:	9100      	str	r1, [sp, #0]
 8005dee:	4a07      	ldr	r2, [pc, #28]	; (8005e0c <USB_DevInit+0x1fc>)
 8005df0:	6103      	str	r3, [r0, #16]
 8005df2:	e004      	b.n	8005dfe <USB_DevInit+0x1ee>
 8005df4:	6901      	ldr	r1, [r0, #16]
 8005df6:	f011 0120 	ands.w	r1, r1, #32
 8005dfa:	f43f af63 	beq.w	8005cc4 <USB_DevInit+0xb4>
 8005dfe:	9b00      	ldr	r3, [sp, #0]
 8005e00:	3301      	adds	r3, #1
 8005e02:	9300      	str	r3, [sp, #0]
 8005e04:	9b00      	ldr	r3, [sp, #0]
 8005e06:	4293      	cmp	r3, r2
 8005e08:	d9f4      	bls.n	8005df4 <USB_DevInit+0x1e4>
 8005e0a:	e75a      	b.n	8005cc2 <USB_DevInit+0xb2>
 8005e0c:	00030d40 	.word	0x00030d40
 8005e10:	803c3800 	.word	0x803c3800

08005e14 <USB_FlushTxFifo>:
 8005e14:	2300      	movs	r3, #0
 8005e16:	b082      	sub	sp, #8
 8005e18:	4a12      	ldr	r2, [pc, #72]	; (8005e64 <USB_FlushTxFifo+0x50>)
 8005e1a:	9301      	str	r3, [sp, #4]
 8005e1c:	e002      	b.n	8005e24 <USB_FlushTxFifo+0x10>
 8005e1e:	6903      	ldr	r3, [r0, #16]
 8005e20:	2b00      	cmp	r3, #0
 8005e22:	db08      	blt.n	8005e36 <USB_FlushTxFifo+0x22>
 8005e24:	9b01      	ldr	r3, [sp, #4]
 8005e26:	3301      	adds	r3, #1
 8005e28:	9301      	str	r3, [sp, #4]
 8005e2a:	9b01      	ldr	r3, [sp, #4]
 8005e2c:	4293      	cmp	r3, r2
 8005e2e:	d9f6      	bls.n	8005e1e <USB_FlushTxFifo+0xa>
 8005e30:	2003      	movs	r0, #3
 8005e32:	b002      	add	sp, #8
 8005e34:	4770      	bx	lr
 8005e36:	2300      	movs	r3, #0
 8005e38:	0189      	lsls	r1, r1, #6
 8005e3a:	f041 0120 	orr.w	r1, r1, #32
 8005e3e:	9301      	str	r3, [sp, #4]
 8005e40:	4a08      	ldr	r2, [pc, #32]	; (8005e64 <USB_FlushTxFifo+0x50>)
 8005e42:	6101      	str	r1, [r0, #16]
 8005e44:	e003      	b.n	8005e4e <USB_FlushTxFifo+0x3a>
 8005e46:	6903      	ldr	r3, [r0, #16]
 8005e48:	f013 0320 	ands.w	r3, r3, #32
 8005e4c:	d006      	beq.n	8005e5c <USB_FlushTxFifo+0x48>
 8005e4e:	9b01      	ldr	r3, [sp, #4]
 8005e50:	3301      	adds	r3, #1
 8005e52:	9301      	str	r3, [sp, #4]
 8005e54:	9b01      	ldr	r3, [sp, #4]
 8005e56:	4293      	cmp	r3, r2
 8005e58:	d9f5      	bls.n	8005e46 <USB_FlushTxFifo+0x32>
 8005e5a:	e7e9      	b.n	8005e30 <USB_FlushTxFifo+0x1c>
 8005e5c:	4618      	mov	r0, r3
 8005e5e:	b002      	add	sp, #8
 8005e60:	4770      	bx	lr
 8005e62:	bf00      	nop
 8005e64:	00030d40 	.word	0x00030d40

08005e68 <USB_GetDevSpeed>:
 8005e68:	f8d0 3808 	ldr.w	r3, [r0, #2056]	; 0x808
 8005e6c:	f013 0006 	ands.w	r0, r3, #6
 8005e70:	d004      	beq.n	8005e7c <USB_GetDevSpeed+0x14>
 8005e72:	f013 0f02 	tst.w	r3, #2
 8005e76:	bf14      	ite	ne
 8005e78:	2002      	movne	r0, #2
 8005e7a:	200f      	moveq	r0, #15
 8005e7c:	4770      	bx	lr
 8005e7e:	bf00      	nop

08005e80 <USB_EPStopXfer>:
 8005e80:	2300      	movs	r3, #0
 8005e82:	b082      	sub	sp, #8
 8005e84:	9301      	str	r3, [sp, #4]
 8005e86:	784b      	ldrb	r3, [r1, #1]
 8005e88:	2b01      	cmp	r3, #1
 8005e8a:	780b      	ldrb	r3, [r1, #0]
 8005e8c:	d020      	beq.n	8005ed0 <USB_EPStopXfer+0x50>
 8005e8e:	f500 6030 	add.w	r0, r0, #2816	; 0xb00
 8005e92:	eb00 1043 	add.w	r0, r0, r3, lsl #5
 8005e96:	6803      	ldr	r3, [r0, #0]
 8005e98:	2b00      	cmp	r3, #0
 8005e9a:	db02      	blt.n	8005ea2 <USB_EPStopXfer+0x22>
 8005e9c:	2000      	movs	r0, #0
 8005e9e:	b002      	add	sp, #8
 8005ea0:	4770      	bx	lr
 8005ea2:	6803      	ldr	r3, [r0, #0]
 8005ea4:	f242 7210 	movw	r2, #10000	; 0x2710
 8005ea8:	f043 6300 	orr.w	r3, r3, #134217728	; 0x8000000
 8005eac:	6003      	str	r3, [r0, #0]
 8005eae:	6803      	ldr	r3, [r0, #0]
 8005eb0:	f043 4380 	orr.w	r3, r3, #1073741824	; 0x40000000
 8005eb4:	6003      	str	r3, [r0, #0]
 8005eb6:	e002      	b.n	8005ebe <USB_EPStopXfer+0x3e>
 8005eb8:	6803      	ldr	r3, [r0, #0]
 8005eba:	2b00      	cmp	r3, #0
 8005ebc:	daee      	bge.n	8005e9c <USB_EPStopXfer+0x1c>
 8005ebe:	9b01      	ldr	r3, [sp, #4]
 8005ec0:	3301      	adds	r3, #1
 8005ec2:	9301      	str	r3, [sp, #4]
 8005ec4:	9b01      	ldr	r3, [sp, #4]
 8005ec6:	4293      	cmp	r3, r2
 8005ec8:	d9f6      	bls.n	8005eb8 <USB_EPStopXfer+0x38>
 8005eca:	2001      	movs	r0, #1
 8005ecc:	b002      	add	sp, #8
 8005ece:	4770      	bx	lr
 8005ed0:	f500 6010 	add.w	r0, r0, #2304	; 0x900
 8005ed4:	eb00 1343 	add.w	r3, r0, r3, lsl #5
 8005ed8:	681a      	ldr	r2, [r3, #0]
 8005eda:	2a00      	cmp	r2, #0
 8005edc:	dade      	bge.n	8005e9c <USB_EPStopXfer+0x1c>
 8005ede:	681a      	ldr	r2, [r3, #0]
 8005ee0:	f242 7110 	movw	r1, #10000	; 0x2710
 8005ee4:	f042 6200 	orr.w	r2, r2, #134217728	; 0x8000000
 8005ee8:	601a      	str	r2, [r3, #0]
 8005eea:	681a      	ldr	r2, [r3, #0]
 8005eec:	f042 4280 	orr.w	r2, r2, #1073741824	; 0x40000000
 8005ef0:	601a      	str	r2, [r3, #0]
 8005ef2:	e002      	b.n	8005efa <USB_EPStopXfer+0x7a>
 8005ef4:	681a      	ldr	r2, [r3, #0]
 8005ef6:	2a00      	cmp	r2, #0
 8005ef8:	dad0      	bge.n	8005e9c <USB_EPStopXfer+0x1c>
 8005efa:	9a01      	ldr	r2, [sp, #4]
 8005efc:	3201      	adds	r2, #1
 8005efe:	9201      	str	r2, [sp, #4]
 8005f00:	9a01      	ldr	r2, [sp, #4]
 8005f02:	428a      	cmp	r2, r1
 8005f04:	d9f6      	bls.n	8005ef4 <USB_EPStopXfer+0x74>
 8005f06:	e7e0      	b.n	8005eca <USB_EPStopXfer+0x4a>

08005f08 <USB_WritePacket>:
 8005f08:	b410      	push	{r4}
 8005f0a:	f89d 4004 	ldrb.w	r4, [sp, #4]
 8005f0e:	b964      	cbnz	r4, 8005f2a <USB_WritePacket+0x22>
 8005f10:	3303      	adds	r3, #3
 8005f12:	089b      	lsrs	r3, r3, #2
 8005f14:	d009      	beq.n	8005f2a <USB_WritePacket+0x22>
 8005f16:	3201      	adds	r2, #1
 8005f18:	eb00 3002 	add.w	r0, r0, r2, lsl #12
 8005f1c:	eb01 0383 	add.w	r3, r1, r3, lsl #2
 8005f20:	f851 2b04 	ldr.w	r2, [r1], #4
 8005f24:	428b      	cmp	r3, r1
 8005f26:	6002      	str	r2, [r0, #0]
 8005f28:	d1fa      	bne.n	8005f20 <USB_WritePacket+0x18>
 8005f2a:	2000      	movs	r0, #0
 8005f2c:	f85d 4b04 	ldr.w	r4, [sp], #4
 8005f30:	4770      	bx	lr
 8005f32:	bf00      	nop

08005f34 <USB_ReadPacket>:
 8005f34:	ea5f 0c92 	movs.w	ip, r2, lsr #2
 8005f38:	b570      	push	{r4, r5, r6, lr}
 8005f3a:	4605      	mov	r5, r0
 8005f3c:	f002 0603 	and.w	r6, r2, #3
 8005f40:	d01e      	beq.n	8005f80 <USB_ReadPacket+0x4c>
 8005f42:	460a      	mov	r2, r1
 8005f44:	2300      	movs	r3, #0
 8005f46:	f500 5e80 	add.w	lr, r0, #4096	; 0x1000
 8005f4a:	f8de 4000 	ldr.w	r4, [lr]
 8005f4e:	3301      	adds	r3, #1
 8005f50:	459c      	cmp	ip, r3
 8005f52:	f842 4b04 	str.w	r4, [r2], #4
 8005f56:	d1f8      	bne.n	8005f4a <USB_ReadPacket+0x16>
 8005f58:	eb01 008c 	add.w	r0, r1, ip, lsl #2
 8005f5c:	b17e      	cbz	r6, 8005f7e <USB_ReadPacket+0x4a>
 8005f5e:	f505 5580 	add.w	r5, r5, #4096	; 0x1000
 8005f62:	682a      	ldr	r2, [r5, #0]
 8005f64:	1e73      	subs	r3, r6, #1
 8005f66:	b29b      	uxth	r3, r3
 8005f68:	7002      	strb	r2, [r0, #0]
 8005f6a:	b13b      	cbz	r3, 8005f7c <USB_ReadPacket+0x48>
 8005f6c:	2b01      	cmp	r3, #1
 8005f6e:	ea4f 2112 	mov.w	r1, r2, lsr #8
 8005f72:	bf18      	it	ne
 8005f74:	0c12      	lsrne	r2, r2, #16
 8005f76:	7041      	strb	r1, [r0, #1]
 8005f78:	bf18      	it	ne
 8005f7a:	7082      	strbne	r2, [r0, #2]
 8005f7c:	4430      	add	r0, r6
 8005f7e:	bd70      	pop	{r4, r5, r6, pc}
 8005f80:	4608      	mov	r0, r1
 8005f82:	e7eb      	b.n	8005f5c <USB_ReadPacket+0x28>

08005f84 <USB_DevDisconnect>:
 8005f84:	4603      	mov	r3, r0
 8005f86:	f8d3 2e00 	ldr.w	r2, [r3, #3584]	; 0xe00
 8005f8a:	f503 6100 	add.w	r1, r3, #2048	; 0x800
 8005f8e:	f022 0203 	bic.w	r2, r2, #3
 8005f92:	f8c3 2e00 	str.w	r2, [r3, #3584]	; 0xe00
 8005f96:	f8d3 3804 	ldr.w	r3, [r3, #2052]	; 0x804
 8005f9a:	2000      	movs	r0, #0
 8005f9c:	f043 0302 	orr.w	r3, r3, #2
 8005fa0:	604b      	str	r3, [r1, #4]
 8005fa2:	4770      	bx	lr

08005fa4 <USB_ReadInterrupts>:
 8005fa4:	6942      	ldr	r2, [r0, #20]
 8005fa6:	6980      	ldr	r0, [r0, #24]
 8005fa8:	4010      	ands	r0, r2
 8005faa:	4770      	bx	lr

08005fac <USB_ReadDevAllOutEpInterrupt>:
 8005fac:	f8d0 3818 	ldr.w	r3, [r0, #2072]	; 0x818
 8005fb0:	f8d0 081c 	ldr.w	r0, [r0, #2076]	; 0x81c
 8005fb4:	4018      	ands	r0, r3
 8005fb6:	0c00      	lsrs	r0, r0, #16
 8005fb8:	4770      	bx	lr
 8005fba:	bf00      	nop

08005fbc <USB_ReadDevAllInEpInterrupt>:
 8005fbc:	f8d0 3818 	ldr.w	r3, [r0, #2072]	; 0x818
 8005fc0:	f8d0 081c 	ldr.w	r0, [r0, #2076]	; 0x81c
 8005fc4:	4018      	ands	r0, r3
 8005fc6:	b280      	uxth	r0, r0
 8005fc8:	4770      	bx	lr
 8005fca:	bf00      	nop

08005fcc <USB_ReadDevOutEPInterrupt>:
 8005fcc:	eb00 1141 	add.w	r1, r0, r1, lsl #5
 8005fd0:	f500 6000 	add.w	r0, r0, #2048	; 0x800
 8005fd4:	f8d1 2b08 	ldr.w	r2, [r1, #2824]	; 0xb08
 8005fd8:	6940      	ldr	r0, [r0, #20]
 8005fda:	4010      	ands	r0, r2
 8005fdc:	4770      	bx	lr
 8005fde:	bf00      	nop

08005fe0 <USB_ReadDevInEPInterrupt>:
 8005fe0:	f8d0 2810 	ldr.w	r2, [r0, #2064]	; 0x810
 8005fe4:	f8d0 3834 	ldr.w	r3, [r0, #2100]	; 0x834
 8005fe8:	eb00 1041 	add.w	r0, r0, r1, lsl #5
 8005fec:	f001 010f 	and.w	r1, r1, #15
 8005ff0:	40cb      	lsrs	r3, r1
 8005ff2:	01db      	lsls	r3, r3, #7
 8005ff4:	f8d0 0908 	ldr.w	r0, [r0, #2312]	; 0x908
 8005ff8:	b2db      	uxtb	r3, r3
 8005ffa:	4313      	orrs	r3, r2
 8005ffc:	4018      	ands	r0, r3
 8005ffe:	4770      	bx	lr

08006000 <USB_GetMode>:
 8006000:	6940      	ldr	r0, [r0, #20]
 8006002:	f000 0001 	and.w	r0, r0, #1
 8006006:	4770      	bx	lr

08006008 <USB_ActivateSetup>:
 8006008:	4603      	mov	r3, r0
 800600a:	f8d3 2900 	ldr.w	r2, [r3, #2304]	; 0x900
 800600e:	f503 6100 	add.w	r1, r3, #2048	; 0x800
 8006012:	f422 62ff 	bic.w	r2, r2, #2040	; 0x7f8
 8006016:	f022 0207 	bic.w	r2, r2, #7
 800601a:	f8c3 2900 	str.w	r2, [r3, #2304]	; 0x900
 800601e:	f8d3 3804 	ldr.w	r3, [r3, #2052]	; 0x804
 8006022:	2000      	movs	r0, #0
 8006024:	f443 7380 	orr.w	r3, r3, #256	; 0x100
 8006028:	604b      	str	r3, [r1, #4]
 800602a:	4770      	bx	lr

0800602c <USB_EP0_OutStart>:
 800602c:	b410      	push	{r4}
 800602e:	4b14      	ldr	r3, [pc, #80]	; (8006080 <USB_EP0_OutStart+0x54>)
 8006030:	6c04      	ldr	r4, [r0, #64]	; 0x40
 8006032:	429c      	cmp	r4, r3
 8006034:	d81a      	bhi.n	800606c <USB_EP0_OutStart+0x40>
 8006036:	f500 6030 	add.w	r0, r0, #2816	; 0xb00
 800603a:	2300      	movs	r3, #0
 800603c:	6103      	str	r3, [r0, #16]
 800603e:	6903      	ldr	r3, [r0, #16]
 8006040:	2901      	cmp	r1, #1
 8006042:	f443 2300 	orr.w	r3, r3, #524288	; 0x80000
 8006046:	6103      	str	r3, [r0, #16]
 8006048:	6903      	ldr	r3, [r0, #16]
 800604a:	f043 0318 	orr.w	r3, r3, #24
 800604e:	6103      	str	r3, [r0, #16]
 8006050:	6903      	ldr	r3, [r0, #16]
 8006052:	f043 43c0 	orr.w	r3, r3, #1610612736	; 0x60000000
 8006056:	6103      	str	r3, [r0, #16]
 8006058:	d104      	bne.n	8006064 <USB_EP0_OutStart+0x38>
 800605a:	6142      	str	r2, [r0, #20]
 800605c:	6803      	ldr	r3, [r0, #0]
 800605e:	f043 2380 	orr.w	r3, r3, #2147516416	; 0x80008000
 8006062:	6003      	str	r3, [r0, #0]
 8006064:	2000      	movs	r0, #0
 8006066:	f85d 4b04 	ldr.w	r4, [sp], #4
 800606a:	4770      	bx	lr
 800606c:	f8d0 3b00 	ldr.w	r3, [r0, #2816]	; 0xb00
 8006070:	f500 6030 	add.w	r0, r0, #2816	; 0xb00
 8006074:	2b00      	cmp	r3, #0
 8006076:	dae0      	bge.n	800603a <USB_EP0_OutStart+0xe>
 8006078:	2000      	movs	r0, #0
 800607a:	f85d 4b04 	ldr.w	r4, [sp], #4
 800607e:	4770      	bx	lr
 8006080:	4f54300a 	.word	0x4f54300a

08006084 <__libc_init_array>:
 8006084:	b570      	push	{r4, r5, r6, lr}
 8006086:	4d0d      	ldr	r5, [pc, #52]	; (80060bc <__libc_init_array+0x38>)
 8006088:	2600      	movs	r6, #0
 800608a:	4c0d      	ldr	r4, [pc, #52]	; (80060c0 <__libc_init_array+0x3c>)
 800608c:	1b64      	subs	r4, r4, r5
 800608e:	10a4      	asrs	r4, r4, #2
 8006090:	42a6      	cmp	r6, r4
 8006092:	d109      	bne.n	80060a8 <__libc_init_array+0x24>
 8006094:	4d0b      	ldr	r5, [pc, #44]	; (80060c4 <__libc_init_array+0x40>)
 8006096:	2600      	movs	r6, #0
 8006098:	4c0b      	ldr	r4, [pc, #44]	; (80060c8 <__libc_init_array+0x44>)
 800609a:	f000 f81f 	bl	80060dc <_init>
 800609e:	1b64      	subs	r4, r4, r5
 80060a0:	10a4      	asrs	r4, r4, #2
 80060a2:	42a6      	cmp	r6, r4
 80060a4:	d105      	bne.n	80060b2 <__libc_init_array+0x2e>
 80060a6:	bd70      	pop	{r4, r5, r6, pc}
 80060a8:	f855 3b04 	ldr.w	r3, [r5], #4
 80060ac:	3601      	adds	r6, #1
 80060ae:	4798      	blx	r3
 80060b0:	e7ee      	b.n	8006090 <__libc_init_array+0xc>
 80060b2:	f855 3b04 	ldr.w	r3, [r5], #4
 80060b6:	3601      	adds	r6, #1
 80060b8:	4798      	blx	r3
 80060ba:	e7f2      	b.n	80060a2 <__libc_init_array+0x1e>
 80060bc:	080061fc 	.word	0x080061fc
 80060c0:	080061fc 	.word	0x080061fc
 80060c4:	080061fc 	.word	0x080061fc
 80060c8:	08006200 	.word	0x08006200

080060cc <memset>:
 80060cc:	4402      	add	r2, r0
 80060ce:	4603      	mov	r3, r0
 80060d0:	4293      	cmp	r3, r2
 80060d2:	d100      	bne.n	80060d6 <memset+0xa>
 80060d4:	4770      	bx	lr
 80060d6:	f803 1b01 	strb.w	r1, [r3], #1
 80060da:	e7f9      	b.n	80060d0 <memset+0x4>

080060dc <_init>:
 80060dc:	b5f8      	push	{r3, r4, r5, r6, r7, lr}
 80060de:	bf00      	nop
 80060e0:	bcf8      	pop	{r3, r4, r5, r6, r7}
 80060e2:	bc08      	pop	{r3}
 80060e4:	469e      	mov	lr, r3
 80060e6:	4770      	bx	lr

080060e8 <_fini>:
 80060e8:	b5f8      	push	{r3, r4, r5, r6, r7, lr}
 80060ea:	bf00      	nop
 80060ec:	bcf8      	pop	{r3, r4, r5, r6, r7}
 80060ee:	bc08      	pop	{r3}
 80060f0:	469e      	mov	lr, r3
 80060f2:	4770      	bx	lr
